
wifi_udp_han_demo.elf:     file format elf32-avr32

Sections:
Idx Name          Size      VMA       LMA       File off  Algn
  0 .reset        00002008  80000000  80000000  00000400  2**2
                  CONTENTS, ALLOC, LOAD, READONLY, CODE
  1 .rela.got     00000000  80002008  80002008  00002408  2**2
                  CONTENTS, ALLOC, LOAD, READONLY, DATA
  2 .text         00009130  80002008  80002008  00002408  2**2
                  CONTENTS, ALLOC, LOAD, READONLY, CODE
  3 .exception    00000200  8000b200  8000b200  0000b600  2**9
                  CONTENTS, ALLOC, LOAD, READONLY, CODE
  4 .rodata       000008e0  8000b400  8000b400  0000b800  2**2
                  CONTENTS, ALLOC, LOAD, READONLY, DATA
  5 .dalign       00000004  00000004  00000004  00000000  2**0
                  ALLOC
  6 .data         000005f0  00000008  8000bce0  0000c408  2**2
                  CONTENTS, ALLOC, LOAD, DATA
  7 .bss          000009a8  000005f8  000005f8  00000000  2**2
                  ALLOC
  8 .heap         00006060  00000fa0  00000fa0  00000000  2**0
                  ALLOC
  9 .comment      00000030  00000000  00000000  0000c9f8  2**0
                  CONTENTS, READONLY
 10 .debug_aranges 00001240  00000000  00000000  0000ca28  2**3
                  CONTENTS, READONLY, DEBUGGING
 11 .debug_pubnames 00002747  00000000  00000000  0000dc68  2**0
                  CONTENTS, READONLY, DEBUGGING
 12 .debug_info   000327fb  00000000  00000000  000103af  2**0
                  CONTENTS, READONLY, DEBUGGING
 13 .debug_abbrev 000064dd  00000000  00000000  00042baa  2**0
                  CONTENTS, READONLY, DEBUGGING
 14 .debug_line   00012390  00000000  00000000  00049087  2**0
                  CONTENTS, READONLY, DEBUGGING
 15 .debug_frame  00002ddc  00000000  00000000  0005b418  2**2
                  CONTENTS, READONLY, DEBUGGING
 16 .debug_str    00009c91  00000000  00000000  0005e1f4  2**0
                  CONTENTS, READONLY, DEBUGGING
 17 .debug_loc    0000c6e7  00000000  00000000  00067e85  2**0
                  CONTENTS, READONLY, DEBUGGING
 18 .debug_macinfo 00d98c68  00000000  00000000  0007456c  2**0
                  CONTENTS, READONLY, DEBUGGING
 19 .stack        00001000  00007000  00007000  00000000  2**0
                  ALLOC
 20 .debug_ranges 00001348  00000000  00000000  00e0d1d8  2**3
                  CONTENTS, READONLY, DEBUGGING

Disassembly of section .reset:

80000000 <_start>:

  .global _start
  .type _start, @function
_start:
  // Jump to the C runtime startup routine.
  lda.w   pc, _stext
80000000:	fe cf c4 b0 	sub	pc,pc,-15184

80000004 <_trampoline>:
80000004:	e0 8f 10 00 	bral	80002004 <program_start>
	...

80002004 <program_start>:
  rjmp    program_start

  .org  PROGRAM_START_OFFSET
program_start:
  // Jump to the C runtime startup routine.
  lda.w   pc, _stext
80002004:	fe cf e4 b4 	sub	pc,pc,-6988

Disassembly of section .text:

80002008 <tc_init_waveform>:
80002008:	76 09       	ld.w	r9,r11[0x0]
8000200a:	58 29       	cp.w	r9,2


int tc_init_waveform(volatile avr32_tc_t *tc, const tc_waveform_opt_t *opt)
{
  // Check for valid input.
  if (opt->channel >= TC_NUMBER_OF_CHANNELS)
8000200c:	e0 88 00 03 	brls	80002012 <tc_init_waveform+0xa>
80002010:	5e fe       	retal	-1
    return TC_INVALID_ARGUMENT;

  // GENERATE SIGNALS: Waveform operating mode.
  tc->channel[opt->channel].cmr = opt->bswtrg << AVR32_TC_BSWTRG_OFFSET |
80002012:	76 18       	ld.w	r8,r11[0x4]
80002014:	f5 d8 c0 03 	bfextu	r10,r8,0x0,0x3
80002018:	af ba       	sbr	r10,0xf
8000201a:	10 9b       	mov	r11,r8
8000201c:	e6 1b c0 00 	andh	r11,0xc000,COH
80002020:	16 4a       	or	r10,r11
80002022:	10 9b       	mov	r11,r8
80002024:	e6 1b 30 00 	andh	r11,0x3000,COH
80002028:	16 4a       	or	r10,r11
8000202a:	10 9b       	mov	r11,r8
8000202c:	e6 1b 0c 00 	andh	r11,0xc00,COH
80002030:	16 4a       	or	r10,r11
80002032:	10 9b       	mov	r11,r8
80002034:	e6 1b 03 00 	andh	r11,0x300,COH
80002038:	16 4a       	or	r10,r11
8000203a:	10 9b       	mov	r11,r8
8000203c:	e6 1b 00 c0 	andh	r11,0xc0,COH
80002040:	16 4a       	or	r10,r11
80002042:	10 9b       	mov	r11,r8
80002044:	e6 1b 00 30 	andh	r11,0x30,COH
80002048:	16 4a       	or	r10,r11
8000204a:	10 9b       	mov	r11,r8
8000204c:	e6 1b 00 0c 	andh	r11,0xc,COH
80002050:	16 4a       	or	r10,r11
80002052:	10 9b       	mov	r11,r8
80002054:	e6 1b 00 03 	andh	r11,0x3,COH
80002058:	16 4a       	or	r10,r11
8000205a:	10 9b       	mov	r11,r8
8000205c:	e2 1b 60 00 	andl	r11,0x6000,COH
80002060:	16 4a       	or	r10,r11
80002062:	f7 d8 c1 81 	bfextu	r11,r8,0xc,0x1
80002066:	f5 eb 10 ca 	or	r10,r10,r11<<0xc
8000206a:	10 9b       	mov	r11,r8
8000206c:	e2 1b 0c 00 	andl	r11,0xc00,COH
80002070:	16 4a       	or	r10,r11
80002072:	10 9b       	mov	r11,r8
80002074:	e2 1b 03 00 	andl	r11,0x300,COH
80002078:	16 4a       	or	r10,r11
8000207a:	f7 d8 c0 e1 	bfextu	r11,r8,0x7,0x1
8000207e:	f5 eb 10 7a 	or	r10,r10,r11<<0x7
80002082:	f7 d8 c0 c1 	bfextu	r11,r8,0x6,0x1
80002086:	f5 eb 10 6a 	or	r10,r10,r11<<0x6
8000208a:	10 9b       	mov	r11,r8
8000208c:	e2 1b 00 30 	andl	r11,0x30,COH
80002090:	16 4a       	or	r10,r11
80002092:	f1 d8 c0 61 	bfextu	r8,r8,0x3,0x1
80002096:	f5 e8 10 38 	or	r8,r10,r8<<0x3
8000209a:	a5 69       	lsl	r9,0x4
8000209c:	2f f9       	sub	r9,-1
8000209e:	f8 09 09 28 	st.w	r12[r9<<0x2],r8
800020a2:	5e fd       	retal	0

800020a4 <tc_start>:


int tc_start(volatile avr32_tc_t *tc, unsigned int channel)
{
  // Check for valid input.
  if (channel >= TC_NUMBER_OF_CHANNELS)
800020a4:	58 2b       	cp.w	r11,2
800020a6:	e0 88 00 03 	brls	800020ac <tc_start+0x8>
800020aa:	5e fe       	retal	-1
    return TC_INVALID_ARGUMENT;

  // Enable, reset and start the selected timer/counter channel.
  tc->channel[channel].ccr = AVR32_TC_SWTRG_MASK | AVR32_TC_CLKEN_MASK;
800020ac:	a7 6b       	lsl	r11,0x6
800020ae:	16 0c       	add	r12,r11
800020b0:	30 58       	mov	r8,5
800020b2:	99 08       	st.w	r12[0x0],r8
800020b4:	5e fd       	retal	0

800020b6 <tc_read_sr>:


int tc_read_sr(volatile avr32_tc_t *tc, unsigned int channel)
{
  // Check for valid input.
  if (channel >= TC_NUMBER_OF_CHANNELS)
800020b6:	58 2b       	cp.w	r11,2
800020b8:	e0 88 00 03 	brls	800020be <tc_read_sr+0x8>
800020bc:	5e fe       	retal	-1
    return TC_INVALID_ARGUMENT;

  return tc->channel[channel].sr;
800020be:	a7 6b       	lsl	r11,0x6
800020c0:	2e 0b       	sub	r11,-32
800020c2:	16 0c       	add	r12,r11
800020c4:	78 0c       	ld.w	r12,r12[0x0]
}
800020c6:	5e fc       	retal	r12

800020c8 <tc_write_rc>:


int tc_write_rc(volatile avr32_tc_t *tc, unsigned int channel, unsigned short value)
{
  // Check for valid input.
  if (channel >= TC_NUMBER_OF_CHANNELS)
800020c8:	58 2b       	cp.w	r11,2
800020ca:	e0 88 00 03 	brls	800020d0 <tc_write_rc+0x8>
800020ce:	5e fe       	retal	-1
    return TC_INVALID_ARGUMENT;

  // This function is only available in WAVEFORM mode.
  if (Tst_bits(tc->channel[channel].cmr, AVR32_TC_WAVE_MASK))
800020d0:	f6 08 15 04 	lsl	r8,r11,0x4
800020d4:	2f f8       	sub	r8,-1
800020d6:	f8 08 03 28 	ld.w	r8,r12[r8<<0x2]
800020da:	e2 18 80 00 	andl	r8,0x8000,COH
800020de:	c0 c0       	breq	800020f6 <tc_write_rc+0x2e>
    Wr_bitfield(tc->channel[channel].rc, AVR32_TC_RC_MASK, value);
800020e0:	a7 6b       	lsl	r11,0x6
800020e2:	16 0c       	add	r12,r11
800020e4:	2e 4c       	sub	r12,-28
800020e6:	78 08       	ld.w	r8,r12[0x0]
800020e8:	f3 da c0 10 	bfextu	r9,r10,0x0,0x10
800020ec:	e0 18 00 00 	andl	r8,0x0
800020f0:	f3 e8 10 08 	or	r8,r9,r8
800020f4:	99 08       	st.w	r12[0x0],r8

  return value;
800020f6:	f9 da c0 10 	bfextu	r12,r10,0x0,0x10
}
800020fa:	5e fc       	retal	r12

800020fc <tc_configure_interrupts>:
  return tc->channel[channel].imr;
}


int tc_configure_interrupts(volatile avr32_tc_t *tc, unsigned int channel, const tc_interrupt_t *bitfield)
{
800020fc:	eb cd 40 fc 	pushm	r2-r7,lr
  bool global_interrupt_enabled = Is_global_interrupt_enabled();
80002100:	e1 b9 00 00 	mfsr	r9,0x0

  // Check for valid input.
  if (channel >= TC_NUMBER_OF_CHANNELS)
80002104:	58 2b       	cp.w	r11,2
80002106:	e0 88 00 04 	brls	8000210e <tc_configure_interrupts+0x12>
8000210a:	e3 cf c0 fc 	ldm	sp++,r2-r7,pc,r12=-1
	return flags;
}

static inline bool cpu_irq_is_enabled_flags(irqflags_t flags)
{
	return !(flags & AVR32_SR_GM_MASK);
8000210e:	ee 19 00 01 	eorh	r9,0x1
80002112:	f3 d9 c2 01 	bfextu	r9,r9,0x10,0x1
    return TC_INVALID_ARGUMENT;

  // Enable the appropriate interrupts.
  tc->channel[channel].ier = bitfield->etrgs << AVR32_TC_ETRGS_OFFSET |
80002116:	74 08       	ld.w	r8,r10[0x0]
80002118:	ef d8 c0 e1 	bfextu	r7,r8,0x7,0x1
8000211c:	fd d8 c0 c1 	bfextu	lr,r8,0x6,0x1
80002120:	a7 6e       	lsl	lr,0x6
80002122:	fd e7 10 7e 	or	lr,lr,r7<<0x7
80002126:	ef d8 c0 01 	bfextu	r7,r8,0x0,0x1
8000212a:	0e 4e       	or	lr,r7
8000212c:	ef d8 c0 a1 	bfextu	r7,r8,0x5,0x1
80002130:	fd e7 10 5e 	or	lr,lr,r7<<0x5
80002134:	ef d8 c0 81 	bfextu	r7,r8,0x4,0x1
80002138:	fd e7 10 4e 	or	lr,lr,r7<<0x4
8000213c:	ef d8 c0 61 	bfextu	r7,r8,0x3,0x1
80002140:	fd e7 10 3e 	or	lr,lr,r7<<0x3
80002144:	ef d8 c0 41 	bfextu	r7,r8,0x2,0x1
80002148:	fd e7 10 2e 	or	lr,lr,r7<<0x2
8000214c:	f1 d8 c0 21 	bfextu	r8,r8,0x1,0x1
80002150:	fd e8 10 18 	or	r8,lr,r8<<0x1
80002154:	f6 0e 15 06 	lsl	lr,r11,0x6
80002158:	f8 0e 00 0e 	add	lr,r12,lr
8000215c:	2d ce       	sub	lr,-36
8000215e:	9d 08       	st.w	lr[0x0],r8
                             bitfield->cpas << AVR32_TC_CPAS_OFFSET |
                             bitfield->lovrs << AVR32_TC_LOVRS_OFFSET |
                             bitfield->covfs << AVR32_TC_COVFS_OFFSET;

  // Disable the appropriate interrupts.
  if (global_interrupt_enabled) Disable_global_interrupt();
80002160:	58 09       	cp.w	r9,0
80002162:	c0 20       	breq	80002166 <tc_configure_interrupts+0x6a>
80002164:	d3 03       	ssrf	0x10
  tc->channel[channel].idr = (~bitfield->etrgs & 1) << AVR32_TC_ETRGS_OFFSET |
80002166:	74 08       	ld.w	r8,r10[0x0]
80002168:	f1 d8 c0 e1 	bfextu	r8,r8,0x7,0x1
8000216c:	e0 65 00 80 	mov	r5,128
80002170:	f9 b5 01 00 	movne	r5,0
                             (~bitfield->ldrbs & 1) << AVR32_TC_LDRBS_OFFSET |
80002174:	74 08       	ld.w	r8,r10[0x0]
80002176:	f1 d8 c0 c1 	bfextu	r8,r8,0x6,0x1
8000217a:	f9 b4 00 40 	moveq	r4,64
8000217e:	f9 b4 01 00 	movne	r4,0
                             (~bitfield->ldras & 1) << AVR32_TC_LDRAS_OFFSET |
80002182:	74 08       	ld.w	r8,r10[0x0]
80002184:	f1 d8 c0 a1 	bfextu	r8,r8,0x5,0x1
80002188:	f9 b3 00 20 	moveq	r3,32
8000218c:	f9 b3 01 00 	movne	r3,0
                             (~bitfield->cpcs & 1) << AVR32_TC_CPCS_OFFSET |
80002190:	74 08       	ld.w	r8,r10[0x0]
80002192:	f1 d8 c0 81 	bfextu	r8,r8,0x4,0x1
80002196:	f9 b2 00 10 	moveq	r2,16
8000219a:	f9 b2 01 00 	movne	r2,0
                             (~bitfield->cpbs & 1) << AVR32_TC_CPBS_OFFSET |
8000219e:	74 08       	ld.w	r8,r10[0x0]
800021a0:	f1 d8 c0 61 	bfextu	r8,r8,0x3,0x1
800021a4:	f9 b6 00 08 	moveq	r6,8
800021a8:	f9 b6 01 00 	movne	r6,0
                             (~bitfield->cpas & 1) << AVR32_TC_CPAS_OFFSET |
800021ac:	74 08       	ld.w	r8,r10[0x0]
800021ae:	f1 d8 c0 41 	bfextu	r8,r8,0x2,0x1
800021b2:	f9 b7 00 04 	moveq	r7,4
800021b6:	f9 b7 01 00 	movne	r7,0
                             (~bitfield->lovrs & 1) << AVR32_TC_LOVRS_OFFSET |
800021ba:	74 08       	ld.w	r8,r10[0x0]
800021bc:	f1 d8 c0 21 	bfextu	r8,r8,0x1,0x1
800021c0:	f9 be 00 02 	moveq	lr,2
800021c4:	f9 be 01 00 	movne	lr,0
                             bitfield->lovrs << AVR32_TC_LOVRS_OFFSET |
                             bitfield->covfs << AVR32_TC_COVFS_OFFSET;

  // Disable the appropriate interrupts.
  if (global_interrupt_enabled) Disable_global_interrupt();
  tc->channel[channel].idr = (~bitfield->etrgs & 1) << AVR32_TC_ETRGS_OFFSET |
800021c8:	74 08       	ld.w	r8,r10[0x0]
800021ca:	ec 18 00 01 	eorl	r8,0x1
800021ce:	f1 d8 c0 01 	bfextu	r8,r8,0x0,0x1
800021d2:	eb e8 10 08 	or	r8,r5,r8
800021d6:	08 48       	or	r8,r4
800021d8:	06 48       	or	r8,r3
800021da:	04 48       	or	r8,r2
800021dc:	0c 48       	or	r8,r6
800021de:	0e 48       	or	r8,r7
800021e0:	1c 48       	or	r8,lr
800021e2:	f6 0a 15 06 	lsl	r10,r11,0x6
800021e6:	f8 0a 00 0a 	add	r10,r12,r10
800021ea:	2d 8a       	sub	r10,-40
800021ec:	95 08       	st.w	r10[0x0],r8
                             (~bitfield->cpcs & 1) << AVR32_TC_CPCS_OFFSET |
                             (~bitfield->cpbs & 1) << AVR32_TC_CPBS_OFFSET |
                             (~bitfield->cpas & 1) << AVR32_TC_CPAS_OFFSET |
                             (~bitfield->lovrs & 1) << AVR32_TC_LOVRS_OFFSET |
                             (~bitfield->covfs & 1) << AVR32_TC_COVFS_OFFSET;
  tc->channel[channel].sr;
800021ee:	a7 6b       	lsl	r11,0x6
800021f0:	2e 0b       	sub	r11,-32
800021f2:	16 0c       	add	r12,r11
800021f4:	78 08       	ld.w	r8,r12[0x0]
  if (global_interrupt_enabled) Enable_global_interrupt();
800021f6:	58 09       	cp.w	r9,0
800021f8:	c0 31       	brne	800021fe <tc_configure_interrupts+0x102>
800021fa:	e3 cf 80 fc 	ldm	sp++,r2-r7,pc,r12=0
800021fe:	d5 03       	csrf	0x10
80002200:	e3 cf 80 fc 	ldm	sp++,r2-r7,pc,r12=0

80002204 <twi_master_interrupt_handler>:
/*! \brief TWI interrupt handler.
 */
ISR(twi_master_interrupt_handler, CONF_TWI_IRQ_GROUP, CONF_TWI_IRQ_LEVEL)
{
	// get masked status register value
	int status = twi_inst->sr & twi_it_mask;
80002204:	4a 68       	lddpc	r8,8000229c <twi_master_interrupt_handler+0x98>
80002206:	70 08       	ld.w	r8,r8[0x0]
80002208:	70 89       	ld.w	r9,r8[0x20]
8000220a:	4a 6a       	lddpc	r10,800022a0 <twi_master_interrupt_handler+0x9c>
8000220c:	74 0a       	ld.w	r10,r10[0x0]
8000220e:	f5 e9 00 09 	and	r9,r10,r9

	// this is a NACK
	if (status & AVR32_TWI_SR_NACK_MASK) {
80002212:	12 9a       	mov	r10,r9
80002214:	e2 1a 01 00 	andl	r10,0x100,COH
80002218:	c3 81       	brne	80002288 <twi_master_interrupt_handler+0x84>
		goto nack;
	}
	// this is a RXRDY
	else if (status & AVR32_TWI_SR_RXRDY_MASK) {
8000221a:	12 9a       	mov	r10,r9
8000221c:	e2 1a 00 02 	andl	r10,0x2,COH
80002220:	c1 60       	breq	8000224c <twi_master_interrupt_handler+0x48>
		// get data from Receive Holding Register
		*twi_rx_data = twi_inst->rhr;
80002222:	4a 19       	lddpc	r9,800022a4 <twi_master_interrupt_handler+0xa0>
80002224:	72 0a       	ld.w	r10,r9[0x0]
80002226:	70 cb       	ld.w	r11,r8[0x30]
80002228:	b4 8b       	st.b	r10[0x0],r11
		twi_rx_data++;
8000222a:	72 0a       	ld.w	r10,r9[0x0]
8000222c:	2f fa       	sub	r10,-1
8000222e:	93 0a       	st.w	r9[0x0],r10
		// last byte to receive
		if (--twi_rx_nb_bytes == 1) {
80002230:	49 e9       	lddpc	r9,800022a8 <twi_master_interrupt_handler+0xa4>
80002232:	72 0a       	ld.w	r10,r9[0x0]
80002234:	20 1a       	sub	r10,1
80002236:	93 0a       	st.w	r9[0x0],r10
80002238:	72 09       	ld.w	r9,r9[0x0]
8000223a:	58 19       	cp.w	r9,1
8000223c:	c0 31       	brne	80002242 <twi_master_interrupt_handler+0x3e>
			// set stop bit
			twi_inst->cr = AVR32_TWI_STOP_MASK;
8000223e:	30 29       	mov	r9,2
80002240:	91 09       	st.w	r8[0x0],r9
		}
		// receive complete
		if (twi_rx_nb_bytes == 0) {
80002242:	49 a9       	lddpc	r9,800022a8 <twi_master_interrupt_handler+0xa4>
80002244:	72 09       	ld.w	r9,r9[0x0]
80002246:	58 09       	cp.w	r9,0
80002248:	c2 30       	breq	8000228e <twi_master_interrupt_handler+0x8a>
8000224a:	d6 03       	rete
			// finish the receive operation
			goto complete;
		}
	}
	// this is a TXRDY
	else if (status & AVR32_TWI_SR_TXRDY_MASK) {
8000224c:	12 9a       	mov	r10,r9
8000224e:	e2 1a 00 04 	andl	r10,0x4,COH
80002252:	c1 70       	breq	80002280 <twi_master_interrupt_handler+0x7c>
		// decrease transmitted bytes number
		twi_tx_nb_bytes--;
80002254:	49 69       	lddpc	r9,800022ac <twi_master_interrupt_handler+0xa8>
80002256:	72 0a       	ld.w	r10,r9[0x0]
80002258:	20 1a       	sub	r10,1
8000225a:	93 0a       	st.w	r9[0x0],r10
		// no more bytes to transmit
		if (twi_tx_nb_bytes <= 0) {
8000225c:	72 09       	ld.w	r9,r9[0x0]
8000225e:	58 09       	cp.w	r9,0
80002260:	e0 89 00 0a 	brgt	80002274 <twi_master_interrupt_handler+0x70>
			// enable TXCOMP IT and unmask all others IT
			twi_it_mask = AVR32_TWI_IER_TXCOMP_MASK;
80002264:	48 f9       	lddpc	r9,800022a0 <twi_master_interrupt_handler+0x9c>
80002266:	30 1a       	mov	r10,1
80002268:	93 0a       	st.w	r9[0x0],r10
			twi_inst->idr = ~0UL;
8000226a:	3f fa       	mov	r10,-1
8000226c:	91 aa       	st.w	r8[0x28],r10
			twi_inst->ier = twi_it_mask;
8000226e:	72 09       	ld.w	r9,r9[0x0]
80002270:	91 99       	st.w	r8[0x24],r9
80002272:	d6 03       	rete
		} else {
			// put the byte in the Transmit Holding Register
			twi_inst->thr = *twi_tx_data++;
80002274:	48 fa       	lddpc	r10,800022b0 <twi_master_interrupt_handler+0xac>
80002276:	74 09       	ld.w	r9,r10[0x0]
80002278:	13 3b       	ld.ub	r11,r9++
8000227a:	91 db       	st.w	r8[0x34],r11
8000227c:	95 09       	st.w	r10[0x0],r9
8000227e:	d6 03       	rete
		}
	}
	// this is a TXCOMP
	else if (status & AVR32_TWI_SR_TXCOMP_MASK) {
80002280:	f3 d9 c0 01 	bfextu	r9,r9,0x0,0x1
80002284:	c0 51       	brne	8000228e <twi_master_interrupt_handler+0x8a>
80002286:	d6 03       	rete
	}

	return;

nack:
	twi_nack = true;
80002288:	30 1a       	mov	r10,1
8000228a:	48 b9       	lddpc	r9,800022b4 <twi_master_interrupt_handler+0xb0>
8000228c:	b2 8a       	st.b	r9[0x0],r10

complete:
	// disable all interrupts
	twi_inst->idr = ~0UL;
8000228e:	3f f9       	mov	r9,-1
80002290:	91 a9       	st.w	r8[0x28],r9
	twi_inst->sr;
80002292:	70 88       	ld.w	r8,r8[0x20]
	twi_busy = false;
80002294:	30 09       	mov	r9,0
80002296:	48 98       	lddpc	r8,800022b8 <twi_master_interrupt_handler+0xb4>
80002298:	b0 89       	st.b	r8[0x0],r9
8000229a:	d6 03       	rete
8000229c:	00 00       	add	r0,r0
8000229e:	06 04       	add	r4,r3
800022a0:	00 00       	add	r0,r0
800022a2:	06 00       	add	r0,r3
800022a4:	00 00       	add	r0,r0
800022a6:	06 10       	sub	r0,r3
800022a8:	00 00       	add	r0,r0
800022aa:	06 0c       	add	r12,r3
800022ac:	00 00       	add	r0,r0
800022ae:	05 fc       	ld.ub	r12,r2[0x7]
800022b0:	00 00       	add	r0,r0
800022b2:	06 08       	add	r8,r3
800022b4:	00 00       	add	r0,r0
800022b6:	05 f9       	ld.ub	r9,r2[0x7]
800022b8:	00 00       	add	r0,r0
800022ba:	05 f8       	ld.ub	r8,r2[0x7]

800022bc <twi_mk_addr>:
 * which byte is the MSB to start with.
 *
 * Please see the device datasheet for details on this.
 */
static uint32_t twi_mk_addr(const uint8_t *addr, int len)
{
800022bc:	18 98       	mov	r8,r12
	uint32_t val;

	if (len == 0)
800022be:	58 0b       	cp.w	r11,0
800022c0:	c0 21       	brne	800022c4 <twi_mk_addr+0x8>
800022c2:	5e fd       	retal	0
		return 0;

	val = addr[0];
800022c4:	19 8c       	ld.ub	r12,r12[0x0]
	if (len > 1) {
800022c6:	58 1b       	cp.w	r11,1
800022c8:	e0 8a 00 05 	brle	800022d2 <twi_mk_addr+0x16>
		val <<= 8;
		val |= addr[1];
800022cc:	11 99       	ld.ub	r9,r8[0x1]
800022ce:	f3 ec 10 8c 	or	r12,r9,r12<<0x8
	}
	if (len > 2) {
800022d2:	58 2b       	cp.w	r11,2
800022d4:	5e ac       	retle	r12
		val <<= 8;
		val |= addr[2];
800022d6:	11 a8       	ld.ub	r8,r8[0x2]
800022d8:	f1 ec 10 8c 	or	r12,r8,r12<<0x8
	}
	return val;
}
800022dc:	5e fc       	retal	r12
800022de:	d7 03       	nop

800022e0 <twi_is_busy>:
}


bool twi_is_busy(void)
{
	if (twi_busy) {
800022e0:	48 28       	lddpc	r8,800022e8 <twi_is_busy+0x8>
800022e2:	11 8c       	ld.ub	r12,r8[0x0]
		return true;          // Still receiving/transmitting...
	} else {
		return false;
	}
}
800022e4:	5e fc       	retal	r12
800022e6:	00 00       	add	r0,r0
800022e8:	00 00       	add	r0,r0
800022ea:	05 f8       	ld.ub	r8,r2[0x7]

800022ec <twi_master_write>:
	return TWI_SUCCESS;
}


int twi_master_write(volatile avr32_twi_t *twi, const twi_package_t *package)
{
800022ec:	eb cd 40 c0 	pushm	r6-r7,lr
800022f0:	18 96       	mov	r6,r12
800022f2:	16 97       	mov	r7,r11
	// No data to send
	if (package->length == 0) {
800022f4:	76 38       	ld.w	r8,r11[0xc]
800022f6:	58 08       	cp.w	r8,0
800022f8:	c0 51       	brne	80002302 <twi_master_write+0x16>
800022fa:	e3 cf c0 c0 	ldm	sp++,r6-r7,pc,r12=-1
		return TWI_INVALID_ARGUMENT;
	}

	while (twi_is_busy()) {
		cpu_relax();
800022fe:	fe cf ff fc 	sub	pc,pc,-4
	// No data to send
	if (package->length == 0) {
		return TWI_INVALID_ARGUMENT;
	}

	while (twi_is_busy()) {
80002302:	f0 1f 00 1f 	mcall	8000237c <twi_master_write+0x90>
80002306:	cf c1       	brne	800022fe <twi_master_write+0x12>
		cpu_relax();
	};

	twi_nack = false;
80002308:	30 09       	mov	r9,0
8000230a:	49 e8       	lddpc	r8,80002380 <twi_master_write+0x94>
8000230c:	b0 89       	st.b	r8[0x0],r9
	twi_busy = true;
8000230e:	30 19       	mov	r9,1
80002310:	49 d8       	lddpc	r8,80002384 <twi_master_write+0x98>
80002312:	b0 89       	st.b	r8[0x0],r9

	// Enable master transfer, disable slave
	twi->cr =   AVR32_TWI_CR_MSEN_MASK
80002314:	32 48       	mov	r8,36
80002316:	8d 08       	st.w	r6[0x0],r8
			| AVR32_TWI_CR_SVDIS_MASK
#endif
			;

	// set write mode, slave address and 3 internal address byte length
	twi->mmr = (0 << AVR32_TWI_MMR_MREAD_OFFSET) |
80002318:	6e 18       	ld.w	r8,r7[0x4]
8000231a:	a9 68       	lsl	r8,0x8
8000231c:	e2 18 03 00 	andl	r8,0x300,COH
80002320:	0f 89       	ld.ub	r9,r7[0x0]
80002322:	f1 e9 11 08 	or	r8,r8,r9<<0x10
80002326:	8d 18       	st.w	r6[0x4],r8
			(package->chip << AVR32_TWI_MMR_DADR_OFFSET) |
			((package->addr_length << AVR32_TWI_MMR_IADRSZ_OFFSET) & AVR32_TWI_MMR_IADRSZ_MASK);

	// Set pointer to TWI instance for IT
	twi_inst = twi;
80002328:	49 88       	lddpc	r8,80002388 <twi_master_write+0x9c>
8000232a:	91 06       	st.w	r8[0x0],r6

	// set internal address for remote chip
	twi->iadr = twi_mk_addr(package->addr, package->addr_length);
8000232c:	6e 1b       	ld.w	r11,r7[0x4]
8000232e:	ee cc ff ff 	sub	r12,r7,-1
80002332:	f0 1f 00 17 	mcall	8000238c <twi_master_write+0xa0>
80002336:	8d 3c       	st.w	r6[0xc],r12

	// get a pointer to applicative data
	twi_tx_data = package->buffer;
80002338:	6e 29       	ld.w	r9,r7[0x8]
8000233a:	49 68       	lddpc	r8,80002390 <twi_master_write+0xa4>
8000233c:	91 09       	st.w	r8[0x0],r9

	// get a copy of nb bytes to write
	twi_tx_nb_bytes = package->length;
8000233e:	6e 3a       	ld.w	r10,r7[0xc]
80002340:	49 59       	lddpc	r9,80002394 <twi_master_write+0xa8>
80002342:	93 0a       	st.w	r9[0x0],r10

	// put the first byte in the Transmit Holding Register
	twi->thr = *twi_tx_data++;
80002344:	70 09       	ld.w	r9,r8[0x0]
80002346:	13 3a       	ld.ub	r10,r9++
80002348:	8d da       	st.w	r6[0x34],r10
8000234a:	91 09       	st.w	r8[0x0],r9

	// mask NACK and TXRDY interrupts
	twi_it_mask = AVR32_TWI_IER_NACK_MASK | AVR32_TWI_IER_TXRDY_MASK;
8000234c:	49 38       	lddpc	r8,80002398 <twi_master_write+0xac>
8000234e:	e0 69 01 04 	mov	r9,260
80002352:	91 09       	st.w	r8[0x0],r9

	// update IMR through IER
	twi->ier = twi_it_mask;
80002354:	70 08       	ld.w	r8,r8[0x0]
80002356:	8d 98       	st.w	r6[0x24],r8

	// send data
	while (twi_is_busy()) {
80002358:	c0 38       	rjmp	8000235e <twi_master_write+0x72>
		cpu_relax();
8000235a:	fe cf ff fc 	sub	pc,pc,-4

	// update IMR through IER
	twi->ier = twi_it_mask;

	// send data
	while (twi_is_busy()) {
8000235e:	f0 1f 00 08 	mcall	8000237c <twi_master_write+0x90>
80002362:	cf c1       	brne	8000235a <twi_master_write+0x6e>
		cpu_relax();
	}

	// Disable master transfer
	twi->cr =  AVR32_TWI_CR_MSDIS_MASK;
80002364:	30 88       	mov	r8,8
80002366:	8d 08       	st.w	r6[0x0],r8

	if (twi_nack) {
80002368:	48 68       	lddpc	r8,80002380 <twi_master_write+0x94>
8000236a:	11 8c       	ld.ub	r12,r8[0x0]
8000236c:	58 0c       	cp.w	r12,0
8000236e:	f9 bc 01 fb 	movne	r12,-5
80002372:	f9 bc 00 00 	moveq	r12,0
		return TWI_RECEIVE_NACK;
	}

	return TWI_SUCCESS;
}
80002376:	e3 cd 80 c0 	ldm	sp++,r6-r7,pc
8000237a:	00 00       	add	r0,r0
8000237c:	80 00       	ld.sh	r0,r0[0x0]
8000237e:	22 e0       	sub	r0,46
80002380:	00 00       	add	r0,r0
80002382:	05 f9       	ld.ub	r9,r2[0x7]
80002384:	00 00       	add	r0,r0
80002386:	05 f8       	ld.ub	r8,r2[0x7]
80002388:	00 00       	add	r0,r0
8000238a:	06 04       	add	r4,r3
8000238c:	80 00       	ld.sh	r0,r0[0x0]
8000238e:	22 bc       	sub	r12,43
80002390:	00 00       	add	r0,r0
80002392:	06 08       	add	r8,r3
80002394:	00 00       	add	r0,r0
80002396:	05 fc       	ld.ub	r12,r2[0x7]
80002398:	00 00       	add	r0,r0
8000239a:	06 00       	add	r0,r3

8000239c <twi_master_read>:
	}
	return val;
}

int twi_master_read(volatile avr32_twi_t *twi, const twi_package_t *package)
{
8000239c:	eb cd 40 c0 	pushm	r6-r7,lr
800023a0:	18 96       	mov	r6,r12
800023a2:	16 97       	mov	r7,r11
	// check argument
	if (package->length == 0) {
800023a4:	76 38       	ld.w	r8,r11[0xc]
800023a6:	58 08       	cp.w	r8,0
800023a8:	c0 51       	brne	800023b2 <twi_master_read+0x16>
800023aa:	e3 cf c0 c0 	ldm	sp++,r6-r7,pc,r12=-1
		return TWI_INVALID_ARGUMENT;
	}
#if 1	//20141209
	while (twi_is_busy()) {
		cpu_relax();
800023ae:	fe cf ff fc 	sub	pc,pc,-4
	// check argument
	if (package->length == 0) {
		return TWI_INVALID_ARGUMENT;
	}
#if 1	//20141209
	while (twi_is_busy()) {
800023b2:	f0 1f 00 21 	mcall	80002434 <twi_master_read+0x98>
800023b6:	cf c1       	brne	800023ae <twi_master_read+0x12>
		cpu_relax();
	};
#endif
	twi_nack = false;
800023b8:	30 09       	mov	r9,0
800023ba:	4a 08       	lddpc	r8,80002438 <twi_master_read+0x9c>
800023bc:	b0 89       	st.b	r8[0x0],r9
	twi_busy = true;
800023be:	30 19       	mov	r9,1
800023c0:	49 f8       	lddpc	r8,8000243c <twi_master_read+0xa0>
800023c2:	b0 89       	st.b	r8[0x0],r9

	// set read mode, slave address and 3 internal address byte length
	twi->mmr = (package->chip << AVR32_TWI_MMR_DADR_OFFSET) |
800023c4:	0f 89       	ld.ub	r9,r7[0x0]
800023c6:	6e 18       	ld.w	r8,r7[0x4]
800023c8:	a9 68       	lsl	r8,0x8
800023ca:	e2 18 03 00 	andl	r8,0x300,COH
800023ce:	f1 e9 11 08 	or	r8,r8,r9<<0x10
800023d2:	ad a8       	sbr	r8,0xc
800023d4:	8d 18       	st.w	r6[0x4],r8
			((package->addr_length << AVR32_TWI_MMR_IADRSZ_OFFSET) & AVR32_TWI_MMR_IADRSZ_MASK) |
			(1 << AVR32_TWI_MMR_MREAD_OFFSET);

	// Set pointer to TWIM instance for IT
	twi_inst = twi;
800023d6:	49 b8       	lddpc	r8,80002440 <twi_master_read+0xa4>
800023d8:	91 06       	st.w	r8[0x0],r6

	// set internal address for remote chip
	twi->iadr = twi_mk_addr(package->addr, package->addr_length);
800023da:	6e 1b       	ld.w	r11,r7[0x4]
800023dc:	ee cc ff ff 	sub	r12,r7,-1
800023e0:	f0 1f 00 19 	mcall	80002444 <twi_master_read+0xa8>
800023e4:	8d 3c       	st.w	r6[0xc],r12

	// get a pointer to applicative data
	twi_rx_data = package->buffer;
800023e6:	6e 29       	ld.w	r9,r7[0x8]
800023e8:	49 88       	lddpc	r8,80002448 <twi_master_read+0xac>
800023ea:	91 09       	st.w	r8[0x0],r9

	// get a copy of nb bytes to read
	twi_rx_nb_bytes = package->length;
800023ec:	6e 39       	ld.w	r9,r7[0xc]
800023ee:	49 88       	lddpc	r8,8000244c <twi_master_read+0xb0>
800023f0:	91 09       	st.w	r8[0x0],r9

	// Enable master transfer
	twi->cr =  AVR32_TWI_CR_MSEN_MASK;
800023f2:	30 49       	mov	r9,4
800023f4:	8d 09       	st.w	r6[0x0],r9

	// Send start condition
	twi->cr = AVR32_TWI_START_MASK;
800023f6:	30 19       	mov	r9,1
800023f8:	8d 09       	st.w	r6[0x0],r9

	// only one byte to receive
	if (twi_rx_nb_bytes == 1) {
800023fa:	70 08       	ld.w	r8,r8[0x0]
800023fc:	12 38       	cp.w	r8,r9
800023fe:	c0 31       	brne	80002404 <twi_master_read+0x68>
		// set stop bit
		twi->cr = AVR32_TWI_STOP_MASK;
80002400:	30 28       	mov	r8,2
80002402:	8d 08       	st.w	r6[0x0],r8
	}

	// mask NACK and RXRDY interrupts
	twi_it_mask = AVR32_TWI_IER_NACK_MASK | AVR32_TWI_IER_RXRDY_MASK;
80002404:	49 38       	lddpc	r8,80002450 <twi_master_read+0xb4>
80002406:	e0 69 01 02 	mov	r9,258
8000240a:	91 09       	st.w	r8[0x0],r9

	// update IMR through IER
	twi->ier = twi_it_mask;
8000240c:	70 08       	ld.w	r8,r8[0x0]
8000240e:	8d 98       	st.w	r6[0x24],r8
#if 1	//20141209
	// get data
	while (twi_is_busy()) {
80002410:	c0 38       	rjmp	80002416 <twi_master_read+0x7a>
		cpu_relax();
80002412:	fe cf ff fc 	sub	pc,pc,-4

	// update IMR through IER
	twi->ier = twi_it_mask;
#if 1	//20141209
	// get data
	while (twi_is_busy()) {
80002416:	f0 1f 00 08 	mcall	80002434 <twi_master_read+0x98>
8000241a:	cf c1       	brne	80002412 <twi_master_read+0x76>
		cpu_relax();
	}
#endif
	// Disable master transfer
	twi->cr =  AVR32_TWI_CR_MSDIS_MASK;
8000241c:	30 88       	mov	r8,8
8000241e:	8d 08       	st.w	r6[0x0],r8

	if (twi_nack) {
80002420:	48 68       	lddpc	r8,80002438 <twi_master_read+0x9c>
80002422:	11 8c       	ld.ub	r12,r8[0x0]
80002424:	58 0c       	cp.w	r12,0
80002426:	f9 bc 01 fb 	movne	r12,-5
8000242a:	f9 bc 00 00 	moveq	r12,0
		return TWI_RECEIVE_NACK;
	}

	return TWI_SUCCESS;
}
8000242e:	e3 cd 80 c0 	ldm	sp++,r6-r7,pc
80002432:	00 00       	add	r0,r0
80002434:	80 00       	ld.sh	r0,r0[0x0]
80002436:	22 e0       	sub	r0,46
80002438:	00 00       	add	r0,r0
8000243a:	05 f9       	ld.ub	r9,r2[0x7]
8000243c:	00 00       	add	r0,r0
8000243e:	05 f8       	ld.ub	r8,r2[0x7]
80002440:	00 00       	add	r0,r0
80002442:	06 04       	add	r4,r3
80002444:	80 00       	ld.sh	r0,r0[0x0]
80002446:	22 bc       	sub	r12,43
80002448:	00 00       	add	r0,r0
8000244a:	06 10       	sub	r0,r3
8000244c:	00 00       	add	r0,r0
8000244e:	06 0c       	add	r12,r3
80002450:	00 00       	add	r0,r0
80002452:	06 00       	add	r0,r3

80002454 <twi_master_init>:
	return TWI_SUCCESS;
}


int twi_master_init(volatile avr32_twi_t *twi, const twi_options_t *opt)
{
80002454:	eb cd 40 e0 	pushm	r5-r7,lr
80002458:	18 97       	mov	r7,r12
8000245a:	16 95       	mov	r5,r11
	irqflags_t flags = sysreg_read(AVR32_SR);
8000245c:	e1 b8 00 00 	mfsr	r8,0x0
	int status = TWI_SUCCESS;

	// Set pointer to TWIM instance for IT
	twi_inst = twi;
80002460:	49 f9       	lddpc	r9,800024dc <twi_master_init+0x88>
80002462:	93 0c       	st.w	r9[0x0],r12

	// Disable TWI interrupts
	cpu_irq_disable();
80002464:	d3 03       	ssrf	0x10
	twi->idr = ~0UL;
80002466:	3f f9       	mov	r9,-1
80002468:	99 a9       	st.w	r12[0x28],r9
	twi->sr;
8000246a:	78 89       	ld.w	r9,r12[0x20]

	// Reset TWI
	twi->cr = AVR32_TWI_CR_SWRST_MASK;
8000246c:	e0 69 00 80 	mov	r9,128
80002470:	99 09       	st.w	r12[0x0],r9
static inline void cpu_irq_restore(irqflags_t flags)
{
	barrier();

   /* Restore the global IRQ mask status flag if it was previously set */
   if ( cpu_irq_is_enabled_flags(flags) ) {
80002472:	e6 18 00 01 	andh	r8,0x1,COH
80002476:	c0 21       	brne	8000247a <twi_master_init+0x26>
      cpu_irq_enable();
80002478:	d5 03       	csrf	0x10
	cpu_irq_restore(flags);

	// Dummy read in SR
	twi->sr;
8000247a:	6e 88       	ld.w	r8,r7[0x20]

static inline irqflags_t cpu_irq_save(void)
{
	irqflags_t flags;

	flags = sysreg_read(AVR32_SR);
8000247c:	e1 b6 00 00 	mfsr	r6,0x0
	cpu_irq_disable();
80002480:	d3 03       	ssrf	0x10

	// register Register twim_master_interrupt_handler interrupt
	// on level CONF_TWI_IRQ_LEVEL
	flags = cpu_irq_save();
	irq_register_handler(&twi_master_interrupt_handler, CONF_TWI_IRQ_LINE,
80002482:	30 3a       	mov	r10,3
80002484:	e0 6b 01 60 	mov	r11,352
80002488:	49 6c       	lddpc	r12,800024e0 <twi_master_init+0x8c>
8000248a:	f0 1f 00 17 	mcall	800024e4 <twi_master_init+0x90>
static inline void cpu_irq_restore(irqflags_t flags)
{
	barrier();

   /* Restore the global IRQ mask status flag if it was previously set */
   if ( cpu_irq_is_enabled_flags(flags) ) {
8000248e:	e6 16 00 01 	andh	r6,0x1,COH
80002492:	c0 21       	brne	80002496 <twi_master_init+0x42>
      cpu_irq_enable();
80002494:	d5 03       	csrf	0x10
		unsigned long pba_hz)
{
	unsigned int ckdiv = 0;
	unsigned int c_lh_div;

	c_lh_div = pba_hz / (speed * 2) - 4;
80002496:	6a 19       	ld.w	r9,r5[0x4]
80002498:	a1 79       	lsl	r9,0x1
8000249a:	6a 08       	ld.w	r8,r5[0x0]
8000249c:	f0 09 0d 08 	divu	r8,r8,r9
800024a0:	20 48       	sub	r8,4

	// cldiv must fit in 8 bits, ckdiv must fit in 3 bits
	while ((c_lh_div > 0xFF) && (ckdiv < 0x7)) {
800024a2:	e0 48 00 ff 	cp.w	r8,255
800024a6:	e0 8b 00 04 	brhi	800024ae <twi_master_init+0x5a>
800024aa:	30 09       	mov	r9,0
800024ac:	c0 f8       	rjmp	800024ca <twi_master_init+0x76>
800024ae:	30 09       	mov	r9,0
800024b0:	30 0c       	mov	r12,0
		// increase clock divider
		ckdiv++;
800024b2:	2f f9       	sub	r9,-1

		// divide cldiv value
		c_lh_div /= 2;
800024b4:	a1 98       	lsr	r8,0x1
	unsigned int c_lh_div;

	c_lh_div = pba_hz / (speed * 2) - 4;

	// cldiv must fit in 8 bits, ckdiv must fit in 3 bits
	while ((c_lh_div > 0xFF) && (ckdiv < 0x7)) {
800024b6:	e0 48 00 ff 	cp.w	r8,255
800024ba:	5f bb       	srhi	r11
800024bc:	58 69       	cp.w	r9,6
800024be:	5f 8a       	srls	r10
800024c0:	f7 ea 00 0a 	and	r10,r11,r10
800024c4:	f8 0a 18 00 	cp.b	r10,r12
800024c8:	cf 51       	brne	800024b2 <twi_master_init+0x5e>
		// divide cldiv value
		c_lh_div /= 2;
	}

	// set clock waveform generator register
	twi->cwgr = ((c_lh_div << AVR32_TWI_CWGR_CLDIV_OFFSET) |
800024ca:	b1 69       	lsl	r9,0x10
800024cc:	f3 e8 10 89 	or	r9,r9,r8<<0x8
800024d0:	f3 e8 10 08 	or	r8,r9,r8
800024d4:	8f 48       	st.w	r7[0x10],r8

	// Probe the component
	//status = twi_probe(twi, opt->chip);

	return status;
}
800024d6:	e3 cf 80 e0 	ldm	sp++,r5-r7,pc,r12=0
800024da:	00 00       	add	r0,r0
800024dc:	00 00       	add	r0,r0
800024de:	06 04       	add	r4,r3
800024e0:	80 00       	ld.sh	r0,r0[0x0]
800024e2:	22 04       	sub	r4,32
800024e4:	80 00       	ld.sh	r0,r0[0x0]
800024e6:	28 64       	sub	r4,-122

800024e8 <ui_com_open>:
{
	LED_On(LED0);
}

void ui_com_open(uint8_t port)
{
800024e8:	d4 01       	pushm	lr
	LED_On(LED2);
800024ea:	30 4c       	mov	r12,4
800024ec:	f0 1f 00 02 	mcall	800024f4 <ui_com_open+0xc>
}
800024f0:	d8 02       	popm	pc
800024f2:	00 00       	add	r0,r0
800024f4:	80 00       	ld.sh	r0,r0[0x0]
800024f6:	26 4c       	sub	r12,100

800024f8 <ui_wakeup>:
	LED_Off(LED1);
	LED_Off(LED2);
}

void ui_wakeup(void)
{
800024f8:	d4 01       	pushm	lr
	LED_On(LED0);
800024fa:	30 1c       	mov	r12,1
800024fc:	f0 1f 00 02 	mcall	80002504 <ui_wakeup+0xc>
}
80002500:	d8 02       	popm	pc
80002502:	00 00       	add	r0,r0
80002504:	80 00       	ld.sh	r0,r0[0x0]
80002506:	26 4c       	sub	r12,100

80002508 <ui_process>:
void ui_com_overflow(void)
{
}

void ui_process(uint16_t framenumber)
{
80002508:	d4 01       	pushm	lr
	if ((framenumber % 1000) == 0) {
8000250a:	5c 7c       	castu.h	r12
8000250c:	e0 69 4d d3 	mov	r9,19923
80002510:	ea 19 10 62 	orh	r9,0x1062
80002514:	f8 09 06 48 	mulu.d	r8,r12,r9
80002518:	f2 08 16 06 	lsr	r8,r9,0x6
8000251c:	e0 69 03 e8 	mov	r9,1000
80002520:	b3 38       	mul	r8,r9
80002522:	10 1c       	sub	r12,r8
80002524:	5c 8c       	casts.h	r12
80002526:	c0 51       	brne	80002530 <ui_process+0x28>
		LED_On(LED1);
80002528:	30 2c       	mov	r12,2
8000252a:	f0 1f 00 07 	mcall	80002544 <ui_process+0x3c>
8000252e:	d8 02       	popm	pc
	}
	if ((framenumber % 1000) == 500) {
80002530:	e0 68 01 f4 	mov	r8,500
80002534:	f0 0c 19 00 	cp.h	r12,r8
80002538:	c0 41       	brne	80002540 <ui_process+0x38>
		LED_Off(LED1);
8000253a:	30 2c       	mov	r12,2
8000253c:	f0 1f 00 03 	mcall	80002548 <ui_process+0x40>
80002540:	d8 02       	popm	pc
80002542:	00 00       	add	r0,r0
80002544:	80 00       	ld.sh	r0,r0[0x0]
80002546:	26 4c       	sub	r12,100
80002548:	80 00       	ld.sh	r0,r0[0x0]
8000254a:	26 9c       	sub	r12,105

8000254c <ui_com_close>:
{
	LED_On(LED2);
}

void ui_com_close(uint8_t port)
{
8000254c:	d4 01       	pushm	lr
	LED_Off(LED2);
8000254e:	30 4c       	mov	r12,4
80002550:	f0 1f 00 02 	mcall	80002558 <ui_com_close+0xc>
}
80002554:	d8 02       	popm	pc
80002556:	00 00       	add	r0,r0
80002558:	80 00       	ld.sh	r0,r0[0x0]
8000255a:	26 9c       	sub	r12,105

8000255c <ui_powerdown>:
	LED_Off(LED1);
	LED_Off(LED2);
}

void ui_powerdown(void)
{
8000255c:	d4 01       	pushm	lr
	LED_Off(LED0);
8000255e:	30 1c       	mov	r12,1
80002560:	f0 1f 00 05 	mcall	80002574 <ui_powerdown+0x18>
	LED_Off(LED1);
80002564:	30 2c       	mov	r12,2
80002566:	f0 1f 00 04 	mcall	80002574 <ui_powerdown+0x18>
	LED_Off(LED2);
8000256a:	30 4c       	mov	r12,4
8000256c:	f0 1f 00 02 	mcall	80002574 <ui_powerdown+0x18>
}
80002570:	d8 02       	popm	pc
80002572:	00 00       	add	r0,r0
80002574:	80 00       	ld.sh	r0,r0[0x0]
80002576:	26 9c       	sub	r12,105

80002578 <ui_init>:

#include <asf.h>
#include "ui.h"

void ui_init(void)
{
80002578:	d4 01       	pushm	lr
	LED_On(LED0);
8000257a:	30 1c       	mov	r12,1
8000257c:	f0 1f 00 05 	mcall	80002590 <ui_init+0x18>
	LED_Off(LED1);
80002580:	30 2c       	mov	r12,2
80002582:	f0 1f 00 05 	mcall	80002594 <ui_init+0x1c>
	LED_Off(LED2);
80002586:	30 4c       	mov	r12,4
80002588:	f0 1f 00 03 	mcall	80002594 <ui_init+0x1c>
}
8000258c:	d8 02       	popm	pc
8000258e:	00 00       	add	r0,r0
80002590:	80 00       	ld.sh	r0,r0[0x0]
80002592:	26 4c       	sub	r12,100
80002594:	80 00       	ld.sh	r0,r0[0x0]
80002596:	26 9c       	sub	r12,105

80002598 <board_init>:
#if defined (CONF_BOARD_AT45DBX)
#	define AT45DBX_MEM_CNT  1
#endif

void board_init(void)
{
80002598:	d4 01       	pushm	lr
	gpio_configure_pin(LED0_GPIO,GPIO_DIR_OUTPUT | GPIO_INIT_HIGH);
8000259a:	30 3b       	mov	r11,3
8000259c:	30 7c       	mov	r12,7
8000259e:	f0 1f 00 14 	mcall	800025ec <board_init+0x54>
	gpio_configure_pin(LED1_GPIO,GPIO_DIR_OUTPUT | GPIO_INIT_HIGH);
800025a2:	30 3b       	mov	r11,3
800025a4:	30 8c       	mov	r12,8
800025a6:	f0 1f 00 12 	mcall	800025ec <board_init+0x54>
	gpio_configure_pin(LED2_GPIO,GPIO_DIR_OUTPUT | GPIO_INIT_HIGH);
800025aa:	30 3b       	mov	r11,3
800025ac:	31 5c       	mov	r12,21
800025ae:	f0 1f 00 10 	mcall	800025ec <board_init+0x54>
	gpio_configure_pin(LED3_GPIO,GPIO_DIR_OUTPUT | GPIO_INIT_HIGH);
800025b2:	30 3b       	mov	r11,3
800025b4:	31 6c       	mov	r12,22
800025b6:	f0 1f 00 0e 	mcall	800025ec <board_init+0x54>
//20141103	gpio_configure_pin(GPIO_JOYSTICK_LEFT,GPIO_DIR_INPUT);
//20141103	gpio_configure_pin(GPIO_JOYSTICK_UP,GPIO_DIR_INPUT);
//20141103	gpio_configure_pin(GPIO_JOYSTICK_DOWN,GPIO_DIR_INPUT);

//20141103
	gpio_configure_pin(SGA100_ACC_INT_PIN,GPIO_DIR_INPUT);
800025ba:	30 0b       	mov	r11,0
800025bc:	30 5c       	mov	r12,5
800025be:	f0 1f 00 0c 	mcall	800025ec <board_init+0x54>
	gpio_configure_pin(BMA150_ACC_INT_PIN,GPIO_DIR_INPUT);
800025c2:	30 0b       	mov	r11,0
800025c4:	32 2c       	mov	r12,34
800025c6:	f0 1f 00 0a 	mcall	800025ec <board_init+0x54>
	gpio_configure_pin(ITG3200_GYR_INT_PIN,GPIO_DIR_INPUT);
800025ca:	30 0b       	mov	r11,0
800025cc:	32 3c       	mov	r12,35
800025ce:	f0 1f 00 08 	mcall	800025ec <board_init+0x54>
	gpio_configure_pin(AK8975_MAG_INT_PIN,GPIO_DIR_INPUT);
800025d2:	30 0b       	mov	r11,0
800025d4:	30 6c       	mov	r12,6
800025d6:	f0 1f 00 06 	mcall	800025ec <board_init+0x54>
		{AVR32_TWI_SDA_0_0_PIN, AVR32_TWI_SDA_0_0_FUNCTION},
		{AVR32_TWI_SCL_0_0_PIN, AVR32_TWI_SCL_0_0_FUNCTION},
	};

	// TWI gpio pins configuration
	gpio_enable_module(TWI_GPIO_MAP,
800025da:	30 2b       	mov	r11,2
800025dc:	48 5c       	lddpc	r12,800025f0 <board_init+0x58>
800025de:	f0 1f 00 06 	mcall	800025f4 <board_init+0x5c>
	// USART GPIO pin configuration.
	static const gpio_map_t COMPORT_GPIO_MAP = {
		{USART_RXD_PIN, USART_RXD_FUNCTION },
		{USART_TXD_PIN, USART_TXD_FUNCTION },
	};
	gpio_enable_module(COMPORT_GPIO_MAP,
800025e2:	30 2b       	mov	r11,2
800025e4:	48 5c       	lddpc	r12,800025f8 <board_init+0x60>
800025e6:	f0 1f 00 04 	mcall	800025f4 <board_init+0x5c>

	// Assign GPIO pins to USB.
	gpio_enable_module(USB_GPIO_MAP,
			sizeof(USB_GPIO_MAP) / sizeof(USB_GPIO_MAP[0]));
#endif
}
800025ea:	d8 02       	popm	pc
800025ec:	80 00       	ld.sh	r0,r0[0x0]
800025ee:	27 a8       	sub	r8,122
800025f0:	80 00       	ld.sh	r0,r0[0x0]
800025f2:	b4 10       	st.h	r10[0x2],r0
800025f4:	80 00       	ld.sh	r0,r0[0x0]
800025f6:	27 78       	sub	r8,119
800025f8:	80 00       	ld.sh	r0,r0[0x0]
800025fa:	b4 00       	st.h	r10[0x0],r0

800025fc <LED_Toggle>:
  tLED_DESCRIPTOR *led_descriptor = &LED_DESCRIPTOR[0] - 1;
  volatile avr32_gpio_port_t *led_gpio_port;
  U8 led_shift;

  // Make sure only existing LEDs are specified.
  leds &= (1 << LED_COUNT) - 1;
800025fc:	f9 dc c0 04 	bfextu	r12,r12,0x0,0x4

  // Update the saved state of all LEDs with the requested changes.
  Tgl_bits(LED_State, leds);
80002600:	49 18       	lddpc	r8,80002644 <LED_Toggle+0x48>
80002602:	70 09       	ld.w	r9,r8[0x0]
80002604:	f9 e9 20 09 	eor	r9,r12,r9
80002608:	91 09       	st.w	r8[0x0],r9

  // While there are specified LEDs left to manage...
  while (leds)
8000260a:	58 0c       	cp.w	r12,0
8000260c:	5e 0c       	reteq	r12
8000260e:	48 f8       	lddpc	r8,80002648 <LED_Toggle+0x4c>
80002610:	21 08       	sub	r8,16
  {
    // Select the next specified LED and toggle it.
    led_shift = 1 + ctz(leds);
80002612:	18 9a       	mov	r10,r12
80002614:	5c 9a       	brev	r10
80002616:	f4 0a 12 00 	clz	r10,r10
8000261a:	2f fa       	sub	r10,-1
    led_descriptor += led_shift;
8000261c:	f4 09 15 04 	lsl	r9,r10,0x4
80002620:	12 08       	add	r8,r9
    led_gpio_port = &AVR32_GPIO.port[led_descriptor->GPIO.PORT];
80002622:	70 09       	ld.w	r9,r8[0x0]
80002624:	a9 69       	lsl	r9,0x8
80002626:	e0 29 f0 00 	sub	r9,61440
    led_gpio_port->ovrt  = led_descriptor->GPIO.PIN_MASK;
8000262a:	70 1b       	ld.w	r11,r8[0x4]
8000262c:	f3 4b 00 5c 	st.w	r9[92],r11
    led_gpio_port->oders = led_descriptor->GPIO.PIN_MASK;
80002630:	70 1b       	ld.w	r11,r8[0x4]
80002632:	f3 4b 00 44 	st.w	r9[68],r11
    led_gpio_port->gpers = led_descriptor->GPIO.PIN_MASK;
80002636:	70 1b       	ld.w	r11,r8[0x4]
80002638:	93 1b       	st.w	r9[0x4],r11
    leds >>= led_shift;
8000263a:	f8 0a 0a 4c 	lsr	r12,r12,r10

  // Update the saved state of all LEDs with the requested changes.
  Tgl_bits(LED_State, leds);

  // While there are specified LEDs left to manage...
  while (leds)
8000263e:	ce a1       	brne	80002612 <LED_Toggle+0x16>
80002640:	5e fc       	retal	r12
80002642:	00 00       	add	r0,r0
80002644:	00 00       	add	r0,r0
80002646:	00 08       	add	r8,r0
80002648:	80 00       	ld.sh	r0,r0[0x0]
8000264a:	b4 20       	st.h	r10[0x4],r0

8000264c <LED_On>:
  tLED_DESCRIPTOR *led_descriptor = &LED_DESCRIPTOR[0] - 1;
  volatile avr32_gpio_port_t *led_gpio_port;
  U8 led_shift;

  // Make sure only existing LEDs are specified.
  leds &= (1 << LED_COUNT) - 1;
8000264c:	f9 dc c0 04 	bfextu	r12,r12,0x0,0x4

  // Update the saved state of all LEDs with the requested changes.
  Set_bits(LED_State, leds);
80002650:	49 18       	lddpc	r8,80002694 <LED_On+0x48>
80002652:	70 09       	ld.w	r9,r8[0x0]
80002654:	f9 e9 10 09 	or	r9,r12,r9
80002658:	91 09       	st.w	r8[0x0],r9

  // While there are specified LEDs left to manage...
  while (leds)
8000265a:	58 0c       	cp.w	r12,0
8000265c:	5e 0c       	reteq	r12
8000265e:	48 f8       	lddpc	r8,80002698 <LED_On+0x4c>
80002660:	21 08       	sub	r8,16
  {
    // Select the next specified LED and turn it on.
    led_shift = 1 + ctz(leds);
80002662:	18 9a       	mov	r10,r12
80002664:	5c 9a       	brev	r10
80002666:	f4 0a 12 00 	clz	r10,r10
8000266a:	2f fa       	sub	r10,-1
    led_descriptor += led_shift;
8000266c:	f4 09 15 04 	lsl	r9,r10,0x4
80002670:	12 08       	add	r8,r9
    led_gpio_port = &AVR32_GPIO.port[led_descriptor->GPIO.PORT];
80002672:	70 09       	ld.w	r9,r8[0x0]
80002674:	a9 69       	lsl	r9,0x8
80002676:	e0 29 f0 00 	sub	r9,61440
    led_gpio_port->ovrc  = led_descriptor->GPIO.PIN_MASK;
8000267a:	70 1b       	ld.w	r11,r8[0x4]
8000267c:	f3 4b 00 58 	st.w	r9[88],r11
    led_gpio_port->oders = led_descriptor->GPIO.PIN_MASK;
80002680:	70 1b       	ld.w	r11,r8[0x4]
80002682:	f3 4b 00 44 	st.w	r9[68],r11
    led_gpio_port->gpers = led_descriptor->GPIO.PIN_MASK;
80002686:	70 1b       	ld.w	r11,r8[0x4]
80002688:	93 1b       	st.w	r9[0x4],r11
    leds >>= led_shift;
8000268a:	f8 0a 0a 4c 	lsr	r12,r12,r10

  // Update the saved state of all LEDs with the requested changes.
  Set_bits(LED_State, leds);

  // While there are specified LEDs left to manage...
  while (leds)
8000268e:	ce a1       	brne	80002662 <LED_On+0x16>
80002690:	5e fc       	retal	r12
80002692:	00 00       	add	r0,r0
80002694:	00 00       	add	r0,r0
80002696:	00 08       	add	r8,r0
80002698:	80 00       	ld.sh	r0,r0[0x0]
8000269a:	b4 20       	st.h	r10[0x4],r0

8000269c <LED_Off>:
  tLED_DESCRIPTOR *led_descriptor = &LED_DESCRIPTOR[0] - 1;
  volatile avr32_gpio_port_t *led_gpio_port;
  U8 led_shift;

  // Make sure only existing LEDs are specified.
  leds &= (1 << LED_COUNT) - 1;
8000269c:	f9 dc c0 04 	bfextu	r12,r12,0x0,0x4

  // Update the saved state of all LEDs with the requested changes.
  Clr_bits(LED_State, leds);
800026a0:	49 28       	lddpc	r8,800026e8 <LED_Off+0x4c>
800026a2:	70 09       	ld.w	r9,r8[0x0]
800026a4:	f8 0a 11 ff 	rsub	r10,r12,-1
800026a8:	f5 e9 00 09 	and	r9,r10,r9
800026ac:	91 09       	st.w	r8[0x0],r9

  // While there are specified LEDs left to manage...
  while (leds)
800026ae:	58 0c       	cp.w	r12,0
800026b0:	5e 0c       	reteq	r12
800026b2:	48 f8       	lddpc	r8,800026ec <LED_Off+0x50>
800026b4:	21 08       	sub	r8,16
  {
    // Select the next specified LED and turn it off.
    led_shift = 1 + ctz(leds);
800026b6:	18 9a       	mov	r10,r12
800026b8:	5c 9a       	brev	r10
800026ba:	f4 0a 12 00 	clz	r10,r10
800026be:	2f fa       	sub	r10,-1
    led_descriptor += led_shift;
800026c0:	f4 09 15 04 	lsl	r9,r10,0x4
800026c4:	12 08       	add	r8,r9
    led_gpio_port = &AVR32_GPIO.port[led_descriptor->GPIO.PORT];
800026c6:	70 09       	ld.w	r9,r8[0x0]
800026c8:	a9 69       	lsl	r9,0x8
800026ca:	e0 29 f0 00 	sub	r9,61440
    led_gpio_port->ovrs  = led_descriptor->GPIO.PIN_MASK;
800026ce:	70 1b       	ld.w	r11,r8[0x4]
800026d0:	f3 4b 00 54 	st.w	r9[84],r11
    led_gpio_port->oders = led_descriptor->GPIO.PIN_MASK;
800026d4:	70 1b       	ld.w	r11,r8[0x4]
800026d6:	f3 4b 00 44 	st.w	r9[68],r11
    led_gpio_port->gpers = led_descriptor->GPIO.PIN_MASK;
800026da:	70 1b       	ld.w	r11,r8[0x4]
800026dc:	93 1b       	st.w	r9[0x4],r11
    leds >>= led_shift;
800026de:	f8 0a 0a 4c 	lsr	r12,r12,r10

  // Update the saved state of all LEDs with the requested changes.
  Clr_bits(LED_State, leds);

  // While there are specified LEDs left to manage...
  while (leds)
800026e2:	ce a1       	brne	800026b6 <LED_Off+0x1a>
800026e4:	5e fc       	retal	r12
800026e6:	00 00       	add	r0,r0
800026e8:	00 00       	add	r0,r0
800026ea:	00 08       	add	r8,r0
800026ec:	80 00       	ld.sh	r0,r0[0x0]
800026ee:	b4 20       	st.h	r10[0x4],r0

800026f0 <flashc_set_wait_state>:
}


void flashc_set_wait_state(unsigned int wait_state)
{
	u_avr32_flashc_fcr_t u_avr32_flashc_fcr = {AVR32_FLASHC.fcr};
800026f0:	fe 68 14 00 	mov	r8,-125952
800026f4:	70 09       	ld.w	r9,r8[0x0]
	u_avr32_flashc_fcr.FCR.fws = wait_state;
800026f6:	f3 dc d0 c1 	bfins	r9,r12,0x6,0x1
	AVR32_FLASHC.fcr = u_avr32_flashc_fcr.fcr;
800026fa:	91 09       	st.w	r8[0x0],r9
}
800026fc:	5e fc       	retal	r12
800026fe:	d7 03       	nop

80002700 <flashc_set_bus_freq>:


void flashc_set_bus_freq(unsigned int cpu_f_hz)
{
80002700:	d4 01       	pushm	lr
	if (cpu_f_hz >= AVR32_FLASHC_FWS_0_MAX_FREQ) {
80002702:	e0 68 8a 3f 	mov	r8,35391
80002706:	ea 18 01 f7 	orh	r8,0x1f7
8000270a:	10 3c       	cp.w	r12,r8
8000270c:	e0 88 00 06 	brls	80002718 <flashc_set_bus_freq+0x18>
		// Set 1 WS.
		flashc_set_wait_state(1);
80002710:	30 1c       	mov	r12,1
80002712:	f0 1f 00 04 	mcall	80002720 <flashc_set_bus_freq+0x20>
80002716:	d8 02       	popm	pc
	} else {
		// Set 0 WS.
		flashc_set_wait_state(0);
80002718:	30 0c       	mov	r12,0
8000271a:	f0 1f 00 02 	mcall	80002720 <flashc_set_bus_freq+0x20>
8000271e:	d8 02       	popm	pc
80002720:	80 00       	ld.sh	r0,r0[0x0]
80002722:	26 f0       	sub	r0,111

80002724 <gpio_enable_module_pin>:
 *
 * \return \ref GPIO_SUCCESS or \ref GPIO_INVALID_ARGUMENT.
 */
uint32_t gpio_enable_module_pin(uint32_t pin, uint32_t function)
{
	volatile avr32_gpio_port_t *gpio_port = &AVR32_GPIO.port[pin >> 5];
80002724:	f8 08 16 05 	lsr	r8,r12,0x5
80002728:	a9 68       	lsl	r8,0x8
8000272a:	e0 28 f0 00 	sub	r8,61440

	/* Enable the correct function. */
	switch (function) {
8000272e:	58 1b       	cp.w	r11,1
80002730:	c0 d0       	breq	8000274a <gpio_enable_module_pin+0x26>
80002732:	c0 63       	brcs	8000273e <gpio_enable_module_pin+0x1a>
80002734:	58 2b       	cp.w	r11,2
80002736:	c1 00       	breq	80002756 <gpio_enable_module_pin+0x32>
80002738:	58 3b       	cp.w	r11,3
8000273a:	c1 40       	breq	80002762 <gpio_enable_module_pin+0x3e>
8000273c:	5e ff       	retal	1
	case 0: /* A function. */
		gpio_port->pmr0c = 1 << (pin & 0x1F);
8000273e:	30 19       	mov	r9,1
80002740:	f2 0c 09 49 	lsl	r9,r9,r12
80002744:	91 69       	st.w	r8[0x18],r9
		gpio_port->pmr1c = 1 << (pin & 0x1F);
80002746:	91 a9       	st.w	r8[0x28],r9
#if (AVR32_GPIO_H_VERSION >= 210)
		gpio_port->pmr2c = 1 << (pin & 0x1F);
#endif
		break;
80002748:	c1 28       	rjmp	8000276c <gpio_enable_module_pin+0x48>

	case 1: /* B function. */
		gpio_port->pmr0s = 1 << (pin & 0x1F);
8000274a:	30 19       	mov	r9,1
8000274c:	f2 0c 09 49 	lsl	r9,r9,r12
80002750:	91 59       	st.w	r8[0x14],r9
		gpio_port->pmr1c = 1 << (pin & 0x1F);
80002752:	91 a9       	st.w	r8[0x28],r9
#if (AVR32_GPIO_H_VERSION >= 210)
		gpio_port->pmr2c = 1 << (pin & 0x1F);
#endif
		break;
80002754:	c0 c8       	rjmp	8000276c <gpio_enable_module_pin+0x48>

	case 2: /* C function. */
		gpio_port->pmr0c = 1 << (pin & 0x1F);
80002756:	30 19       	mov	r9,1
80002758:	f2 0c 09 49 	lsl	r9,r9,r12
8000275c:	91 69       	st.w	r8[0x18],r9
		gpio_port->pmr1s = 1 << (pin & 0x1F);
8000275e:	91 99       	st.w	r8[0x24],r9
#if (AVR32_GPIO_H_VERSION >= 210)
		gpio_port->pmr2c = 1 << (pin & 0x1F);
#endif
		break;
80002760:	c0 68       	rjmp	8000276c <gpio_enable_module_pin+0x48>

	case 3: /* D function. */
		gpio_port->pmr0s = 1 << (pin & 0x1F);
80002762:	30 19       	mov	r9,1
80002764:	f2 0c 09 49 	lsl	r9,r9,r12
80002768:	91 59       	st.w	r8[0x14],r9
		gpio_port->pmr1s = 1 << (pin & 0x1F);
8000276a:	91 99       	st.w	r8[0x24],r9
	default:
		return GPIO_INVALID_ARGUMENT;
	}

	/* Disable GPIO control. */
	gpio_port->gperc = 1 << (pin & 0x1F);
8000276c:	30 19       	mov	r9,1
8000276e:	f2 0c 09 4c 	lsl	r12,r9,r12
80002772:	91 2c       	st.w	r8[0x8],r12
80002774:	5e fd       	retal	0
80002776:	d7 03       	nop

80002778 <gpio_enable_module>:
 * \param size The number of pins in \a gpiomap.
 *
 * \return \ref GPIO_SUCCESS or \ref GPIO_INVALID_ARGUMENT.
 */
uint32_t gpio_enable_module(const gpio_map_t gpiomap, uint32_t size)
{
80002778:	d4 21       	pushm	r4-r7,lr
8000277a:	18 97       	mov	r7,r12
8000277c:	16 94       	mov	r4,r11
	uint32_t status = GPIO_SUCCESS;
	uint32_t i;

	for (i = 0; i < size; i++) {
8000277e:	58 0b       	cp.w	r11,0
80002780:	c0 31       	brne	80002786 <gpio_enable_module+0xe>
80002782:	30 05       	mov	r5,0
80002784:	c0 d8       	rjmp	8000279e <gpio_enable_module+0x26>
80002786:	30 06       	mov	r6,0
80002788:	0c 95       	mov	r5,r6
		status |= gpio_enable_module_pin(gpiomap->pin, gpiomap->function);
8000278a:	6e 1b       	ld.w	r11,r7[0x4]
8000278c:	6e 0c       	ld.w	r12,r7[0x0]
8000278e:	f0 1f 00 06 	mcall	800027a4 <gpio_enable_module+0x2c>
80002792:	18 45       	or	r5,r12
		gpiomap++;
80002794:	2f 87       	sub	r7,-8
uint32_t gpio_enable_module(const gpio_map_t gpiomap, uint32_t size)
{
	uint32_t status = GPIO_SUCCESS;
	uint32_t i;

	for (i = 0; i < size; i++) {
80002796:	2f f6       	sub	r6,-1
80002798:	0c 34       	cp.w	r4,r6
8000279a:	fe 9b ff f8 	brhi	8000278a <gpio_enable_module+0x12>
		status |= gpio_enable_module_pin(gpiomap->pin, gpiomap->function);
		gpiomap++;
	}

	return status;
}
8000279e:	0a 9c       	mov	r12,r5
800027a0:	d8 22       	popm	r4-r7,pc
800027a2:	00 00       	add	r0,r0
800027a4:	80 00       	ld.sh	r0,r0[0x0]
800027a6:	27 24       	sub	r4,114

800027a8 <gpio_configure_pin>:
 * \param pin The pin number.
 * \param flags The configuration.
 */
void gpio_configure_pin(uint32_t pin, uint32_t flags)
{
	volatile avr32_gpio_port_t *gpio_port = &AVR32_GPIO.port[pin >> 5];
800027a8:	f8 08 16 05 	lsr	r8,r12,0x5
800027ac:	a9 68       	lsl	r8,0x8
800027ae:	e0 28 f0 00 	sub	r8,61440
	} else {
		gpio_port->pderc = 1 << (pin & 0x1F);
	}

#endif
	if (flags & GPIO_PULL_UP) {
800027b2:	16 99       	mov	r9,r11
800027b4:	e2 19 00 04 	andl	r9,0x4,COH
800027b8:	c0 70       	breq	800027c6 <gpio_configure_pin+0x1e>
		gpio_port->puers = 1 << (pin & 0x1F);
800027ba:	30 19       	mov	r9,1
800027bc:	f2 0c 09 49 	lsl	r9,r9,r12
800027c0:	f1 49 00 74 	st.w	r8[116],r9
800027c4:	c0 68       	rjmp	800027d0 <gpio_configure_pin+0x28>
	} else {
		gpio_port->puerc = 1 << (pin & 0x1F);
800027c6:	30 19       	mov	r9,1
800027c8:	f2 0c 09 49 	lsl	r9,r9,r12
800027cc:	f1 49 00 78 	st.w	r8[120],r9
	}

#endif

	/* Select interrupt level for group */
	if (flags & GPIO_INTERRUPT) {
800027d0:	16 99       	mov	r9,r11
800027d2:	e2 19 00 80 	andl	r9,0x80,COH
800027d6:	c2 40       	breq	8000281e <gpio_configure_pin+0x76>
		if (flags & GPIO_BOTHEDGES) {
800027d8:	16 99       	mov	r9,r11
800027da:	e2 19 01 80 	andl	r9,0x180,COH
800027de:	c0 90       	breq	800027f0 <gpio_configure_pin+0x48>
			gpio_port->imr0c = 1 << (pin & 0x1F);
800027e0:	30 19       	mov	r9,1
800027e2:	f2 0c 09 49 	lsl	r9,r9,r12
800027e6:	f1 49 00 a8 	st.w	r8[168],r9
			gpio_port->imr1c = 1 << (pin & 0x1F);
800027ea:	f1 49 00 b8 	st.w	r8[184],r9
800027ee:	c1 88       	rjmp	8000281e <gpio_configure_pin+0x76>
		} else if (flags & GPIO_RISING) {
800027f0:	16 99       	mov	r9,r11
800027f2:	e2 19 02 80 	andl	r9,0x280,COH
800027f6:	c0 90       	breq	80002808 <gpio_configure_pin+0x60>
			gpio_port->imr0s = 1 << (pin & 0x1F);
800027f8:	30 19       	mov	r9,1
800027fa:	f2 0c 09 49 	lsl	r9,r9,r12
800027fe:	f1 49 00 a4 	st.w	r8[164],r9
			gpio_port->imr1c = 1 << (pin & 0x1F);
80002802:	f1 49 00 b8 	st.w	r8[184],r9
80002806:	c0 c8       	rjmp	8000281e <gpio_configure_pin+0x76>
		} else if (flags & GPIO_FALLING) {
80002808:	16 99       	mov	r9,r11
8000280a:	e2 19 03 80 	andl	r9,0x380,COH
8000280e:	c0 80       	breq	8000281e <gpio_configure_pin+0x76>
			gpio_port->imr0c = 1 << (pin & 0x1F);
80002810:	30 19       	mov	r9,1
80002812:	f2 0c 09 49 	lsl	r9,r9,r12
80002816:	f1 49 00 a8 	st.w	r8[168],r9
			gpio_port->imr1s = 1 << (pin & 0x1F);
8000281a:	f1 49 00 b4 	st.w	r8[180],r9
		}
	}

	/* Select direction and initial pin state */
	if (flags & GPIO_DIR_OUTPUT) {
8000281e:	f3 db c0 01 	bfextu	r9,r11,0x0,0x1
80002822:	c1 50       	breq	8000284c <gpio_configure_pin+0xa4>
		if (flags & GPIO_INIT_HIGH) {
80002824:	e2 1b 00 02 	andl	r11,0x2,COH
80002828:	c0 70       	breq	80002836 <gpio_configure_pin+0x8e>
			gpio_port->ovrs = 1 << (pin & 0x1F);
8000282a:	30 19       	mov	r9,1
8000282c:	f2 0c 09 49 	lsl	r9,r9,r12
80002830:	f1 49 00 54 	st.w	r8[84],r9
80002834:	c0 68       	rjmp	80002840 <gpio_configure_pin+0x98>
		} else {
			gpio_port->ovrc = 1 << (pin & 0x1F);
80002836:	30 19       	mov	r9,1
80002838:	f2 0c 09 49 	lsl	r9,r9,r12
8000283c:	f1 49 00 58 	st.w	r8[88],r9
		}

		gpio_port->oders = 1 << (pin & 0x1F);
80002840:	30 19       	mov	r9,1
80002842:	f2 0c 09 49 	lsl	r9,r9,r12
80002846:	f1 49 00 44 	st.w	r8[68],r9
8000284a:	c0 68       	rjmp	80002856 <gpio_configure_pin+0xae>
	} else {
		gpio_port->oderc = 1 << (pin & 0x1F);
8000284c:	30 19       	mov	r9,1
8000284e:	f2 0c 09 49 	lsl	r9,r9,r12
80002852:	f1 49 00 48 	st.w	r8[72],r9
	}

	/* Enable GPIO */
	gpio_port->gpers = 1 << (pin & 0x1F);
80002856:	30 19       	mov	r9,1
80002858:	f2 0c 09 4c 	lsl	r12,r9,r12
8000285c:	91 1c       	st.w	r8[0x4],r12
}
8000285e:	5e fc       	retal	r12

80002860 <_unhandled_interrupt>:
__attribute__((__interrupt__))
#elif (defined __ICCAVR32__)
__interrupt
#endif
static void _unhandled_interrupt(void)
{
80002860:	c0 08       	rjmp	80002860 <_unhandled_interrupt>
80002862:	d7 03       	nop

80002864 <INTC_register_interrupt>:
 */
void INTC_register_interrupt(__int_handler handler, uint32_t irq,
	uint32_t int_level)
{
	// Determine the group of the IRQ.
	uint32_t int_grp = irq / AVR32_INTC_MAX_NUM_IRQS_PER_GRP;
80002864:	f6 08 16 05 	lsr	r8,r11,0x5

	/* Store in _int_line_handler_table_x the pointer to the interrupt
	handler, so that _get_interrupt_handler can retrieve it when the
	interrupt is vectored. */
	_int_handler_table[int_grp]
		._int_line_handler_table[irq % AVR32_INTC_MAX_NUM_IRQS_PER_GRP]
80002868:	49 99       	lddpc	r9,800028cc <INTC_register_interrupt+0x68>
8000286a:	f2 08 00 39 	add	r9,r9,r8<<0x3
8000286e:	f7 db c0 05 	bfextu	r11,r11,0x0,0x5
80002872:	72 19       	ld.w	r9,r9[0x4]
	uint32_t int_grp = irq / AVR32_INTC_MAX_NUM_IRQS_PER_GRP;

	/* Store in _int_line_handler_table_x the pointer to the interrupt
	handler, so that _get_interrupt_handler can retrieve it when the
	interrupt is vectored. */
	_int_handler_table[int_grp]
80002874:	f2 0b 09 2c 	st.w	r9[r11<<0x2],r12
	/* Program the corresponding IPRX register to set the interrupt priority
	level and the interrupt vector offset that will be fetched by the core
	interrupt system.
	NOTE: The _intx functions are intermediate assembly functions between
	the core interrupt system and the user interrupt handler. */
	if (int_level == AVR32_INTC_INT0) {
80002878:	58 0a       	cp.w	r10,0
8000287a:	c0 91       	brne	8000288c <INTC_register_interrupt+0x28>
		AVR32_INTC.ipr[int_grp] = IPR_INT0;
8000287c:	49 59       	lddpc	r9,800028d0 <INTC_register_interrupt+0x6c>
8000287e:	49 6a       	lddpc	r10,800028d4 <INTC_register_interrupt+0x70>
80002880:	12 1a       	sub	r10,r9
80002882:	fe 79 08 00 	mov	r9,-63488
80002886:	f2 08 09 2a 	st.w	r9[r8<<0x2],r10
8000288a:	5e fc       	retal	r12
	} else if (int_level == AVR32_INTC_INT1) {
8000288c:	58 1a       	cp.w	r10,1
8000288e:	c0 a1       	brne	800028a2 <INTC_register_interrupt+0x3e>
		AVR32_INTC.ipr[int_grp] = IPR_INT1;
80002890:	49 09       	lddpc	r9,800028d0 <INTC_register_interrupt+0x6c>
80002892:	49 2a       	lddpc	r10,800028d8 <INTC_register_interrupt+0x74>
80002894:	12 1a       	sub	r10,r9
80002896:	bf aa       	sbr	r10,0x1e
80002898:	fe 79 08 00 	mov	r9,-63488
8000289c:	f2 08 09 2a 	st.w	r9[r8<<0x2],r10
800028a0:	5e fc       	retal	r12
	} else if (int_level == AVR32_INTC_INT2) {
800028a2:	58 2a       	cp.w	r10,2
800028a4:	c0 a1       	brne	800028b8 <INTC_register_interrupt+0x54>
		AVR32_INTC.ipr[int_grp] = IPR_INT2;
800028a6:	48 b9       	lddpc	r9,800028d0 <INTC_register_interrupt+0x6c>
800028a8:	48 da       	lddpc	r10,800028dc <INTC_register_interrupt+0x78>
800028aa:	12 1a       	sub	r10,r9
800028ac:	bf ba       	sbr	r10,0x1f
800028ae:	fe 79 08 00 	mov	r9,-63488
800028b2:	f2 08 09 2a 	st.w	r9[r8<<0x2],r10
800028b6:	5e fc       	retal	r12
	} else {
		AVR32_INTC.ipr[int_grp] = IPR_INT3;
800028b8:	48 69       	lddpc	r9,800028d0 <INTC_register_interrupt+0x6c>
800028ba:	48 aa       	lddpc	r10,800028e0 <INTC_register_interrupt+0x7c>
800028bc:	12 1a       	sub	r10,r9
800028be:	ea 1a c0 00 	orh	r10,0xc000
800028c2:	fe 79 08 00 	mov	r9,-63488
800028c6:	f2 08 09 2a 	st.w	r9[r8<<0x2],r10
800028ca:	5e fc       	retal	r12
800028cc:	80 00       	ld.sh	r0,r0[0x0]
800028ce:	b4 60       	st.h	r10[0xc],r0
800028d0:	80 00       	ld.sh	r0,r0[0x0]
800028d2:	b2 00       	st.h	r9[0x0],r0
800028d4:	80 00       	ld.sh	r0,r0[0x0]
800028d6:	b3 04       	ld.d	r4,r9
800028d8:	80 00       	ld.sh	r0,r0[0x0]
800028da:	b3 12       	ld.d	r2,--r9
800028dc:	80 00       	ld.sh	r0,r0[0x0]
800028de:	b3 20       	st.d	r9++,r0
800028e0:	80 00       	ld.sh	r0,r0[0x0]
800028e2:	b3 2e       	st.d	r9++,lr

800028e4 <INTC_init_interrupts>:
/**
 * \brief Initializes the hardware interrupt controller driver.
 *
 */
void INTC_init_interrupts(void)
{
800028e4:	d4 21       	pushm	r4-r7,lr
 * \brief Init EVBA address. This operation may or may not have been done by the
 * C startup process.
 */
static __inline__ void INTC_init_evba(void)
{
  Set_system_register(AVR32_EVBA, (int32_t)&_evba );
800028e6:	49 18       	lddpc	r8,80002928 <INTC_init_interrupts+0x44>
800028e8:	e3 b8 00 01 	mtsr	0x4,r8
800028ec:	49 0e       	lddpc	lr,8000292c <INTC_init_interrupts+0x48>
800028ee:	30 07       	mov	r7,0
800028f0:	0e 94       	mov	r4,r7
			int_req < _int_handler_table[int_grp].num_irqs;
			int_req++)
		{
			/* Assign _unhandled_interrupt as the default interrupt
			handler. */
			_int_handler_table[int_grp]
800028f2:	49 0c       	lddpc	r12,80002930 <INTC_init_interrupts+0x4c>

		/* Set the interrupt group priority register to its default
		value.
		By default, all interrupt groups are linked to the interrupt
		priority level 0 and to the interrupt vector _int0. */
		AVR32_INTC.ipr[int_grp] = IPR_INT0;
800028f4:	49 05       	lddpc	r5,80002934 <INTC_init_interrupts+0x50>
800028f6:	10 15       	sub	r5,r8
800028f8:	fe 76 08 00 	mov	r6,-63488
800028fc:	c1 08       	rjmp	8000291c <INTC_init_interrupts+0x38>
 * \brief Init EVBA address. This operation may or may not have been done by the
 * C startup process.
 */
static __inline__ void INTC_init_evba(void)
{
  Set_system_register(AVR32_EVBA, (int32_t)&_evba );
800028fe:	08 98       	mov	r8,r4
			int_req++)
		{
			/* Assign _unhandled_interrupt as the default interrupt
			handler. */
			_int_handler_table[int_grp]
				._int_line_handler_table[int_req]
80002900:	7c 1b       	ld.w	r11,lr[0x4]

	// For all interrupt groups,
	for (int_grp = 0; int_grp < AVR32_INTC_NUM_INT_GRPS; int_grp++)
	{
		// For all interrupt request lines of each group,
		for (int_req = 0;
80002902:	7c 0a       	ld.w	r10,lr[0x0]
			int_req < _int_handler_table[int_grp].num_irqs;
			int_req++)
		{
			/* Assign _unhandled_interrupt as the default interrupt
			handler. */
			_int_handler_table[int_grp]
80002904:	f6 08 09 2c 	st.w	r11[r8<<0x2],r12
	for (int_grp = 0; int_grp < AVR32_INTC_NUM_INT_GRPS; int_grp++)
	{
		// For all interrupt request lines of each group,
		for (int_req = 0;
			int_req < _int_handler_table[int_grp].num_irqs;
			int_req++)
80002908:	2f f8       	sub	r8,-1

	// For all interrupt groups,
	for (int_grp = 0; int_grp < AVR32_INTC_NUM_INT_GRPS; int_grp++)
	{
		// For all interrupt request lines of each group,
		for (int_req = 0;
8000290a:	10 3a       	cp.w	r10,r8
8000290c:	fe 9b ff fc 	brhi	80002904 <INTC_init_interrupts+0x20>

		/* Set the interrupt group priority register to its default
		value.
		By default, all interrupt groups are linked to the interrupt
		priority level 0 and to the interrupt vector _int0. */
		AVR32_INTC.ipr[int_grp] = IPR_INT0;
80002910:	ec 07 09 25 	st.w	r6[r7<<0x2],r5
	uint32_t int_grp, int_req;

	INTC_init_evba();

	// For all interrupt groups,
	for (int_grp = 0; int_grp < AVR32_INTC_NUM_INT_GRPS; int_grp++)
80002914:	2f f7       	sub	r7,-1
80002916:	2f 8e       	sub	lr,-8
80002918:	59 27       	cp.w	r7,18
8000291a:	c0 50       	breq	80002924 <INTC_init_interrupts+0x40>
	{
		// For all interrupt request lines of each group,
		for (int_req = 0;
8000291c:	7c 08       	ld.w	r8,lr[0x0]
8000291e:	58 08       	cp.w	r8,0
80002920:	ce f1       	brne	800028fe <INTC_init_interrupts+0x1a>
80002922:	cf 7b       	rjmp	80002910 <INTC_init_interrupts+0x2c>
80002924:	d8 22       	popm	r4-r7,pc
80002926:	00 00       	add	r0,r0
80002928:	80 00       	ld.sh	r0,r0[0x0]
8000292a:	b2 00       	st.h	r9[0x0],r0
8000292c:	80 00       	ld.sh	r0,r0[0x0]
8000292e:	b4 60       	st.h	r10[0xc],r0
80002930:	80 00       	ld.sh	r0,r0[0x0]
80002932:	28 60       	sub	r0,-122
80002934:	80 00       	ld.sh	r0,r0[0x0]
80002936:	b3 04       	ld.d	r4,r9

80002938 <_get_interrupt_handler>:
__int_handler _get_interrupt_handler(uint32_t int_level)
{
	/* ICR3 is mapped first, ICR0 last.
	Code in exception.S puts int_level in R12 which is used by the compiler
	to pass a single argument to a function. */
	uint32_t int_grp = AVR32_INTC.icr[AVR32_INTC_INT3 - int_level];
80002938:	fe 78 08 00 	mov	r8,-63488
8000293c:	e0 69 00 83 	mov	r9,131
80002940:	f2 0c 01 0c 	sub	r12,r9,r12
80002944:	f0 0c 03 29 	ld.w	r9,r8[r12<<0x2]
	uint32_t int_req = AVR32_INTC.irr[int_grp];
80002948:	f2 ca ff c0 	sub	r10,r9,-64
8000294c:	f0 0a 03 28 	ld.w	r8,r8[r10<<0x2]
	exception.S will provide the interrupt handler with a clean interrupt
	stack frame, with nothing more pushed onto the stack. The interrupt
	handler must manage the `rete' instruction, which can be done using
	pure assembly, inline assembly or the `__attribute__((__interrupt__))'
	C function attribute.*/
	return (int_req)
80002950:	58 08       	cp.w	r8,0
80002952:	c0 21       	brne	80002956 <_get_interrupt_handler+0x1e>
80002954:	5e fd       	retal	0
		? _int_handler_table[int_grp]._int_line_handler_table[32
80002956:	f0 08 12 00 	clz	r8,r8
8000295a:	48 5a       	lddpc	r10,8000296c <_get_interrupt_handler+0x34>
8000295c:	f4 09 00 39 	add	r9,r10,r9<<0x3
80002960:	f0 08 11 1f 	rsub	r8,r8,31
80002964:	72 19       	ld.w	r9,r9[0x4]
	exception.S will provide the interrupt handler with a clean interrupt
	stack frame, with nothing more pushed onto the stack. The interrupt
	handler must manage the `rete' instruction, which can be done using
	pure assembly, inline assembly or the `__attribute__((__interrupt__))'
	C function attribute.*/
	return (int_req)
80002966:	f2 08 03 2c 	ld.w	r12,r9[r8<<0x2]
		? _int_handler_table[int_grp]._int_line_handler_table[32
			- clz(int_req) - 1]
		: NULL;
}
8000296a:	5e fc       	retal	r12
8000296c:	80 00       	ld.sh	r0,r0[0x0]
8000296e:	b4 60       	st.h	r10[0xc],r0

80002970 <usart_set_async_baudrate>:
 *
 * \retval USART_SUCCESS        Baud rate successfully initialized.
 * \retval USART_INVALID_INPUT  Baud rate set point is out of range for the given input clock frequency.
 */
static int usart_set_async_baudrate(volatile avr32_usart_t *usart, unsigned int baudrate, unsigned long pba_hz)
{
80002970:	d4 01       	pushm	lr
  unsigned int over = (pba_hz >= 16 * baudrate) ? 16 : 8;
80002972:	f6 08 15 04 	lsl	r8,r11,0x4
80002976:	14 38       	cp.w	r8,r10
80002978:	f9 b8 08 10 	movls	r8,16
8000297c:	f9 b8 0b 08 	movhi	r8,8
  unsigned int cd_fp = ((1 << AVR32_USART_BRGR_FP_SIZE) * pba_hz + (over * baudrate) / 2) / (over * baudrate);
80002980:	f0 0b 02 4b 	mul	r11,r8,r11
80002984:	f6 09 16 01 	lsr	r9,r11,0x1
80002988:	f2 0a 00 3a 	add	r10,r9,r10<<0x3
8000298c:	f4 0b 0d 0a 	divu	r10,r10,r11
  unsigned int cd = cd_fp >> AVR32_USART_BRGR_FP_SIZE;
80002990:	f4 09 16 03 	lsr	r9,r10,0x3
  unsigned int fp = cd_fp & ((1 << AVR32_USART_BRGR_FP_SIZE) - 1);

  if (cd < 1 || cd > (1 << AVR32_USART_BRGR_CD_SIZE) - 1)
80002994:	f2 cb 00 01 	sub	r11,r9,1
80002998:	e0 4b ff fe 	cp.w	r11,65534
8000299c:	e0 88 00 03 	brls	800029a2 <usart_set_async_baudrate+0x32>
800029a0:	da 0a       	popm	pc,r12=1
    return USART_INVALID_INPUT;

  usart->mr = (usart->mr & ~(AVR32_USART_MR_USCLKS_MASK |
                             AVR32_USART_MR_SYNC_MASK |
                             AVR32_USART_MR_OVER_MASK)) |
              AVR32_USART_MR_USCLKS_MCK << AVR32_USART_MR_USCLKS_OFFSET |
800029a2:	78 1b       	ld.w	r11,r12[0x4]
  unsigned int fp = cd_fp & ((1 << AVR32_USART_BRGR_FP_SIZE) - 1);

  if (cd < 1 || cd > (1 << AVR32_USART_BRGR_CD_SIZE) - 1)
    return USART_INVALID_INPUT;

  usart->mr = (usart->mr & ~(AVR32_USART_MR_USCLKS_MASK |
800029a4:	e8 6e 00 00 	mov	lr,524288
800029a8:	59 08       	cp.w	r8,16
800029aa:	fc 08 17 10 	movne	r8,lr
800029ae:	f9 b8 00 00 	moveq	r8,0
800029b2:	e4 1b ff f7 	andh	r11,0xfff7
800029b6:	e0 1b fe cf 	andl	r11,0xfecf
800029ba:	16 48       	or	r8,r11
800029bc:	99 18       	st.w	r12[0x4],r8
                             AVR32_USART_MR_SYNC_MASK |
                             AVR32_USART_MR_OVER_MASK)) |
              AVR32_USART_MR_USCLKS_MCK << AVR32_USART_MR_USCLKS_OFFSET |
              ((over == 16) ? AVR32_USART_MR_OVER_X16 : AVR32_USART_MR_OVER_X8) << AVR32_USART_MR_OVER_OFFSET;

  usart->brgr = cd << AVR32_USART_BRGR_CD_OFFSET |
800029be:	f5 da c0 03 	bfextu	r10,r10,0x0,0x3
800029c2:	f3 ea 11 09 	or	r9,r9,r10<<0x10
800029c6:	99 89       	st.w	r12[0x20],r9
800029c8:	d8 0a       	popm	pc,r12=0

800029ca <usart_write_char>:
 *
 * \return \c 1 if the USART Transmit Holding Register is free, otherwise \c 0.
 */
__always_inline static int usart_tx_ready(volatile avr32_usart_t *usart)
{
  return (usart->csr & AVR32_USART_CSR_TXRDY_MASK) != 0;
800029ca:	78 58       	ld.w	r8,r12[0x14]
}


int usart_write_char(volatile avr32_usart_t *usart, int c)
{
  if (usart_tx_ready(usart))
800029cc:	e2 18 00 02 	andl	r8,0x2,COH
800029d0:	c0 31       	brne	800029d6 <usart_write_char+0xc>
800029d2:	30 2c       	mov	r12,2
800029d4:	5e fc       	retal	r12
  {
    usart->thr = (c << AVR32_USART_THR_TXCHR_OFFSET) & AVR32_USART_THR_TXCHR_MASK;
800029d6:	f7 db c0 09 	bfextu	r11,r11,0x0,0x9
800029da:	99 7b       	st.w	r12[0x1c],r11
800029dc:	5e fd       	retal	0
800029de:	d7 03       	nop

800029e0 <usart_putchar>:
    return USART_TX_BUSY;
}


int usart_putchar(volatile avr32_usart_t *usart, int c)
{
800029e0:	eb cd 40 e0 	pushm	r5-r7,lr
800029e4:	18 96       	mov	r6,r12
800029e6:	16 95       	mov	r5,r11
800029e8:	e0 67 27 0f 	mov	r7,9999
800029ec:	c0 68       	rjmp	800029f8 <usart_putchar+0x18>
  int timeout = USART_DEFAULT_TIMEOUT;

  do
  {
    if (!timeout--) return USART_FAILURE;
800029ee:	58 07       	cp.w	r7,0
800029f0:	c0 31       	brne	800029f6 <usart_putchar+0x16>
800029f2:	e3 cf c0 e0 	ldm	sp++,r5-r7,pc,r12=-1
800029f6:	20 17       	sub	r7,1
  } while (usart_write_char(usart, c) != USART_SUCCESS);
800029f8:	0a 9b       	mov	r11,r5
800029fa:	0c 9c       	mov	r12,r6
800029fc:	f0 1f 00 03 	mcall	80002a08 <usart_putchar+0x28>
80002a00:	cf 71       	brne	800029ee <usart_putchar+0xe>

  return USART_SUCCESS;
}
80002a02:	e3 cd 80 e0 	ldm	sp++,r5-r7,pc
80002a06:	00 00       	add	r0,r0
80002a08:	80 00       	ld.sh	r0,r0[0x0]
80002a0a:	29 ca       	sub	r10,-100

80002a0c <usart_read_char>:

int usart_read_char(volatile avr32_usart_t *usart, int *c)
{
  // Check for errors: frame, parity and overrun. In RS485 mode, a parity error
  // would mean that an address char has been received.
  if (usart->csr & (AVR32_USART_CSR_OVRE_MASK |
80002a0c:	78 58       	ld.w	r8,r12[0x14]
80002a0e:	e2 18 00 e0 	andl	r8,0xe0,COH
80002a12:	c0 30       	breq	80002a18 <usart_read_char+0xc>
80002a14:	30 4c       	mov	r12,4
80002a16:	5e fc       	retal	r12
 *
 * \return \c 1 if the USART Receive Holding Register is full, otherwise \c 0.
 */
__always_inline static int usart_test_hit(volatile avr32_usart_t *usart)
{
  return (usart->csr & AVR32_USART_CSR_RXRDY_MASK) != 0;
80002a18:	78 58       	ld.w	r8,r12[0x14]
                    AVR32_USART_CSR_FRAME_MASK |
                    AVR32_USART_CSR_PARE_MASK))
    return USART_RX_ERROR;

  // No error; if we really did receive a char, read it and return SUCCESS.
  if (usart_test_hit(usart))
80002a1a:	f1 d8 c0 01 	bfextu	r8,r8,0x0,0x1
80002a1e:	c0 31       	brne	80002a24 <usart_read_char+0x18>
80002a20:	30 3c       	mov	r12,3
80002a22:	5e fc       	retal	r12
  {
    *c = (usart->rhr & AVR32_USART_RHR_RXCHR_MASK) >> AVR32_USART_RHR_RXCHR_OFFSET;
80002a24:	78 68       	ld.w	r8,r12[0x18]
80002a26:	f1 d8 c0 09 	bfextu	r8,r8,0x0,0x9
80002a2a:	97 08       	st.w	r11[0x0],r8
80002a2c:	5e fd       	retal	0
80002a2e:	d7 03       	nop

80002a30 <usart_write_line>:
  return c;
}


void usart_write_line(volatile avr32_usart_t *usart, const char *string)
{
80002a30:	eb cd 40 c0 	pushm	r6-r7,lr
80002a34:	18 96       	mov	r6,r12
80002a36:	16 97       	mov	r7,r11
  while (*string != '\0')
80002a38:	17 8b       	ld.ub	r11,r11[0x0]
80002a3a:	58 0b       	cp.w	r11,0
80002a3c:	c0 80       	breq	80002a4c <usart_write_line+0x1c>
    usart_putchar(usart, *string++);
80002a3e:	2f f7       	sub	r7,-1
80002a40:	0c 9c       	mov	r12,r6
80002a42:	f0 1f 00 04 	mcall	80002a50 <usart_write_line+0x20>
}


void usart_write_line(volatile avr32_usart_t *usart, const char *string)
{
  while (*string != '\0')
80002a46:	0f 8b       	ld.ub	r11,r7[0x0]
80002a48:	58 0b       	cp.w	r11,0
80002a4a:	cf a1       	brne	80002a3e <usart_write_line+0xe>
80002a4c:	e3 cd 80 c0 	ldm	sp++,r6-r7,pc
80002a50:	80 00       	ld.sh	r0,r0[0x0]
80002a52:	29 e0       	sub	r0,-98

80002a54 <usart_reset>:
//! @{


void usart_reset(volatile avr32_usart_t *usart)
{
  bool global_interrupt_enabled = cpu_irq_is_enabled();
80002a54:	e1 b8 00 00 	mfsr	r8,0x0

  // Disable all USART interrupts.
  // Interrupts needed should be set explicitly on every reset.
  if (global_interrupt_enabled) cpu_irq_disable();
80002a58:	e6 18 00 01 	andh	r8,0x1,COH
80002a5c:	c0 71       	brne	80002a6a <usart_reset+0x16>
80002a5e:	d3 03       	ssrf	0x10
  usart->idr = 0xFFFFFFFF;
80002a60:	3f f8       	mov	r8,-1
80002a62:	99 38       	st.w	r12[0xc],r8
  usart->csr;
80002a64:	78 58       	ld.w	r8,r12[0x14]
  if (global_interrupt_enabled) cpu_irq_enable();
80002a66:	d5 03       	csrf	0x10
80002a68:	c0 48       	rjmp	80002a70 <usart_reset+0x1c>
  bool global_interrupt_enabled = cpu_irq_is_enabled();

  // Disable all USART interrupts.
  // Interrupts needed should be set explicitly on every reset.
  if (global_interrupt_enabled) cpu_irq_disable();
  usart->idr = 0xFFFFFFFF;
80002a6a:	3f f8       	mov	r8,-1
80002a6c:	99 38       	st.w	r12[0xc],r8
  usart->csr;
80002a6e:	78 58       	ld.w	r8,r12[0x14]
  if (global_interrupt_enabled) cpu_irq_enable();

  // Reset mode and other registers that could cause unpredictable behavior after reset.
  usart->mr = 0;
80002a70:	30 08       	mov	r8,0
80002a72:	99 18       	st.w	r12[0x4],r8
  usart->rtor = 0;
80002a74:	99 98       	st.w	r12[0x24],r8
  usart->ttgr = 0;
80002a76:	99 a8       	st.w	r12[0x28],r8

  // Shutdown TX and RX (will be re-enabled when setup has successfully completed),
  // reset status bits and turn off DTR and RTS.
  usart->cr = AVR32_USART_CR_RSTRX_MASK   |
80002a78:	ea 68 61 0c 	mov	r8,680204
80002a7c:	99 08       	st.w	r12[0x0],r8
#ifndef AVR32_USART_440_H_INCLUDED
// Note: Modem Signal Management DTR-DSR-DCD-RI are not included in USART rev.440.
              AVR32_USART_CR_DTRDIS_MASK  |
#endif
              AVR32_USART_CR_RTSDIS_MASK;
}
80002a7e:	5e fc       	retal	r12

80002a80 <usart_init_rs232>:


int usart_init_rs232(volatile avr32_usart_t *usart, const usart_options_t *opt, long pba_hz)
{
80002a80:	eb cd 40 e0 	pushm	r5-r7,lr
80002a84:	18 96       	mov	r6,r12
80002a86:	16 97       	mov	r7,r11
80002a88:	14 95       	mov	r5,r10
  // Reset the USART and shutdown TX and RX.
  usart_reset(usart);
80002a8a:	f0 1f 00 2f 	mcall	80002b44 <usart_init_rs232+0xc4>

  // Check input values.
  if (!opt || // Null pointer.
80002a8e:	58 07       	cp.w	r7,0
80002a90:	c5 80       	breq	80002b40 <usart_init_rs232+0xc0>
      opt->charlength < 5 || opt->charlength > 9 ||
80002a92:	0f c8       	ld.ub	r8,r7[0x4]
{
  // Reset the USART and shutdown TX and RX.
  usart_reset(usart);

  // Check input values.
  if (!opt || // Null pointer.
80002a94:	30 49       	mov	r9,4
80002a96:	f2 08 18 00 	cp.b	r8,r9
80002a9a:	e0 88 00 53 	brls	80002b40 <usart_init_rs232+0xc0>
80002a9e:	30 99       	mov	r9,9
80002aa0:	f2 08 18 00 	cp.b	r8,r9
80002aa4:	e0 8b 00 4e 	brhi	80002b40 <usart_init_rs232+0xc0>
      opt->charlength < 5 || opt->charlength > 9 ||
      opt->paritytype > 7 ||
80002aa8:	0f d9       	ld.ub	r9,r7[0x5]
80002aaa:	30 78       	mov	r8,7
80002aac:	f0 09 18 00 	cp.b	r9,r8
80002ab0:	e0 8b 00 48 	brhi	80002b40 <usart_init_rs232+0xc0>
      opt->stopbits > 2 + 255 ||
80002ab4:	8e 39       	ld.sh	r9,r7[0x6]
80002ab6:	e0 68 01 01 	mov	r8,257
80002aba:	f0 09 19 00 	cp.h	r9,r8
80002abe:	e0 8b 00 41 	brhi	80002b40 <usart_init_rs232+0xc0>
      opt->channelmode > 3 ||
80002ac2:	ef 39 00 08 	ld.ub	r9,r7[8]
80002ac6:	30 38       	mov	r8,3
80002ac8:	f0 09 18 00 	cp.b	r9,r8
80002acc:	e0 8b 00 3a 	brhi	80002b40 <usart_init_rs232+0xc0>
      usart_set_async_baudrate(usart, opt->baudrate, pba_hz) == USART_INVALID_INPUT)
80002ad0:	0a 9a       	mov	r10,r5
80002ad2:	6e 0b       	ld.w	r11,r7[0x0]
80002ad4:	0c 9c       	mov	r12,r6
80002ad6:	f0 1f 00 1d 	mcall	80002b48 <usart_init_rs232+0xc8>
{
  // Reset the USART and shutdown TX and RX.
  usart_reset(usart);

  // Check input values.
  if (!opt || // Null pointer.
80002ada:	58 1c       	cp.w	r12,1
80002adc:	c3 20       	breq	80002b40 <usart_init_rs232+0xc0>
      opt->stopbits > 2 + 255 ||
      opt->channelmode > 3 ||
      usart_set_async_baudrate(usart, opt->baudrate, pba_hz) == USART_INVALID_INPUT)
    return USART_INVALID_INPUT;

  if (opt->charlength == 9)
80002ade:	0f c8       	ld.ub	r8,r7[0x4]
80002ae0:	30 99       	mov	r9,9
80002ae2:	f2 08 18 00 	cp.b	r8,r9
80002ae6:	c0 51       	brne	80002af0 <usart_init_rs232+0x70>
  {
    // Character length set to 9 bits. MODE9 dominates CHRL.
    usart->mr |= AVR32_USART_MR_MODE9_MASK;
80002ae8:	6c 18       	ld.w	r8,r6[0x4]
80002aea:	b1 b8       	sbr	r8,0x11
80002aec:	8d 18       	st.w	r6[0x4],r8
80002aee:	c0 68       	rjmp	80002afa <usart_init_rs232+0x7a>
  }
  else
  {
    // CHRL gives the character length (- 5) when MODE9 = 0.
    usart->mr |= (opt->charlength - 5) << AVR32_USART_MR_CHRL_OFFSET;
80002af0:	6c 19       	ld.w	r9,r6[0x4]
80002af2:	20 58       	sub	r8,5
80002af4:	f3 e8 10 68 	or	r8,r9,r8<<0x6
80002af8:	8d 18       	st.w	r6[0x4],r8
  }

  usart->mr |= opt->paritytype << AVR32_USART_MR_PAR_OFFSET |
80002afa:	6c 19       	ld.w	r9,r6[0x4]
80002afc:	ef 3a 00 08 	ld.ub	r10,r7[8]
80002b00:	0f d8       	ld.ub	r8,r7[0x5]
80002b02:	a9 78       	lsl	r8,0x9
80002b04:	f1 ea 10 e8 	or	r8,r8,r10<<0xe
80002b08:	12 48       	or	r8,r9
80002b0a:	8d 18       	st.w	r6[0x4],r8
               opt->channelmode << AVR32_USART_MR_CHMODE_OFFSET;

  if (opt->stopbits > USART_2_STOPBITS)
80002b0c:	8e 38       	ld.sh	r8,r7[0x6]
80002b0e:	30 29       	mov	r9,2
80002b10:	f2 08 19 00 	cp.h	r8,r9
80002b14:	e0 88 00 09 	brls	80002b26 <usart_init_rs232+0xa6>
  {
    // Set two stop bits
    usart->mr |= AVR32_USART_MR_NBSTOP_2 << AVR32_USART_MR_NBSTOP_OFFSET;
80002b18:	6c 18       	ld.w	r8,r6[0x4]
80002b1a:	ad b8       	sbr	r8,0xd
80002b1c:	8d 18       	st.w	r6[0x4],r8
    // and a timeguard period gives the rest.
    usart->ttgr = opt->stopbits - USART_2_STOPBITS;
80002b1e:	8e b8       	ld.uh	r8,r7[0x6]
80002b20:	20 28       	sub	r8,2
80002b22:	8d a8       	st.w	r6[0x28],r8
80002b24:	c0 68       	rjmp	80002b30 <usart_init_rs232+0xb0>
  }
  else
    // Insert 1, 1.5 or 2 stop bits.
    usart->mr |= opt->stopbits << AVR32_USART_MR_NBSTOP_OFFSET;
80002b26:	6c 19       	ld.w	r9,r6[0x4]
80002b28:	5c 78       	castu.h	r8
80002b2a:	f3 e8 10 c8 	or	r8,r9,r8<<0xc
80002b2e:	8d 18       	st.w	r6[0x4],r8

  // Set normal mode.
  usart->mr = (usart->mr & ~AVR32_USART_MR_MODE_MASK) |
80002b30:	6c 18       	ld.w	r8,r6[0x4]
80002b32:	e0 18 ff f0 	andl	r8,0xfff0
80002b36:	8d 18       	st.w	r6[0x4],r8
              AVR32_USART_MR_MODE_NORMAL << AVR32_USART_MR_MODE_OFFSET;

  // Setup complete; enable communication.
  // Enable input and output.
  usart->cr = AVR32_USART_CR_RXEN_MASK |
80002b38:	35 08       	mov	r8,80
80002b3a:	8d 08       	st.w	r6[0x0],r8
80002b3c:	e3 cf 80 e0 	ldm	sp++,r5-r7,pc,r12=0
              AVR32_USART_CR_TXEN_MASK;

  return USART_SUCCESS;
80002b40:	e3 cf 90 e0 	ldm	sp++,r5-r7,pc,r12=1
80002b44:	80 00       	ld.sh	r0,r0[0x0]
80002b46:	2a 54       	sub	r4,-91
80002b48:	80 00       	ld.sh	r0,r0[0x0]
80002b4a:	29 70       	sub	r0,-105

80002b4c <udd_sleep_mode>:
		sleepmgr_unlock_mode(USBB_SLEEP_MODE_USB_IDLE);
	}
	if (b_idle && !udd_b_idle) {
		sleepmgr_lock_mode(USBB_SLEEP_MODE_USB_IDLE);
	}
	udd_b_idle = b_idle;
80002b4c:	48 28       	lddpc	r8,80002b54 <udd_sleep_mode+0x8>
80002b4e:	b0 8c       	st.b	r8[0x0],r12
}
80002b50:	5e fc       	retal	r12
80002b52:	00 00       	add	r0,r0
80002b54:	00 00       	add	r0,r0
80002b56:	06 f8       	st.b	--r3,r8

80002b58 <udd_detach>:
	cpu_irq_restore(flags);
}


void udd_detach(void)
{
80002b58:	d4 01       	pushm	lr
	otg_unfreeze_clock();
80002b5a:	fe 68 08 00 	mov	r8,-129024
80002b5e:	70 09       	ld.w	r9,r8[0x0]
80002b60:	af c9       	cbr	r9,0xe
80002b62:	91 09       	st.w	r8[0x0],r9

	// Detach device from the bus
	udd_detach_device();
80002b64:	fe 69 00 00 	mov	r9,-131072
80002b68:	72 0a       	ld.w	r10,r9[0x0]
80002b6a:	a9 aa       	sbr	r10,0x8
80002b6c:	93 0a       	st.w	r9[0x0],r10
	otg_freeze_clock();
80002b6e:	70 09       	ld.w	r9,r8[0x0]
80002b70:	af a9       	sbr	r9,0xe
80002b72:	91 09       	st.w	r8[0x0],r9
	udd_sleep_mode(false);
80002b74:	30 0c       	mov	r12,0
80002b76:	f0 1f 00 02 	mcall	80002b7c <udd_detach+0x24>
}
80002b7a:	d8 02       	popm	pc
80002b7c:	80 00       	ld.sh	r0,r0[0x0]
80002b7e:	2b 4c       	sub	r12,-76

80002b80 <udd_is_high_speed>:
#ifdef USB_DEVICE_HS_SUPPORT
	return !Is_udd_full_speed_mode();
#else
	return false;
#endif
}
80002b80:	5e fd       	retal	0

80002b82 <udd_set_address>:


void udd_set_address(uint8_t address)
{
	udd_disable_address();
80002b82:	fe 68 00 00 	mov	r8,-131072
80002b86:	70 09       	ld.w	r9,r8[0x0]
80002b88:	a7 d9       	cbr	r9,0x7
80002b8a:	91 09       	st.w	r8[0x0],r9
	udd_configure_address(address);
80002b8c:	70 09       	ld.w	r9,r8[0x0]
80002b8e:	f9 dc c0 07 	bfextu	r12,r12,0x0,0x7
80002b92:	e0 19 ff 80 	andl	r9,0xff80
80002b96:	f9 e9 10 09 	or	r9,r12,r9
80002b9a:	91 09       	st.w	r8[0x0],r9
	udd_enable_address();
80002b9c:	70 09       	ld.w	r9,r8[0x0]
80002b9e:	a7 b9       	sbr	r9,0x7
80002ba0:	91 09       	st.w	r8[0x0],r9
}
80002ba2:	5e fc       	retal	r12

80002ba4 <udd_getaddress>:


uint8_t udd_getaddress(void)
{
	return udd_get_configured_address();
80002ba4:	fe 68 00 00 	mov	r8,-131072
80002ba8:	70 0c       	ld.w	r12,r8[0x0]
}
80002baa:	f9 dc c0 07 	bfextu	r12,r12,0x0,0x7
80002bae:	5e fc       	retal	r12

80002bb0 <udd_get_frame_number>:


uint16_t udd_get_frame_number(void)
{
	return udd_frame_number();
80002bb0:	fe 68 00 20 	mov	r8,-131040
80002bb4:	70 0c       	ld.w	r12,r8[0x0]
}
80002bb6:	f9 dc c0 6b 	bfextu	r12,r12,0x3,0xb
80002bba:	5e fc       	retal	r12

80002bbc <udd_get_micro_frame_number>:

uint16_t udd_get_micro_frame_number(void)
{
	return udd_micro_frame_number();
80002bbc:	fe 68 00 00 	mov	r8,-131072
80002bc0:	70 8c       	ld.w	r12,r8[0x20]
}
80002bc2:	f9 dc c0 0e 	bfextu	r12,r12,0x0,0xe
80002bc6:	5e fc       	retal	r12

80002bc8 <udd_set_setup_payload>:
}


void udd_set_setup_payload( uint8_t *payload, uint16_t payload_size )
{
	udd_g_ctrlreq.payload = payload;
80002bc8:	48 28       	lddpc	r8,80002bd0 <udd_set_setup_payload+0x8>
80002bca:	91 2c       	st.w	r8[0x8],r12
	udd_g_ctrlreq.payload_size = payload_size;
80002bcc:	b0 6b       	st.h	r8[0xc],r11
}
80002bce:	5e fc       	retal	r12
80002bd0:	00 00       	add	r0,r0
80002bd2:	0f 64       	ld.uh	r4,--r7

80002bd4 <udd_ep_is_halted>:
}


bool udd_ep_is_halted(udd_ep_id_t ep)
{
	return Is_udd_endpoint_stall_requested(ep & USB_EP_ADDR_MASK);
80002bd4:	f1 dc c0 04 	bfextu	r8,r12,0x0,0x4
80002bd8:	a3 68       	lsl	r8,0x2
80002bda:	e0 38 fe 40 	sub	r8,130624
80002bde:	70 0c       	ld.w	r12,r8[0x0]
}
80002be0:	f9 dc c2 61 	bfextu	r12,r12,0x13,0x1
80002be4:	5e fc       	retal	r12
80002be6:	d7 03       	nop

80002be8 <udd_ep_set_halt>:


bool udd_ep_set_halt(udd_ep_id_t ep)
{
80002be8:	d4 01       	pushm	lr
	udd_ep_job_t *ptr_job;
	uint8_t index = ep & USB_EP_ADDR_MASK;
80002bea:	f1 dc c0 04 	bfextu	r8,r12,0x0,0x4

	if (USB_DEVICE_MAX_EP < index) {
80002bee:	30 39       	mov	r9,3
80002bf0:	f2 08 18 00 	cp.b	r8,r9
80002bf4:	e0 8b 00 49 	brhi	80002c86 <udd_ep_set_halt+0x9e>
		return false;
	}

	ptr_job = &udd_ep_job[index - 1];

	if (Is_udd_endpoint_stall_requested(index) // Endpoint stalled
80002bf8:	f0 09 15 02 	lsl	r9,r8,0x2
80002bfc:	fe 6e 01 c0 	mov	lr,-130624
80002c00:	f2 0e 00 0a 	add	r10,r9,lr
80002c04:	74 0a       	ld.w	r10,r10[0x0]
80002c06:	e6 1a 00 08 	andh	r10,0x8,COH
80002c0a:	c3 f1       	brne	80002c88 <udd_ep_set_halt+0xa0>

	if (USB_DEVICE_MAX_EP < index) {
		return false;
	}

	ptr_job = &udd_ep_job[index - 1];
80002c0c:	f0 ca 00 01 	sub	r10,r8,1
80002c10:	f4 0a 00 2a 	add	r10,r10,r10<<0x2
80002c14:	49 eb       	lddpc	r11,80002c8c <udd_ep_set_halt+0xa4>
80002c16:	f6 0a 00 2a 	add	r10,r11,r10<<0x2

	if (Is_udd_endpoint_stall_requested(index) // Endpoint stalled
			|| ptr_job->stall_requested) { // Endpoint stall is requested
80002c1a:	74 0b       	ld.w	r11,r10[0x0]
		return false;
	}

	ptr_job = &udd_ep_job[index - 1];

	if (Is_udd_endpoint_stall_requested(index) // Endpoint stalled
80002c1c:	16 9e       	mov	lr,r11
80002c1e:	e6 1e 20 00 	andh	lr,0x2000,COH
80002c22:	c3 31       	brne	80002c88 <udd_ep_set_halt+0xa0>
			|| ptr_job->stall_requested) { // Endpoint stall is requested
		return true; // Already STALL
	}

	if (ptr_job->busy == true) {
80002c24:	58 0b       	cp.w	r11,0
80002c26:	c3 05       	brlt	80002c86 <udd_ep_set_halt+0x9e>
		return false; // Job on going, stall impossible
	}

	if ((ep & USB_EP_DIR_IN) && (0 != udd_nb_busy_bank(index))) {
80002c28:	30 0b       	mov	r11,0
80002c2a:	f6 0c 18 00 	cp.b	r12,r11
80002c2e:	c1 94       	brge	80002c60 <udd_ep_set_halt+0x78>
80002c30:	fe 6c 01 30 	mov	r12,-130768
80002c34:	f2 0c 00 0b 	add	r11,r9,r12
80002c38:	76 0b       	ld.w	r11,r11[0x0]
80002c3a:	f7 db c1 82 	bfextu	r11,r11,0xc,0x2
80002c3e:	c1 10       	breq	80002c60 <udd_ep_set_halt+0x78>
			// Delay the stall after the end of IN transfer on USB line
			ptr_job->stall_requested = true;
80002c40:	74 0b       	ld.w	r11,r10[0x0]
80002c42:	30 1c       	mov	r12,1
80002c44:	f7 dc d3 a1 	bfins	r11,r12,0x1d,0x1
80002c48:	95 0b       	st.w	r10[0x0],r11
			udd_enable_bank_interrupt(index);
80002c4a:	e0 39 fe 10 	sub	r9,130576
80002c4e:	e0 6a 10 00 	mov	r10,4096
80002c52:	93 0a       	st.w	r9[0x0],r10
			udd_enable_endpoint_interrupt(index);
80002c54:	f4 08 09 48 	lsl	r8,r10,r8
80002c58:	fe 69 00 00 	mov	r9,-131072
80002c5c:	93 68       	st.w	r9[0x18],r8
			return true;
80002c5e:	d8 02       	popm	pc
	}
	
	// Stall endpoint immediately
	udd_disable_endpoint_bank_autoswitch(index);
80002c60:	fe 6a 01 00 	mov	r10,-130816
80002c64:	f2 0a 00 08 	add	r8,r9,r10
80002c68:	70 0a       	ld.w	r10,r8[0x0]
80002c6a:	a9 da       	cbr	r10,0x9
80002c6c:	91 0a       	st.w	r8[0x0],r10
	udd_ack_stall(index);
80002c6e:	fe 6e 01 60 	mov	lr,-130720
80002c72:	f2 0e 00 08 	add	r8,r9,lr
80002c76:	34 0a       	mov	r10,64
80002c78:	91 0a       	st.w	r8[0x0],r10
	udd_enable_stall_handshake(index);
80002c7a:	e0 39 fe 10 	sub	r9,130576
80002c7e:	e8 68 00 00 	mov	r8,524288
80002c82:	93 08       	st.w	r9[0x0],r8
80002c84:	da 0a       	popm	pc,r12=1
	return true;
80002c86:	d8 0a       	popm	pc,r12=0
80002c88:	da 0a       	popm	pc,r12=1
80002c8a:	00 00       	add	r0,r0
80002c8c:	00 00       	add	r0,r0
80002c8e:	06 bc       	st.h	r3++,r12

80002c90 <udd_ep_clear_halt>:
}


bool udd_ep_clear_halt(udd_ep_id_t ep)
{
80002c90:	d4 01       	pushm	lr
	bool b_stall_cleared = false;
	udd_ep_job_t *ptr_job;

	ep &= USB_EP_ADDR_MASK;
80002c92:	f9 dc c0 04 	bfextu	r12,r12,0x0,0x4
	if (USB_DEVICE_MAX_EP < ep)
80002c96:	30 38       	mov	r8,3
80002c98:	f0 0c 18 00 	cp.b	r12,r8
80002c9c:	e0 88 00 03 	brls	80002ca2 <udd_ep_clear_halt+0x12>
80002ca0:	d8 0a       	popm	pc,r12=0
		return false;
	ptr_job = &udd_ep_job[ep - 1];
80002ca2:	18 99       	mov	r9,r12
80002ca4:	f8 c8 00 01 	sub	r8,r12,1
80002ca8:	f0 08 00 28 	add	r8,r8,r8<<0x2
80002cac:	4a aa       	lddpc	r10,80002d54 <udd_ep_clear_halt+0xc4>
80002cae:	f4 08 00 28 	add	r8,r10,r8<<0x2

	if (ptr_job->stall_requested) {
80002cb2:	70 0a       	ld.w	r10,r8[0x0]
80002cb4:	e6 1a 20 00 	andh	r10,0x2000,COH
80002cb8:	c0 31       	brne	80002cbe <udd_ep_clear_halt+0x2e>
80002cba:	30 0b       	mov	r11,0
80002cbc:	c1 38       	rjmp	80002ce2 <udd_ep_clear_halt+0x52>
		// Endpoint stall has been requested but not done
		// Remove stall request
		ptr_job->stall_requested = false;
80002cbe:	70 0a       	ld.w	r10,r8[0x0]
80002cc0:	30 0b       	mov	r11,0
80002cc2:	f5 db d3 a1 	bfins	r10,r11,0x1d,0x1
80002cc6:	91 0a       	st.w	r8[0x0],r10
		udd_disable_bank_interrupt(ep);
80002cc8:	f8 0b 15 02 	lsl	r11,r12,0x2
80002ccc:	e0 3b fd e0 	sub	r11,130528
80002cd0:	e0 6a 10 00 	mov	r10,4096
80002cd4:	97 0a       	st.w	r11[0x0],r10
		udd_disable_endpoint_interrupt(ep);
80002cd6:	f4 0c 09 4c 	lsl	r12,r10,r12
80002cda:	fe 6b 00 00 	mov	r11,-131072
80002cde:	97 5c       	st.w	r11[0x14],r12
80002ce0:	30 1b       	mov	r11,1
		b_stall_cleared = true;
	}
	if (Is_udd_endpoint_stall_requested(ep)) { 
80002ce2:	a3 69       	lsl	r9,0x2
80002ce4:	fe 6c 01 c0 	mov	r12,-130624
80002ce8:	f2 0c 00 0a 	add	r10,r9,r12
80002cec:	74 0a       	ld.w	r10,r10[0x0]
80002cee:	e6 1a 00 08 	andh	r10,0x8,COH
80002cf2:	c2 30       	breq	80002d38 <udd_ep_clear_halt+0xa8>
		if (Is_udd_stall(ep)) {
80002cf4:	fe 6b 01 30 	mov	r11,-130768
80002cf8:	f2 0b 00 0a 	add	r10,r9,r11
80002cfc:	74 0a       	ld.w	r10,r10[0x0]
80002cfe:	e2 1a 00 40 	andl	r10,0x40,COH
80002d02:	c0 e0       	breq	80002d1e <udd_ep_clear_halt+0x8e>
			udd_ack_stall(ep);
80002d04:	fe 6c 01 60 	mov	r12,-130720
80002d08:	f2 0c 00 0a 	add	r10,r9,r12
80002d0c:	34 0b       	mov	r11,64
80002d0e:	95 0b       	st.w	r10[0x0],r11
			// A packet has been stalled
			// then reset datatoggle
			udd_reset_data_toggle(ep);
80002d10:	fe 6b 01 f0 	mov	r11,-130576
80002d14:	f2 0b 00 0a 	add	r10,r9,r11
80002d18:	e4 6b 00 00 	mov	r11,262144
80002d1c:	95 0b       	st.w	r10[0x0],r11
		}
		// Disable stall
		udd_disable_stall_handshake(ep);
80002d1e:	fe 6c 02 20 	mov	r12,-130528
80002d22:	f2 0c 00 0a 	add	r10,r9,r12
80002d26:	e8 6b 00 00 	mov	r11,524288
80002d2a:	95 0b       	st.w	r10[0x0],r11
		udd_enable_endpoint_bank_autoswitch(ep);
80002d2c:	e0 39 ff 00 	sub	r9,130816
80002d30:	72 0a       	ld.w	r10,r9[0x0]
80002d32:	a9 ba       	sbr	r10,0x9
80002d34:	93 0a       	st.w	r9[0x0],r10
80002d36:	c0 38       	rjmp	80002d3c <udd_ep_clear_halt+0xac>
		b_stall_cleared = true;
	}
	if (b_stall_cleared) {
80002d38:	58 0b       	cp.w	r11,0
80002d3a:	c0 b0       	breq	80002d50 <udd_ep_clear_halt+0xc0>
		// If a job is register on clear halt action
		// then execute callback
		if (ptr_job->busy == true) {
80002d3c:	70 09       	ld.w	r9,r8[0x0]
80002d3e:	58 09       	cp.w	r9,0
80002d40:	c0 84       	brge	80002d50 <udd_ep_clear_halt+0xc0>
			ptr_job->busy = false;
80002d42:	30 0a       	mov	r10,0
80002d44:	f3 da d3 e1 	bfins	r9,r10,0x1f,0x1
80002d48:	91 09       	st.w	r8[0x0],r9
			ptr_job->call_nohalt();
80002d4a:	70 48       	ld.w	r8,r8[0x10]
80002d4c:	5d 18       	icall	r8
80002d4e:	da 0a       	popm	pc,r12=1
80002d50:	da 0a       	popm	pc,r12=1
80002d52:	00 00       	add	r0,r0
80002d54:	00 00       	add	r0,r0
80002d56:	06 bc       	st.h	r3++,r12

80002d58 <udd_ctrl_stall_data>:


static void udd_ctrl_stall_data(void)
{
	// Stall all packets on IN & OUT control endpoint
	udd_ep_control_state = UDD_EPCTRL_STALL_REQ;
80002d58:	30 59       	mov	r9,5
80002d5a:	48 58       	lddpc	r8,80002d6c <udd_ctrl_stall_data+0x14>
80002d5c:	91 09       	st.w	r8[0x0],r9
	udd_enable_stall_handshake(0);
80002d5e:	e8 69 00 00 	mov	r9,524288
80002d62:	fe 68 01 f0 	mov	r8,-130576
80002d66:	91 09       	st.w	r8[0x0],r9
}
80002d68:	5e fc       	retal	r12
80002d6a:	00 00       	add	r0,r0
80002d6c:	00 00       	add	r0,r0
80002d6e:	07 00       	ld.w	r0,r3++

80002d70 <udd_ctrl_endofrequest>:
	cpu_irq_restore(flags);
}


static void udd_ctrl_endofrequest(void)
{
80002d70:	d4 01       	pushm	lr
	// If a callback is registered then call it
	if (udd_g_ctrlreq.callback) {
80002d72:	48 48       	lddpc	r8,80002d80 <udd_ctrl_endofrequest+0x10>
80002d74:	70 48       	ld.w	r8,r8[0x10]
80002d76:	58 08       	cp.w	r8,0
80002d78:	c0 20       	breq	80002d7c <udd_ctrl_endofrequest+0xc>
		udd_g_ctrlreq.callback();
80002d7a:	5d 18       	icall	r8
80002d7c:	d8 02       	popm	pc
80002d7e:	00 00       	add	r0,r0
80002d80:	00 00       	add	r0,r0
80002d82:	0f 64       	ld.uh	r4,--r7

80002d84 <udd_ep_finish_job>:
	udd_ep_finish_job(&udd_ep_job[ep - 1], true, ep);
}


static void udd_ep_finish_job(udd_ep_job_t * ptr_job, bool b_abort, uint8_t ep_num)
{
80002d84:	d4 01       	pushm	lr
80002d86:	16 99       	mov	r9,r11
	if (ptr_job->busy == false) {
80002d88:	78 08       	ld.w	r8,r12[0x0]
80002d8a:	58 08       	cp.w	r8,0
80002d8c:	c1 84       	brge	80002dbc <udd_ep_finish_job+0x38>
		return; // No on-going job
	}
	ptr_job->busy = false;
80002d8e:	30 0b       	mov	r11,0
80002d90:	f1 db d3 e1 	bfins	r8,r11,0x1f,0x1
80002d94:	99 08       	st.w	r12[0x0],r8
	if (NULL == ptr_job->call_trans) {
80002d96:	78 48       	ld.w	r8,r12[0x10]
80002d98:	58 08       	cp.w	r8,0
80002d9a:	c1 10       	breq	80002dbc <udd_ep_finish_job+0x38>
		return; // No callback linked to job
	}
	if (Is_udd_endpoint_in(ep_num)) {
80002d9c:	f4 0b 15 02 	lsl	r11,r10,0x2
80002da0:	e0 3b ff 00 	sub	r11,130816
80002da4:	76 0b       	ld.w	r11,r11[0x0]
80002da6:	e2 1b 01 00 	andl	r11,0x100,COH
80002daa:	c0 60       	breq	80002db6 <udd_ep_finish_job+0x32>
		ep_num |= USB_EP_DIR_IN;
80002dac:	ea 1a ff ff 	orh	r10,0xffff
80002db0:	e8 1a ff 80 	orl	r10,0xff80
80002db4:	5c 5a       	castu.b	r10
	}
	ptr_job->call_trans((b_abort) ? UDD_EP_TRANSFER_ABORT :
80002db6:	78 2b       	ld.w	r11,r12[0x8]
80002db8:	12 9c       	mov	r12,r9
80002dba:	5d 18       	icall	r8
80002dbc:	d8 02       	popm	pc
80002dbe:	d7 03       	nop

80002dc0 <udd_ep_abort_job>:
	}
}


static void udd_ep_abort_job(udd_ep_id_t ep)
{
80002dc0:	d4 01       	pushm	lr
	ep &= USB_EP_ADDR_MASK;
80002dc2:	f5 dc c0 04 	bfextu	r10,r12,0x0,0x4

	// Abort job on endpoint
	udd_ep_finish_job(&udd_ep_job[ep - 1], true, ep);
80002dc6:	f4 cc 00 01 	sub	r12,r10,1
80002dca:	f8 0c 00 2c 	add	r12,r12,r12<<0x2
80002dce:	30 1b       	mov	r11,1
80002dd0:	48 38       	lddpc	r8,80002ddc <udd_ep_abort_job+0x1c>
80002dd2:	f0 0c 00 2c 	add	r12,r8,r12<<0x2
80002dd6:	f0 1f 00 03 	mcall	80002de0 <udd_ep_abort_job+0x20>
}
80002dda:	d8 02       	popm	pc
80002ddc:	00 00       	add	r0,r0
80002dde:	06 bc       	st.h	r3++,r12
80002de0:	80 00       	ld.sh	r0,r0[0x0]
80002de2:	2d 84       	sub	r4,-40

80002de4 <udd_ep_abort>:
	return true;
}


void udd_ep_abort(udd_ep_id_t ep)
{
80002de4:	d4 01       	pushm	lr
	uint8_t index = ep & USB_EP_ADDR_MASK;
80002de6:	f3 dc c0 04 	bfextu	r9,r12,0x0,0x4

	// Stop DMA transfer
	udd_disable_endpoint_dma_interrupt(index);
80002dea:	f2 c8 00 01 	sub	r8,r9,1
80002dee:	30 0a       	mov	r10,0
80002df0:	ea 1a 02 00 	orh	r10,0x200
80002df4:	f4 08 09 4a 	lsl	r10,r10,r8
80002df8:	fe 68 00 00 	mov	r8,-131072
80002dfc:	91 5a       	st.w	r8[0x14],r10
	udd_endpoint_dma_set_control(index, 0);
80002dfe:	f2 0a 15 04 	lsl	r10,r9,0x4
80002e02:	e0 3a fd 00 	sub	r10,130304
80002e06:	30 0b       	mov	r11,0
80002e08:	95 2b       	st.w	r10[0x8],r11
	// Kill banks
	udd_disable_endpoint_interrupt(index);
80002e0a:	e0 6a 10 00 	mov	r10,4096
80002e0e:	f4 09 09 4a 	lsl	r10,r10,r9
80002e12:	91 5a       	st.w	r8[0x14],r10
	while (udd_nb_busy_bank(index)) {
80002e14:	a3 69       	lsl	r9,0x2
80002e16:	fe 68 01 30 	mov	r8,-130768
80002e1a:	f2 08 00 0a 	add	r10,r9,r8
		udd_kill_last_in_bank(index);
80002e1e:	fe 68 01 f0 	mov	r8,-130576
80002e22:	f2 08 00 0e 	add	lr,r9,r8
80002e26:	e0 6b 20 00 	mov	r11,8192
		while(Is_udd_killing_last_in_bank(index));
80002e2a:	e0 39 fe 40 	sub	r9,130624
	// Stop DMA transfer
	udd_disable_endpoint_dma_interrupt(index);
	udd_endpoint_dma_set_control(index, 0);
	// Kill banks
	udd_disable_endpoint_interrupt(index);
	while (udd_nb_busy_bank(index)) {
80002e2e:	c0 68       	rjmp	80002e3a <udd_ep_abort+0x56>
		udd_kill_last_in_bank(index);
80002e30:	9d 0b       	st.w	lr[0x0],r11
		while(Is_udd_killing_last_in_bank(index));
80002e32:	72 08       	ld.w	r8,r9[0x0]
80002e34:	e2 18 20 00 	andl	r8,0x2000,COH
80002e38:	cf d1       	brne	80002e32 <udd_ep_abort+0x4e>
	// Stop DMA transfer
	udd_disable_endpoint_dma_interrupt(index);
	udd_endpoint_dma_set_control(index, 0);
	// Kill banks
	udd_disable_endpoint_interrupt(index);
	while (udd_nb_busy_bank(index)) {
80002e3a:	74 08       	ld.w	r8,r10[0x0]
80002e3c:	f1 d8 c1 82 	bfextu	r8,r8,0xc,0x2
80002e40:	cf 81       	brne	80002e30 <udd_ep_abort+0x4c>
		udd_kill_last_in_bank(index);
		while(Is_udd_killing_last_in_bank(index));
	}
	udd_ep_abort_job(ep);
80002e42:	f0 1f 00 02 	mcall	80002e48 <udd_ep_abort+0x64>
}
80002e46:	d8 02       	popm	pc
80002e48:	80 00       	ld.sh	r0,r0[0x0]
80002e4a:	2d c0       	sub	r0,-36

80002e4c <udd_ep_free>:
	return true;
}


void udd_ep_free(udd_ep_id_t ep)
{
80002e4c:	eb cd 40 80 	pushm	r7,lr
	uint8_t index = ep & USB_EP_ADDR_MASK;
80002e50:	ef dc c0 04 	bfextu	r7,r12,0x0,0x4

	if (USB_DEVICE_MAX_EP < index) {
80002e54:	30 38       	mov	r8,3
80002e56:	f0 07 18 00 	cp.b	r7,r8
80002e5a:	e0 8b 00 1f 	brhi	80002e98 <udd_ep_free+0x4c>
		return;
	}
	udd_disable_endpoint(index);
80002e5e:	fe 68 00 00 	mov	r8,-131072
80002e62:	70 7a       	ld.w	r10,r8[0x1c]
80002e64:	30 19       	mov	r9,1
80002e66:	f2 07 09 49 	lsl	r9,r9,r7
80002e6a:	5c d9       	com	r9
80002e6c:	14 69       	and	r9,r10
80002e6e:	91 79       	st.w	r8[0x1c],r9
	udd_unallocate_memory(index);
80002e70:	ee 08 15 02 	lsl	r8,r7,0x2
80002e74:	e0 38 ff 00 	sub	r8,130816
80002e78:	70 09       	ld.w	r9,r8[0x0]
80002e7a:	a1 d9       	cbr	r9,0x1
80002e7c:	91 09       	st.w	r8[0x0],r9
	udd_ep_abort_job(ep);
80002e7e:	f0 1f 00 08 	mcall	80002e9c <udd_ep_free+0x50>
	udd_ep_job[index - 1].stall_requested = false;
80002e82:	20 17       	sub	r7,1
80002e84:	ee 07 00 27 	add	r7,r7,r7<<0x2
80002e88:	48 68       	lddpc	r8,80002ea0 <udd_ep_free+0x54>
80002e8a:	f0 07 00 27 	add	r7,r8,r7<<0x2
80002e8e:	6e 08       	ld.w	r8,r7[0x0]
80002e90:	30 09       	mov	r9,0
80002e92:	f1 d9 d3 a1 	bfins	r8,r9,0x1d,0x1
80002e96:	8f 08       	st.w	r7[0x0],r8
80002e98:	e3 cd 80 80 	ldm	sp++,r7,pc
80002e9c:	80 00       	ld.sh	r0,r0[0x0]
80002e9e:	2d c0       	sub	r0,-36
80002ea0:	00 00       	add	r0,r0
80002ea2:	06 bc       	st.h	r3++,r12

80002ea4 <udd_ep_trans_done>:
	ptr_job->call_trans((b_abort) ? UDD_EP_TRANSFER_ABORT :
			UDD_EP_TRANSFER_OK, ptr_job->buf_size, ep_num);
}

static void udd_ep_trans_done(udd_ep_id_t ep)
{
80002ea4:	eb cd 40 c0 	pushm	r6-r7,lr
	udd_ep_job_t *ptr_job;
	iram_size_t next_trans;
	irqflags_t flags;

	// Get job corresponding at endpoint
	ptr_job = &udd_ep_job[ep - 1];
80002ea8:	18 99       	mov	r9,r12
80002eaa:	f8 c8 00 01 	sub	r8,r12,1
80002eae:	f0 08 00 28 	add	r8,r8,r8<<0x2
80002eb2:	4d 1a       	lddpc	r10,80002ff4 <udd_ep_trans_done+0x150>
80002eb4:	f4 08 00 28 	add	r8,r10,r8<<0x2

	if (!ptr_job->busy) {
80002eb8:	70 0a       	ld.w	r10,r8[0x0]
80002eba:	58 0a       	cp.w	r10,0
80002ebc:	e0 84 00 9a 	brge	80002ff0 <udd_ep_trans_done+0x14c>
		return; // No job is running, then ignore it (system error)
	}

	if (ptr_job->nb_trans != ptr_job->buf_size) {
80002ec0:	70 3a       	ld.w	r10,r8[0xc]
80002ec2:	70 2b       	ld.w	r11,r8[0x8]
80002ec4:	16 3a       	cp.w	r10,r11
80002ec6:	c6 20       	breq	80002f8a <udd_ep_trans_done+0xe6>
		// Need to send or receive other data
		next_trans = ptr_job->buf_size - ptr_job->nb_trans;
80002ec8:	f6 0a 01 0a 	sub	r10,r11,r10

		if (UDD_ENDPOINT_MAX_TRANS < next_trans) {
80002ecc:	e0 5a 00 00 	cp.w	r10,65536
80002ed0:	e0 88 00 06 	brls	80002edc <udd_ep_trans_done+0x38>
80002ed4:	e0 7a 00 00 	mov	r10,65536
80002ed8:	30 0e       	mov	lr,0
80002eda:	c0 38       	rjmp	80002ee0 <udd_ep_trans_done+0x3c>
			// Set 0 to transfer the maximum
			udd_dma_ctrl = (0 <<
					AVR32_USBB_UDDMA1_CONTROL_CH_BYTE_LENGTH_OFFSET)
					& AVR32_USBB_UDDMA1_CONTROL_CH_BYTE_LENGTH_MASK;
		} else {
			udd_dma_ctrl = (next_trans <<
80002edc:	f4 0e 15 10 	lsl	lr,r10,0x10
					AVR32_USBB_UDDMA1_CONTROL_CH_BYTE_LENGTH_OFFSET)
					& AVR32_USBB_UDDMA1_CONTROL_CH_BYTE_LENGTH_MASK;
		}
		if (Is_udd_endpoint_in(ep)) {
80002ee0:	f2 0b 15 02 	lsl	r11,r9,0x2
80002ee4:	e0 3b ff 00 	sub	r11,130816
80002ee8:	76 07       	ld.w	r7,r11[0x0]
80002eea:	e2 17 01 00 	andl	r7,0x100,COH
80002eee:	c1 20       	breq	80002f12 <udd_ep_trans_done+0x6e>
			if (0 != next_trans % udd_get_endpoint_size(ep)) {
80002ef0:	76 0b       	ld.w	r11,r11[0x0]
80002ef2:	f7 db c0 83 	bfextu	r11,r11,0x4,0x3
80002ef6:	30 87       	mov	r7,8
80002ef8:	ee 0b 09 4b 	lsl	r11,r7,r11
80002efc:	20 1b       	sub	r11,1
80002efe:	f5 eb 00 0b 	and	r11,r10,r11
80002f02:	c1 80       	breq	80002f32 <udd_ep_trans_done+0x8e>
				// Enable short packet option
				// else the DMA transfer is accepted
				// and interrupt DMA valid but nothing is sent.
				udd_dma_ctrl |= AVR32_USBB_UDDMA1_CONTROL_DMAEND_EN_MASK;
80002f04:	0e 4e       	or	lr,r7
				// No need to request another ZLP
				ptr_job->b_shortpacket = false;
80002f06:	70 0b       	ld.w	r11,r8[0x0]
80002f08:	30 07       	mov	r7,0
80002f0a:	f7 d7 d3 c1 	bfins	r11,r7,0x1e,0x1
80002f0e:	91 0b       	st.w	r8[0x0],r11
80002f10:	c1 18       	rjmp	80002f32 <udd_ep_trans_done+0x8e>
			}
		} else {
			if ((USB_EP_TYPE_ISOCHRONOUS != udd_get_endpoint_type(ep))
80002f12:	76 07       	ld.w	r7,r11[0x0]
80002f14:	ef d7 c1 62 	bfextu	r7,r7,0xb,0x2
80002f18:	58 17       	cp.w	r7,1
80002f1a:	c0 a1       	brne	80002f2e <udd_ep_trans_done+0x8a>
					|| (next_trans <= udd_get_endpoint_size(ep))) {
80002f1c:	76 0b       	ld.w	r11,r11[0x0]
				udd_dma_ctrl |= AVR32_USBB_UDDMA1_CONTROL_DMAEND_EN_MASK;
				// No need to request another ZLP
				ptr_job->b_shortpacket = false;
			}
		} else {
			if ((USB_EP_TYPE_ISOCHRONOUS != udd_get_endpoint_type(ep))
80002f1e:	f7 db c0 83 	bfextu	r11,r11,0x4,0x3
80002f22:	30 87       	mov	r7,8
80002f24:	ee 0b 09 4b 	lsl	r11,r7,r11
80002f28:	16 3a       	cp.w	r10,r11
80002f2a:	e0 8b 00 04 	brhi	80002f32 <udd_ep_trans_done+0x8e>
					|| (next_trans <= udd_get_endpoint_size(ep))) {

				// Enable short packet reception
				udd_dma_ctrl |= AVR32_USBB_UDDMA1_CONTROL_EOT_IRQ_EN_MASK
80002f2e:	e8 1e 00 14 	orl	lr,0x14
						| AVR32_USBB_UDDMA1_CONTROL_BUFF_CLOSE_IN_EN_MASK;
			}
		}

		// Start USB DMA to fill or read fifo of the selected endpoint
		udd_endpoint_dma_set_addr(ep, (U32) &ptr_job->buf[ptr_job->nb_trans]);
80002f32:	f2 0b 15 04 	lsl	r11,r9,0x4
80002f36:	e0 3b fd 00 	sub	r11,130304
80002f3a:	70 16       	ld.w	r6,r8[0x4]
80002f3c:	70 37       	ld.w	r7,r8[0xc]
80002f3e:	ec 07 00 07 	add	r7,r6,r7
80002f42:	97 17       	st.w	r11[0x4],r7

static inline irqflags_t cpu_irq_save(void)
{
	irqflags_t flags;

	flags = sysreg_read(AVR32_SR);
80002f44:	e1 b6 00 00 	mfsr	r6,0x0
	cpu_irq_disable();
80002f48:	d3 03       	ssrf	0x10
				AVR32_USBB_UDDMA1_CONTROL_CH_EN_MASK;

		// Disable IRQs to have a short sequence
		// between read of EOT_STA and DMA enable
		flags = cpu_irq_save();
		if ( !(udd_endpoint_dma_get_status(ep)
80002f4a:	76 37       	ld.w	r7,r11[0xc]
80002f4c:	e2 17 00 10 	andl	r7,0x10,COH
80002f50:	c1 71       	brne	80002f7e <udd_ep_trans_done+0xda>
			}
		}

		// Start USB DMA to fill or read fifo of the selected endpoint
		udd_endpoint_dma_set_addr(ep, (U32) &ptr_job->buf[ptr_job->nb_trans]);
		udd_dma_ctrl |= AVR32_USBB_UDDMA1_CONTROL_EOBUFF_IRQ_EN_MASK |
80002f52:	e8 1e 00 21 	orl	lr,0x21
		// Disable IRQs to have a short sequence
		// between read of EOT_STA and DMA enable
		flags = cpu_irq_save();
		if ( !(udd_endpoint_dma_get_status(ep)
				& AVR32_USBB_UDDMA1_STATUS_EOT_STA_MASK)) {
			udd_endpoint_dma_set_control(ep, udd_dma_ctrl);
80002f56:	97 2e       	st.w	r11[0x8],lr
			ptr_job->nb_trans += next_trans;
80002f58:	70 39       	ld.w	r9,r8[0xc]
80002f5a:	f2 0a 00 0a 	add	r10,r9,r10
80002f5e:	91 3a       	st.w	r8[0xc],r10
			udd_enable_endpoint_dma_interrupt(ep);
80002f60:	20 1c       	sub	r12,1
80002f62:	30 08       	mov	r8,0
80002f64:	ea 18 02 00 	orh	r8,0x200
80002f68:	f0 0c 09 4c 	lsl	r12,r8,r12
80002f6c:	fe 68 00 00 	mov	r8,-131072
80002f70:	91 6c       	st.w	r8[0x18],r12
static inline void cpu_irq_restore(irqflags_t flags)
{
	barrier();

   /* Restore the global IRQ mask status flag if it was previously set */
   if ( cpu_irq_is_enabled_flags(flags) ) {
80002f72:	e6 16 00 01 	andh	r6,0x1,COH
80002f76:	c0 21       	brne	80002f7a <udd_ep_trans_done+0xd6>
      cpu_irq_enable();
80002f78:	d5 03       	csrf	0x10
			cpu_irq_restore(flags);
			return;
80002f7a:	e3 cd 80 c0 	ldm	sp++,r6-r7,pc
static inline void cpu_irq_restore(irqflags_t flags)
{
	barrier();

   /* Restore the global IRQ mask status flag if it was previously set */
   if ( cpu_irq_is_enabled_flags(flags) ) {
80002f7e:	e6 16 00 01 	andh	r6,0x1,COH
80002f82:	c0 21       	brne	80002f86 <udd_ep_trans_done+0xe2>
      cpu_irq_enable();
80002f84:	d5 03       	csrf	0x10
		cpu_irq_restore(flags);

		// Here a ZLP has been received
		// and the DMA transfer must be not started.
		// It is the end of transfer
		ptr_job->buf_size = ptr_job->nb_trans;
80002f86:	70 3a       	ld.w	r10,r8[0xc]
80002f88:	91 2a       	st.w	r8[0x8],r10
	}
	if (Is_udd_endpoint_in(ep)) {
80002f8a:	a3 69       	lsl	r9,0x2
80002f8c:	fe 6b 01 00 	mov	r11,-130816
80002f90:	f2 0b 00 0a 	add	r10,r9,r11
80002f94:	74 0a       	ld.w	r10,r10[0x0]
80002f96:	e2 1a 01 00 	andl	r10,0x100,COH
80002f9a:	c2 60       	breq	80002fe6 <udd_ep_trans_done+0x142>
		if (ptr_job->b_shortpacket) {
80002f9c:	70 0a       	ld.w	r10,r8[0x0]
80002f9e:	e6 1a 40 00 	andh	r10,0x4000,COH
80002fa2:	c2 20       	breq	80002fe6 <udd_ep_trans_done+0x142>
			// Need to send a ZLP (No possible with USB DMA)
			// enable interrupt to wait a free bank to sent ZLP
			udd_ack_in_send(ep);
80002fa4:	fe 6a 01 60 	mov	r10,-130720
80002fa8:	f2 0a 00 08 	add	r8,r9,r10
80002fac:	30 1a       	mov	r10,1
80002fae:	91 0a       	st.w	r8[0x0],r10
			if (Is_udd_write_enabled(ep)) {
80002fb0:	fe 6b 01 30 	mov	r11,-130768
80002fb4:	f2 0b 00 08 	add	r8,r9,r11
80002fb8:	70 08       	ld.w	r8,r8[0x0]
80002fba:	e6 18 00 01 	andh	r8,0x1,COH
80002fbe:	c0 70       	breq	80002fcc <udd_ep_trans_done+0x128>
				// Force interrupt in case of ep already free
				udd_raise_in_send(ep);
80002fc0:	fe 6a 01 90 	mov	r10,-130672
80002fc4:	f2 0a 00 08 	add	r8,r9,r10
80002fc8:	30 1a       	mov	r10,1
80002fca:	91 0a       	st.w	r8[0x0],r10
			}
			udd_enable_in_send_interrupt(ep);
80002fcc:	e0 39 fe 10 	sub	r9,130576
80002fd0:	30 18       	mov	r8,1
80002fd2:	93 08       	st.w	r9[0x0],r8
			udd_enable_endpoint_interrupt(ep);
80002fd4:	e0 68 10 00 	mov	r8,4096
80002fd8:	f0 0c 09 4c 	lsl	r12,r8,r12
80002fdc:	fe 68 00 00 	mov	r8,-131072
80002fe0:	91 6c       	st.w	r8[0x18],r12
			return;
80002fe2:	e3 cd 80 c0 	ldm	sp++,r6-r7,pc
		}
	}
	// Call callback to signal end of transfer
	udd_ep_finish_job(ptr_job, false, ep);
80002fe6:	18 9a       	mov	r10,r12
80002fe8:	30 0b       	mov	r11,0
80002fea:	10 9c       	mov	r12,r8
80002fec:	f0 1f 00 03 	mcall	80002ff8 <udd_ep_trans_done+0x154>
80002ff0:	e3 cd 80 c0 	ldm	sp++,r6-r7,pc
80002ff4:	00 00       	add	r0,r0
80002ff6:	06 bc       	st.h	r3++,r12
80002ff8:	80 00       	ld.sh	r0,r0[0x0]
80002ffa:	2d 84       	sub	r4,-40

80002ffc <udd_ep_run>:


bool udd_ep_run(udd_ep_id_t ep, bool b_shortpacket,
		uint8_t * buf, iram_size_t buf_size,
		udd_callback_trans_t callback)
{
80002ffc:	eb cd 40 e0 	pushm	r5-r7,lr
	udd_ep_job_t *ptr_job;
	irqflags_t flags;

	ep &= USB_EP_ADDR_MASK;
80003000:	f9 dc c0 04 	bfextu	r12,r12,0x0,0x4
	if (USB_DEVICE_MAX_EP < ep) {
80003004:	30 3e       	mov	lr,3
80003006:	fc 0c 18 00 	cp.b	r12,lr
8000300a:	e0 8b 00 40 	brhi	8000308a <udd_ep_run+0x8e>
	}

	// Get job about endpoint
	ptr_job = &udd_ep_job[ep - 1];

	if ((!Is_udd_endpoint_enabled(ep))
8000300e:	fe 6e 00 00 	mov	lr,-131072
80003012:	7c 77       	ld.w	r7,lr[0x1c]
80003014:	18 96       	mov	r6,r12
80003016:	30 1e       	mov	lr,1
80003018:	fc 0c 09 4e 	lsl	lr,lr,r12
8000301c:	0e 6e       	and	lr,r7
8000301e:	c3 60       	breq	8000308a <udd_ep_run+0x8e>
			|| Is_udd_endpoint_stall_requested(ep)
80003020:	f8 0e 15 02 	lsl	lr,r12,0x2
80003024:	e0 3e fe 40 	sub	lr,130624
80003028:	7c 0e       	ld.w	lr,lr[0x0]
	}

	// Get job about endpoint
	ptr_job = &udd_ep_job[ep - 1];

	if ((!Is_udd_endpoint_enabled(ep))
8000302a:	e6 1e 00 08 	andh	lr,0x8,COH
8000302e:	c2 e1       	brne	8000308a <udd_ep_run+0x8e>
	if (USB_DEVICE_MAX_EP < ep) {
		return false;
	}

	// Get job about endpoint
	ptr_job = &udd_ep_job[ep - 1];
80003030:	20 1c       	sub	r12,1
80003032:	f8 0c 00 2c 	add	r12,r12,r12<<0x2
80003036:	49 77       	lddpc	r7,80003090 <udd_ep_run+0x94>
80003038:	ee 0c 00 2e 	add	lr,r7,r12<<0x2

	if ((!Is_udd_endpoint_enabled(ep))
			|| Is_udd_endpoint_stall_requested(ep)
			|| ptr_job->stall_requested) {
8000303c:	7c 0c       	ld.w	r12,lr[0x0]
8000303e:	e6 1c 20 00 	andh	r12,0x2000,COH
80003042:	c2 41       	brne	8000308a <udd_ep_run+0x8e>

static inline irqflags_t cpu_irq_save(void)
{
	irqflags_t flags;

	flags = sysreg_read(AVR32_SR);
80003044:	e1 bc 00 00 	mfsr	r12,0x0
	cpu_irq_disable();
80003048:	d3 03       	ssrf	0x10
		return false; // Endpoint is halted
	}

	flags = cpu_irq_save();
	if (ptr_job->busy == true) {
8000304a:	7c 07       	ld.w	r7,lr[0x0]
8000304c:	58 07       	cp.w	r7,0
8000304e:	c0 74       	brge	8000305c <udd_ep_run+0x60>
static inline void cpu_irq_restore(irqflags_t flags)
{
	barrier();

   /* Restore the global IRQ mask status flag if it was previously set */
   if ( cpu_irq_is_enabled_flags(flags) ) {
80003050:	e6 1c 00 01 	andh	r12,0x1,COH
80003054:	c0 21       	brne	80003058 <udd_ep_run+0x5c>
      cpu_irq_enable();
80003056:	d5 03       	csrf	0x10
   }

	barrier();
80003058:	e3 cf 80 e0 	ldm	sp++,r5-r7,pc,r12=0
		cpu_irq_restore(flags);
		return false; // Job already on going
	}
	ptr_job->busy = true;
8000305c:	7c 07       	ld.w	r7,lr[0x0]
8000305e:	30 15       	mov	r5,1
80003060:	ef d5 d3 e1 	bfins	r7,r5,0x1f,0x1
80003064:	9d 07       	st.w	lr[0x0],r7
static inline void cpu_irq_restore(irqflags_t flags)
{
	barrier();

   /* Restore the global IRQ mask status flag if it was previously set */
   if ( cpu_irq_is_enabled_flags(flags) ) {
80003066:	e6 1c 00 01 	andh	r12,0x1,COH
8000306a:	c0 21       	brne	8000306e <udd_ep_run+0x72>
      cpu_irq_enable();
8000306c:	d5 03       	csrf	0x10
	cpu_irq_restore(flags);

	// No job running. Let's setup a new one.
	//
	ptr_job->buf = buf;
8000306e:	9d 1a       	st.w	lr[0x4],r10
	ptr_job->buf_size = buf_size;
80003070:	9d 29       	st.w	lr[0x8],r9
	ptr_job->nb_trans = 0;
80003072:	30 09       	mov	r9,0
80003074:	9d 39       	st.w	lr[0xc],r9
	ptr_job->call_trans = callback;
80003076:	9d 48       	st.w	lr[0x10],r8
	ptr_job->b_shortpacket = b_shortpacket;
80003078:	7c 08       	ld.w	r8,lr[0x0]
8000307a:	f1 db d3 c1 	bfins	r8,r11,0x1e,0x1
8000307e:	9d 08       	st.w	lr[0x0],r8


	// Request first transfer
	udd_ep_trans_done(ep);
80003080:	0c 9c       	mov	r12,r6
80003082:	f0 1f 00 05 	mcall	80003094 <udd_ep_run+0x98>
80003086:	e3 cf 90 e0 	ldm	sp++,r5-r7,pc,r12=1
	return true;
8000308a:	e3 cf 80 e0 	ldm	sp++,r5-r7,pc,r12=0
8000308e:	00 00       	add	r0,r0
80003090:	00 00       	add	r0,r0
80003092:	06 bc       	st.h	r3++,r12
80003094:	80 00       	ld.sh	r0,r0[0x0]
80003096:	2e a4       	sub	r4,-22

80003098 <udd_attach>:
	cpu_irq_restore(flags);
}


void udd_attach(void)
{
80003098:	eb cd 40 80 	pushm	r7,lr

static inline irqflags_t cpu_irq_save(void)
{
	irqflags_t flags;

	flags = sysreg_read(AVR32_SR);
8000309c:	e1 b7 00 00 	mfsr	r7,0x0
	cpu_irq_disable();
800030a0:	d3 03       	ssrf	0x10
	irqflags_t flags;
	flags = cpu_irq_save();

	// At startup the USB bus state is unknown,
	// therefore the state is considered IDLE to not miss any USB event
	udd_sleep_mode(true);
800030a2:	30 1c       	mov	r12,1
800030a4:	f0 1f 00 19 	mcall	80003108 <udd_attach+0x70>
	otg_unfreeze_clock();
800030a8:	fe 68 08 00 	mov	r8,-129024
800030ac:	70 09       	ld.w	r9,r8[0x0]
800030ae:	af c9       	cbr	r9,0xe
800030b0:	91 09       	st.w	r8[0x0],r9
	while( !Is_otg_clock_usable() );
800030b2:	fe 68 08 04 	mov	r8,-129020
800030b6:	70 09       	ld.w	r9,r8[0x0]
800030b8:	e2 19 40 00 	andl	r9,0x4000,COH
800030bc:	cf d0       	breq	800030b6 <udd_attach+0x1e>

	// Authorize attach if Vbus is present
	udd_attach_device();
800030be:	fe 68 00 00 	mov	r8,-131072
800030c2:	70 09       	ld.w	r9,r8[0x0]
800030c4:	a9 c9       	cbr	r9,0x8
800030c6:	91 09       	st.w	r8[0x0],r9

	// Enable USB line events
	udd_enable_reset_interrupt();
800030c8:	fe 68 00 18 	mov	r8,-131048
800030cc:	30 8c       	mov	r12,8
800030ce:	91 0c       	st.w	r8[0x0],r12
	udd_enable_suspend_interrupt();
800030d0:	30 1a       	mov	r10,1
800030d2:	91 0a       	st.w	r8[0x0],r10
	udd_enable_wake_up_interrupt();
800030d4:	31 09       	mov	r9,16
800030d6:	91 09       	st.w	r8[0x0],r9
	udd_enable_sof_interrupt();
800030d8:	30 4b       	mov	r11,4
800030da:	91 0b       	st.w	r8[0x0],r11
#ifdef USB_DEVICE_HS_SUPPORT
	udd_enable_msof_interrupt();
#endif
	// Reset following interrupts flag
	udd_ack_reset();
800030dc:	fe 68 00 08 	mov	r8,-131064
800030e0:	91 0c       	st.w	r8[0x0],r12
	udd_ack_sof();
800030e2:	91 0b       	st.w	r8[0x0],r11
	udd_ack_msof();
800030e4:	30 2b       	mov	r11,2
800030e6:	91 0b       	st.w	r8[0x0],r11
#if UC3A3
	// With UTMI, the first suspend is detected but must be cleared to reoccur interrupt
	udd_ack_suspend();
#else
	// The first suspend interrupt is not detected else raise it
	udd_raise_suspend();
800030e8:	fe 6b 00 0c 	mov	r11,-131060
800030ec:	97 0a       	st.w	r11[0x0],r10
#endif
	udd_ack_wake_up();
800030ee:	91 09       	st.w	r8[0x0],r9
	otg_freeze_clock();
800030f0:	fe 68 08 00 	mov	r8,-129024
800030f4:	70 09       	ld.w	r9,r8[0x0]
800030f6:	af a9       	sbr	r9,0xe
800030f8:	91 09       	st.w	r8[0x0],r9
static inline void cpu_irq_restore(irqflags_t flags)
{
	barrier();

   /* Restore the global IRQ mask status flag if it was previously set */
   if ( cpu_irq_is_enabled_flags(flags) ) {
800030fa:	e6 17 00 01 	andh	r7,0x1,COH
800030fe:	c0 21       	brne	80003102 <udd_attach+0x6a>
      cpu_irq_enable();
80003100:	d5 03       	csrf	0x10
	cpu_irq_restore(flags);
}
80003102:	e3 cd 80 80 	ldm	sp++,r7,pc
80003106:	00 00       	add	r0,r0
80003108:	80 00       	ld.sh	r0,r0[0x0]
8000310a:	2b 4c       	sub	r12,-76

8000310c <udd_ctrl_send_zlp_in>:

static void udd_ctrl_send_zlp_in(void)
{
	irqflags_t flags;

	udd_ep_control_state = UDD_EPCTRL_HANDSHAKE_WAIT_IN_ZLP;
8000310c:	30 39       	mov	r9,3
8000310e:	48 b8       	lddpc	r8,80003138 <udd_ctrl_send_zlp_in+0x2c>
80003110:	91 09       	st.w	r8[0x0],r9

static inline irqflags_t cpu_irq_save(void)
{
	irqflags_t flags;

	flags = sysreg_read(AVR32_SR);
80003112:	e1 bb 00 00 	mfsr	r11,0x0
	cpu_irq_disable();
80003116:	d3 03       	ssrf	0x10

	// Validate and send empty IN packet on control endpoint
	flags = cpu_irq_save();
	// Send ZLP on IN endpoint
	udd_ack_in_send(0);
80003118:	fe 6a 01 60 	mov	r10,-130720
8000311c:	30 19       	mov	r9,1
8000311e:	95 09       	st.w	r10[0x0],r9
	udd_enable_in_send_interrupt(0);
80003120:	fe 68 01 f0 	mov	r8,-130576
80003124:	91 09       	st.w	r8[0x0],r9
	// To detect a protocol error, enable nak interrupt on data OUT phase
	udd_ack_nak_out(0);
80003126:	30 89       	mov	r9,8
80003128:	95 09       	st.w	r10[0x0],r9
	udd_enable_nak_out_interrupt(0);
8000312a:	91 09       	st.w	r8[0x0],r9
static inline void cpu_irq_restore(irqflags_t flags)
{
	barrier();

   /* Restore the global IRQ mask status flag if it was previously set */
   if ( cpu_irq_is_enabled_flags(flags) ) {
8000312c:	16 98       	mov	r8,r11
8000312e:	e6 18 00 01 	andh	r8,0x1,COH
80003132:	c0 21       	brne	80003136 <udd_ctrl_send_zlp_in+0x2a>
      cpu_irq_enable();
80003134:	d5 03       	csrf	0x10
	cpu_irq_restore(flags);
}
80003136:	5e fc       	retal	r12
80003138:	00 00       	add	r0,r0
8000313a:	07 00       	ld.w	r0,r3++

8000313c <udd_ctrl_init>:

static inline irqflags_t cpu_irq_save(void)
{
	irqflags_t flags;

	flags = sysreg_read(AVR32_SR);
8000313c:	e1 b8 00 00 	mfsr	r8,0x0
	cpu_irq_disable();
80003140:	d3 03       	ssrf	0x10
	// In case of abort of IN Data Phase:
	// No need to abort IN transfer (rise TXINI),
	// because it is automatically done by hardware when a Setup packet is received.
	// But the interrupt must be disabled to don't generate interrupt TXINI
	// after SETUP reception.
	udd_disable_in_send_interrupt(0);
80003142:	30 1a       	mov	r10,1
80003144:	fe 69 02 20 	mov	r9,-130528
80003148:	93 0a       	st.w	r9[0x0],r10
static inline void cpu_irq_restore(irqflags_t flags)
{
	barrier();

   /* Restore the global IRQ mask status flag if it was previously set */
   if ( cpu_irq_is_enabled_flags(flags) ) {
8000314a:	e6 18 00 01 	andh	r8,0x1,COH
8000314e:	c0 21       	brne	80003152 <udd_ctrl_init+0x16>
      cpu_irq_enable();
80003150:	d5 03       	csrf	0x10
	cpu_irq_restore(flags);

	// In case of OUT ZLP event is no processed before Setup event occurs
	udd_ack_out_received(0);
80003152:	30 29       	mov	r9,2
80003154:	fe 68 01 60 	mov	r8,-130720
80003158:	91 09       	st.w	r8[0x0],r9

	udd_g_ctrlreq.callback = NULL;
8000315a:	48 59       	lddpc	r9,8000316c <udd_ctrl_init+0x30>
8000315c:	30 08       	mov	r8,0
8000315e:	93 48       	st.w	r9[0x10],r8
	udd_g_ctrlreq.over_under_run = NULL;
80003160:	93 58       	st.w	r9[0x14],r8
	udd_g_ctrlreq.payload_size = 0;
80003162:	b2 68       	st.h	r9[0xc],r8
	udd_ep_control_state = UDD_EPCTRL_SETUP;
80003164:	48 39       	lddpc	r9,80003170 <udd_ctrl_init+0x34>
80003166:	93 08       	st.w	r9[0x0],r8
}
80003168:	5e fc       	retal	r12
8000316a:	00 00       	add	r0,r0
8000316c:	00 00       	add	r0,r0
8000316e:	0f 64       	ld.uh	r4,--r7
80003170:	00 00       	add	r0,r0
80003172:	07 00       	ld.w	r0,r3++

80003174 <udd_ctrl_in_sent>:
	}
}


static void udd_ctrl_in_sent(void)
{
80003174:	eb cd 40 80 	pushm	r7,lr

static inline irqflags_t cpu_irq_save(void)
{
	irqflags_t flags;

	flags = sysreg_read(AVR32_SR);
80003178:	e1 b8 00 00 	mfsr	r8,0x0
	cpu_irq_disable();
8000317c:	d3 03       	ssrf	0x10
	uint8_t i;
	uint8_t *ptr_dest, *ptr_src;
	irqflags_t flags;

	flags = cpu_irq_save();
	udd_disable_in_send_interrupt(0);
8000317e:	30 1a       	mov	r10,1
80003180:	fe 69 02 20 	mov	r9,-130528
80003184:	93 0a       	st.w	r9[0x0],r10
static inline void cpu_irq_restore(irqflags_t flags)
{
	barrier();

   /* Restore the global IRQ mask status flag if it was previously set */
   if ( cpu_irq_is_enabled_flags(flags) ) {
80003186:	e6 18 00 01 	andh	r8,0x1,COH
8000318a:	c0 21       	brne	8000318e <udd_ctrl_in_sent+0x1a>
      cpu_irq_enable();
8000318c:	d5 03       	csrf	0x10
	cpu_irq_restore(flags);

	if (UDD_EPCTRL_HANDSHAKE_WAIT_IN_ZLP == udd_ep_control_state) {
8000318e:	4c 38       	lddpc	r8,80003298 <udd_ctrl_in_sent+0x124>
80003190:	70 08       	ld.w	r8,r8[0x0]
80003192:	58 38       	cp.w	r8,3
80003194:	c0 71       	brne	800031a2 <udd_ctrl_in_sent+0x2e>
		// ZLP on IN is sent, then valid end of setup request
		udd_ctrl_endofrequest();
80003196:	f0 1f 00 42 	mcall	8000329c <udd_ctrl_in_sent+0x128>
		// Reinitializes control endpoint management
		udd_ctrl_init();
8000319a:	f0 1f 00 42 	mcall	800032a0 <udd_ctrl_in_sent+0x12c>
		return;
8000319e:	e3 cd 80 80 	ldm	sp++,r7,pc
	}
	Assert(udd_ep_control_state == UDD_EPCTRL_DATA_IN);

	nb_remain = udd_g_ctrlreq.payload_size - udd_ctrl_payload_nb_trans;
800031a2:	4c 18       	lddpc	r8,800032a4 <udd_ctrl_in_sent+0x130>
800031a4:	90 08       	ld.sh	r8,r8[0x0]
800031a6:	4c 19       	lddpc	r9,800032a8 <udd_ctrl_in_sent+0x134>
800031a8:	92 67       	ld.sh	r7,r9[0xc]
800031aa:	10 17       	sub	r7,r8
800031ac:	5c 87       	casts.h	r7
	if (0 == nb_remain) {
800031ae:	c3 01       	brne	8000320e <udd_ctrl_in_sent+0x9a>
		// All content of current buffer payload are sent
		// Update number of total data sending by previous payload buffer
		udd_ctrl_prev_payload_nb_trans += udd_ctrl_payload_nb_trans;
800031b0:	4b f9       	lddpc	r9,800032ac <udd_ctrl_in_sent+0x138>
800031b2:	92 0a       	ld.sh	r10,r9[0x0]
800031b4:	f4 08 00 08 	add	r8,r10,r8
800031b8:	b2 08       	st.h	r9[0x0],r8
		if ((udd_g_ctrlreq.req.wLength == udd_ctrl_prev_payload_nb_trans)
800031ba:	4b c9       	lddpc	r9,800032a8 <udd_ctrl_in_sent+0x134>
800031bc:	92 39       	ld.sh	r9,r9[0x6]
800031be:	f0 09 19 00 	cp.h	r9,r8
800031c2:	c0 70       	breq	800031d0 <udd_ctrl_in_sent+0x5c>
800031c4:	4b b8       	lddpc	r8,800032b0 <udd_ctrl_in_sent+0x13c>
800031c6:	11 89       	ld.ub	r9,r8[0x0]
800031c8:	30 08       	mov	r8,0
800031ca:	f0 09 18 00 	cp.b	r9,r8
800031ce:	c1 50       	breq	800031f8 <udd_ctrl_in_sent+0x84>

static void udd_ctrl_send_zlp_out(void)
{
	irqflags_t flags;

	udd_ep_control_state = UDD_EPCTRL_HANDSHAKE_WAIT_OUT_ZLP;
800031d0:	30 49       	mov	r9,4
800031d2:	4b 28       	lddpc	r8,80003298 <udd_ctrl_in_sent+0x124>
800031d4:	91 09       	st.w	r8[0x0],r9

static inline irqflags_t cpu_irq_save(void)
{
	irqflags_t flags;

	flags = sysreg_read(AVR32_SR);
800031d6:	e1 b9 00 00 	mfsr	r9,0x0
	cpu_irq_disable();
800031da:	d3 03       	ssrf	0x10
	// No action is necessary to accept OUT ZLP
	// because the buffer of control endpoint is already free

	// To detect a protocol error, enable nak interrupt on data IN phase
	flags = cpu_irq_save();
	udd_ack_nak_in(0);
800031dc:	31 08       	mov	r8,16
800031de:	fe 6a 01 60 	mov	r10,-130720
800031e2:	95 08       	st.w	r10[0x0],r8
	udd_enable_nak_in_interrupt(0);
800031e4:	fe 6a 01 f0 	mov	r10,-130576
800031e8:	95 08       	st.w	r10[0x0],r8
static inline void cpu_irq_restore(irqflags_t flags)
{
	barrier();

   /* Restore the global IRQ mask status flag if it was previously set */
   if ( cpu_irq_is_enabled_flags(flags) ) {
800031ea:	12 98       	mov	r8,r9
800031ec:	e6 18 00 01 	andh	r8,0x1,COH
800031f0:	c0 21       	brne	800031f4 <udd_ctrl_in_sent+0x80>
      cpu_irq_enable();
800031f2:	d5 03       	csrf	0x10
					|| b_shortpacket) {
			// All data requested are transfered or a short packet has been sent
			// then it is the end of data phase.
			// Generate an OUT ZLP for handshake phase.
			udd_ctrl_send_zlp_out();
			return;
800031f4:	e3 cd 80 80 	ldm	sp++,r7,pc
		}
		// Need of new buffer because the data phase is not complete
		if ((!udd_g_ctrlreq.over_under_run)
800031f8:	4a c8       	lddpc	r8,800032a8 <udd_ctrl_in_sent+0x134>
800031fa:	70 5c       	ld.w	r12,r8[0x14]
800031fc:	58 0c       	cp.w	r12,0
800031fe:	c1 20       	breq	80003222 <udd_ctrl_in_sent+0xae>
80003200:	5d 1c       	icall	r12
80003202:	c1 00       	breq	80003222 <udd_ctrl_in_sent+0xae>
				|| (!udd_g_ctrlreq.over_under_run())) {
			// Underrun then send zlp on IN
			// Here nb_remain=0 and allows to send a IN ZLP
		} else {
			// A new payload buffer is given
			udd_ctrl_payload_nb_trans = 0;
80003204:	30 09       	mov	r9,0
80003206:	4a 88       	lddpc	r8,800032a4 <udd_ctrl_in_sent+0x130>
80003208:	b0 09       	st.h	r8[0x0],r9
			nb_remain = udd_g_ctrlreq.payload_size;
8000320a:	4a 88       	lddpc	r8,800032a8 <udd_ctrl_in_sent+0x134>
8000320c:	90 67       	ld.sh	r7,r8[0xc]
		}
	}
	// Continue transfer and send next data
	if (nb_remain >= USB_DEVICE_EP_CTRL_SIZE) {
8000320e:	33 f8       	mov	r8,63
80003210:	f0 07 19 00 	cp.h	r7,r8
80003214:	e0 88 00 07 	brls	80003222 <udd_ctrl_in_sent+0xae>
		nb_remain = USB_DEVICE_EP_CTRL_SIZE;
		b_shortpacket = false;
80003218:	30 09       	mov	r9,0
8000321a:	4a 68       	lddpc	r8,800032b0 <udd_ctrl_in_sent+0x13c>
8000321c:	b0 89       	st.b	r8[0x0],r9
8000321e:	34 07       	mov	r7,64
80003220:	c0 48       	rjmp	80003228 <udd_ctrl_in_sent+0xb4>
	} else {
		b_shortpacket = true;
80003222:	30 19       	mov	r9,1
80003224:	4a 38       	lddpc	r8,800032b0 <udd_ctrl_in_sent+0x13c>
80003226:	b0 89       	st.b	r8[0x0],r9
	}
	// Fill buffer of endpoint control
	ptr_dest = (uint8_t *) & udd_get_endpoint_fifo_access(0, 8);
	ptr_src = udd_g_ctrlreq.payload + udd_ctrl_payload_nb_trans;
80003228:	4a 08       	lddpc	r8,800032a8 <udd_ctrl_in_sent+0x134>
8000322a:	70 2a       	ld.w	r10,r8[0x8]
8000322c:	49 e8       	lddpc	r8,800032a4 <udd_ctrl_in_sent+0x130>
8000322e:	90 09       	ld.sh	r9,r8[0x0]

static inline irqflags_t cpu_irq_save(void)
{
	irqflags_t flags;

	flags = sysreg_read(AVR32_SR);
80003230:	e1 bb 00 00 	mfsr	r11,0x0
	cpu_irq_disable();
80003234:	d3 03       	ssrf	0x10
	// a next setup reception in same endpoint 0 DPRAM.
	// Thereby, an OUT ZLP reception must check before IN data write
	// and if no OUT ZLP is received the data must be written quickly (800us)
	// before an eventually ZLP OUT and SETUP reception
	flags = cpu_irq_save();
	if (Is_udd_out_received(0)) {
80003236:	fe 68 01 30 	mov	r8,-130768
8000323a:	70 08       	ld.w	r8,r8[0x0]
8000323c:	e2 18 00 02 	andl	r8,0x2,COH
80003240:	c0 41       	brne	80003248 <udd_ctrl_in_sent+0xd4>
		cpu_irq_restore(flags);
		udd_ep_control_state = UDD_EPCTRL_HANDSHAKE_WAIT_OUT_ZLP;
		return; // Exit of IN DATA phase
	}
	// Write quickly the IN data
	for (i = 0; i < nb_remain; i++) {
80003242:	58 07       	cp.w	r7,0
80003244:	c0 b1       	brne	8000325a <udd_ctrl_in_sent+0xe6>
80003246:	c1 78       	rjmp	80003274 <udd_ctrl_in_sent+0x100>
static inline void cpu_irq_restore(irqflags_t flags)
{
	barrier();

   /* Restore the global IRQ mask status flag if it was previously set */
   if ( cpu_irq_is_enabled_flags(flags) ) {
80003248:	e6 1b 00 01 	andh	r11,0x1,COH
8000324c:	c0 21       	brne	80003250 <udd_ctrl_in_sent+0xdc>
      cpu_irq_enable();
8000324e:	d5 03       	csrf	0x10
	// before an eventually ZLP OUT and SETUP reception
	flags = cpu_irq_save();
	if (Is_udd_out_received(0)) {
		// IN DATA phase aborted by OUT ZLP
		cpu_irq_restore(flags);
		udd_ep_control_state = UDD_EPCTRL_HANDSHAKE_WAIT_OUT_ZLP;
80003250:	30 49       	mov	r9,4
80003252:	49 28       	lddpc	r8,80003298 <udd_ctrl_in_sent+0x124>
80003254:	91 09       	st.w	r8[0x0],r9
		return; // Exit of IN DATA phase
80003256:	e3 cd 80 80 	ldm	sp++,r7,pc
	} else {
		b_shortpacket = true;
	}
	// Fill buffer of endpoint control
	ptr_dest = (uint8_t *) & udd_get_endpoint_fifo_access(0, 8);
	ptr_src = udd_g_ctrlreq.payload + udd_ctrl_payload_nb_trans;
8000325a:	5c 79       	castu.h	r9
8000325c:	f4 09 00 09 	add	r9,r10,r9
80003260:	30 08       	mov	r8,0
80003262:	ea 18 d0 00 	orh	r8,0xd000
		udd_ep_control_state = UDD_EPCTRL_HANDSHAKE_WAIT_OUT_ZLP;
		return; // Exit of IN DATA phase
	}
	// Write quickly the IN data
	for (i = 0; i < nb_remain; i++) {
		*ptr_dest++ = *ptr_src++;
80003266:	13 3a       	ld.ub	r10,r9++
80003268:	10 ca       	st.b	r8++,r10
		cpu_irq_restore(flags);
		udd_ep_control_state = UDD_EPCTRL_HANDSHAKE_WAIT_OUT_ZLP;
		return; // Exit of IN DATA phase
	}
	// Write quickly the IN data
	for (i = 0; i < nb_remain; i++) {
8000326a:	f5 d8 c0 08 	bfextu	r10,r8,0x0,0x8
8000326e:	ee 0a 19 00 	cp.h	r10,r7
80003272:	cf a3       	brcs	80003266 <udd_ctrl_in_sent+0xf2>
		*ptr_dest++ = *ptr_src++;
	}
	udd_ctrl_payload_nb_trans += nb_remain;
80003274:	48 c8       	lddpc	r8,800032a4 <udd_ctrl_in_sent+0x130>
80003276:	90 09       	ld.sh	r9,r8[0x0]
80003278:	f2 07 00 07 	add	r7,r9,r7
8000327c:	b0 07       	st.h	r8[0x0],r7

	// Validate and send the data available in the control endpoint buffer
	udd_ack_in_send(0);
8000327e:	30 18       	mov	r8,1
80003280:	fe 69 01 60 	mov	r9,-130720
80003284:	93 08       	st.w	r9[0x0],r8
	udd_enable_in_send_interrupt(0);
80003286:	fe 69 01 f0 	mov	r9,-130576
8000328a:	93 08       	st.w	r9[0x0],r8
static inline void cpu_irq_restore(irqflags_t flags)
{
	barrier();

   /* Restore the global IRQ mask status flag if it was previously set */
   if ( cpu_irq_is_enabled_flags(flags) ) {
8000328c:	e6 1b 00 01 	andh	r11,0x1,COH
80003290:	c0 21       	brne	80003294 <udd_ctrl_in_sent+0x120>
      cpu_irq_enable();
80003292:	d5 03       	csrf	0x10
   }

	barrier();
80003294:	e3 cd 80 80 	ldm	sp++,r7,pc
80003298:	00 00       	add	r0,r0
8000329a:	07 00       	ld.w	r0,r3++
8000329c:	80 00       	ld.sh	r0,r0[0x0]
8000329e:	2d 70       	sub	r0,-41
800032a0:	80 00       	ld.sh	r0,r0[0x0]
800032a2:	31 3c       	mov	r12,19
800032a4:	00 00       	add	r0,r0
800032a6:	06 fa       	st.b	--r3,r10
800032a8:	00 00       	add	r0,r0
800032aa:	0f 64       	ld.uh	r4,--r7
800032ac:	00 00       	add	r0,r0
800032ae:	06 b8       	st.h	r3++,r8
800032b0:	00 00       	add	r0,r0
800032b2:	06 fc       	st.b	--r3,r12

800032b4 <udd_ep_alloc>:


#if (0!=USB_DEVICE_MAX_EP)
bool udd_ep_alloc(udd_ep_id_t ep, uint8_t bmAttributes,
		uint16_t MaxEndpointSize)
{
800032b4:	d4 31       	pushm	r0-r7,lr
	bool b_dir_in;
	uint16_t ep_allocated;
	uint8_t bank, i;

	b_dir_in = ep & USB_EP_DIR_IN;
	ep = ep & USB_EP_ADDR_MASK;
800032b6:	ef dc c0 04 	bfextu	r7,r12,0x0,0x4

	if (ep > USB_DEVICE_MAX_EP) {
800032ba:	30 38       	mov	r8,3
800032bc:	f0 07 18 00 	cp.b	r7,r8
800032c0:	e0 8b 00 ae 	brhi	8000341c <udd_ep_alloc+0x168>
		return false;
	}
	if (Is_udd_endpoint_enabled(ep)) {
800032c4:	fe 68 00 00 	mov	r8,-131072
800032c8:	70 78       	ld.w	r8,r8[0x1c]
800032ca:	30 15       	mov	r5,1
800032cc:	ea 07 09 45 	lsl	r5,r5,r7
800032d0:	eb e8 00 08 	and	r8,r5,r8
800032d4:	e0 81 00 a4 	brne	8000341c <udd_ep_alloc+0x168>
		return false;
	}

	// Bank choice
	switch(bmAttributes&USB_EP_TYPE_MASK) {
800032d8:	f1 db c0 02 	bfextu	r8,r11,0x0,0x2
800032dc:	58 18       	cp.w	r8,1
800032de:	e0 85 00 9f 	brlt	8000341c <udd_ep_alloc+0x168>
800032e2:	58 28       	cp.w	r8,2
800032e4:	e0 8a 00 07 	brle	800032f2 <udd_ep_alloc+0x3e>
800032e8:	58 38       	cp.w	r8,3
800032ea:	e0 81 00 99 	brne	8000341c <udd_ep_alloc+0x168>
800032ee:	30 09       	mov	r9,0
800032f0:	c0 28       	rjmp	800032f4 <udd_ep_alloc+0x40>
800032f2:	30 19       	mov	r9,1
	Assert(MaxEndpointSize < 1024);
	Assert((MaxEndpointSize == 1023) || !(MaxEndpointSize & (MaxEndpointSize - 1)));
	Assert(MaxEndpointSize >= 8);

	// Set configuration of new endpoint
	udd_configure_endpoint(ep, bmAttributes, (b_dir_in ? 1 : 0),
800032f4:	ee 08 15 02 	lsl	r8,r7,0x2
800032f8:	e0 38 ff 00 	sub	r8,130816
800032fc:	70 0e       	ld.w	lr,r8[0x0]
800032fe:	5c 7a       	castu.h	r10
80003300:	30 86       	mov	r6,8
80003302:	f4 06 0c 4a 	max	r10,r10,r6
80003306:	e0 66 04 00 	mov	r6,1024
8000330a:	f4 06 0d 4a 	min	r10,r10,r6
8000330e:	a1 7a       	lsl	r10,0x1
80003310:	20 1a       	sub	r10,1
80003312:	f4 0a 12 00 	clz	r10,r10
80003316:	f9 dc c0 e1 	bfextu	r12,r12,0x7,0x1
8000331a:	ab 7b       	lsl	r11,0xb
8000331c:	e2 1b 18 00 	andl	r11,0x1800,COH
80003320:	f7 ec 10 8b 	or	r11,r11,r12<<0x8
80003324:	f4 0c 11 1c 	rsub	r12,r10,28
80003328:	f7 ec 10 4c 	or	r12,r11,r12<<0x4
8000332c:	f9 e9 10 29 	or	r9,r12,r9<<0x2
80003330:	e2 19 19 7c 	andl	r9,0x197c,COH
80003334:	1c 9a       	mov	r10,lr
80003336:	e0 1a e6 83 	andl	r10,0xe683
8000333a:	14 49       	or	r9,r10
8000333c:	91 09       	st.w	r8[0x0],r9
			MaxEndpointSize, bank);
	ep_allocated = 1 << ep;
8000333e:	5c 85       	casts.h	r5

	// Unalloc endpoints superior
	for (i = USB_DEVICE_MAX_EP; i > ep; i--) {
80003340:	30 28       	mov	r8,2
80003342:	f0 07 18 00 	cp.b	r7,r8
80003346:	e0 8b 00 1d 	brhi	80003380 <udd_ep_alloc+0xcc>
8000334a:	fe 69 01 0c 	mov	r9,-130804
8000334e:	30 38       	mov	r8,3
		if (Is_udd_endpoint_enabled(i)) {
80003350:	fe 6b 00 00 	mov	r11,-131072
80003354:	30 1e       	mov	lr,1
80003356:	76 7c       	ld.w	r12,r11[0x1c]
80003358:	fc 08 09 4a 	lsl	r10,lr,r8
8000335c:	f5 ec 00 0c 	and	r12,r10,r12
80003360:	c0 b0       	breq	80003376 <udd_ep_alloc+0xc2>
			ep_allocated |= 1 << i;
80003362:	f5 e5 10 05 	or	r5,r10,r5
80003366:	5c 85       	casts.h	r5
			udd_disable_endpoint(i);
80003368:	76 7c       	ld.w	r12,r11[0x1c]
8000336a:	5c da       	com	r10
8000336c:	18 6a       	and	r10,r12
8000336e:	97 7a       	st.w	r11[0x1c],r10
			udd_unallocate_memory(i);
80003370:	72 0a       	ld.w	r10,r9[0x0]
80003372:	a1 da       	cbr	r10,0x1
80003374:	93 0a       	st.w	r9[0x0],r10
80003376:	20 18       	sub	r8,1
80003378:	20 49       	sub	r9,4
	udd_configure_endpoint(ep, bmAttributes, (b_dir_in ? 1 : 0),
			MaxEndpointSize, bank);
	ep_allocated = 1 << ep;

	// Unalloc endpoints superior
	for (i = USB_DEVICE_MAX_EP; i > ep; i--) {
8000337a:	f0 07 18 00 	cp.b	r7,r8
8000337e:	ce c3       	brcs	80003356 <udd_ep_alloc+0xa2>
		}
	}

	// Realloc/Enable endpoints
	for (i = ep; i <= USB_DEVICE_MAX_EP; i++) {
		if (ep_allocated & (1 << i)) {
80003380:	5c 75       	castu.h	r5
			udd_ep_job_t *ptr_job = &udd_ep_job[i - 1];
80003382:	4a 83       	lddpc	r3,80003420 <udd_ep_alloc+0x16c>
			bool b_restart = ptr_job->busy;
			ptr_job->busy = false;
80003384:	30 02       	mov	r2,0

			udd_allocate_memory(i);
			udd_enable_endpoint(i);
80003386:	fe 64 00 00 	mov	r4,-131072
8000338a:	30 11       	mov	r1,1
			udd_unallocate_memory(i);
		}
	}

	// Realloc/Enable endpoints
	for (i = ep; i <= USB_DEVICE_MAX_EP; i++) {
8000338c:	30 36       	mov	r6,3
		if (ep_allocated & (1 << i)) {
8000338e:	0e 9c       	mov	r12,r7
80003390:	ea 07 08 48 	asr	r8,r5,r7
80003394:	f1 d8 c0 01 	bfextu	r8,r8,0x0,0x1
80003398:	c3 b0       	breq	8000340e <udd_ep_alloc+0x15a>
			udd_ep_job_t *ptr_job = &udd_ep_job[i - 1];
8000339a:	ee ce 00 01 	sub	lr,r7,1
8000339e:	fc 0e 00 2e 	add	lr,lr,lr<<0x2
800033a2:	e6 0e 00 2e 	add	lr,r3,lr<<0x2
			bool b_restart = ptr_job->busy;
800033a6:	7c 0a       	ld.w	r10,lr[0x0]
			ptr_job->busy = false;
800033a8:	14 98       	mov	r8,r10
800033aa:	f1 d2 d3 e1 	bfins	r8,r2,0x1f,0x1
800033ae:	9d 08       	st.w	lr[0x0],r8

			udd_allocate_memory(i);
800033b0:	ee 08 15 02 	lsl	r8,r7,0x2
800033b4:	fe 6b 01 00 	mov	r11,-130816
800033b8:	f0 0b 00 09 	add	r9,r8,r11
800033bc:	72 0b       	ld.w	r11,r9[0x0]
800033be:	a1 bb       	sbr	r11,0x1
800033c0:	93 0b       	st.w	r9[0x0],r11
			udd_enable_endpoint(i);
800033c2:	68 7b       	ld.w	r11,r4[0x1c]
800033c4:	e2 07 09 40 	lsl	r0,r1,r7
800033c8:	e1 eb 10 0b 	or	r11,r0,r11
800033cc:	89 7b       	st.w	r4[0x1c],r11
			if (!Is_udd_endpoint_configured(i)) {
800033ce:	e0 38 fe d0 	sub	r8,130768
800033d2:	70 08       	ld.w	r8,r8[0x0]
800033d4:	e6 18 00 04 	andh	r8,0x4,COH
800033d8:	c0 e1       	brne	800033f4 <udd_ep_alloc+0x140>
				if (NULL == ptr_job->call_trans) {
800033da:	7c 48       	ld.w	r8,lr[0x10]
800033dc:	58 08       	cp.w	r8,0
800033de:	c1 f0       	breq	8000341c <udd_ep_alloc+0x168>
					return false;
				}
				if (Is_udd_endpoint_in(i)) {
800033e0:	72 09       	ld.w	r9,r9[0x0]
800033e2:	e2 19 01 00 	andl	r9,0x100,COH
800033e6:	c0 20       	breq	800033ea <udd_ep_alloc+0x136>
					i |= USB_EP_DIR_IN;
800033e8:	a7 b7       	sbr	r7,0x7
				}				
				ptr_job->call_trans(UDD_EP_TRANSFER_ABORT,
800033ea:	0e 9a       	mov	r10,r7
800033ec:	7c 2b       	ld.w	r11,lr[0x8]
800033ee:	30 1c       	mov	r12,1
800033f0:	5d 18       	icall	r8
800033f2:	d8 3a       	popm	r0-r7,pc,r12=0
						ptr_job->buf_size, i);
				return false;
			}
			udd_enable_endpoint_bank_autoswitch(i);
800033f4:	72 08       	ld.w	r8,r9[0x0]
800033f6:	a9 b8       	sbr	r8,0x9
800033f8:	93 08       	st.w	r9[0x0],r8
			if (b_restart) {
800033fa:	58 0a       	cp.w	r10,0
800033fc:	c0 94       	brge	8000340e <udd_ep_alloc+0x15a>
				// Re-run the job
				udd_ep_run(i, ptr_job->b_shortpacket,
800033fe:	7c 0b       	ld.w	r11,lr[0x0]
80003400:	7c 48       	ld.w	r8,lr[0x10]
80003402:	7c 29       	ld.w	r9,lr[0x8]
80003404:	7c 1a       	ld.w	r10,lr[0x4]
80003406:	f7 db c3 c1 	bfextu	r11,r11,0x1e,0x1
8000340a:	f0 1f 00 07 	mcall	80003424 <udd_ep_alloc+0x170>
			udd_unallocate_memory(i);
		}
	}

	// Realloc/Enable endpoints
	for (i = ep; i <= USB_DEVICE_MAX_EP; i++) {
8000340e:	2f f7       	sub	r7,-1
80003410:	5c 57       	castu.b	r7
80003412:	ec 07 18 00 	cp.b	r7,r6
80003416:	fe 98 ff bc 	brls	8000338e <udd_ep_alloc+0xda>
8000341a:	da 3a       	popm	r0-r7,pc,r12=1
8000341c:	d8 3a       	popm	r0-r7,pc,r12=0
8000341e:	00 00       	add	r0,r0
80003420:	00 00       	add	r0,r0
80003422:	06 bc       	st.h	r3++,r12
80003424:	80 00       	ld.sh	r0,r0[0x0]
80003426:	2f fc       	sub	r12,-1

80003428 <udd_enable>:
	return true;
}


void udd_enable(void)
{
80003428:	eb cd 40 80 	pushm	r7,lr

static inline irqflags_t cpu_irq_save(void)
{
	irqflags_t flags;

	flags = sysreg_read(AVR32_SR);
8000342c:	e1 b7 00 00 	mfsr	r7,0x0
	cpu_irq_disable();
80003430:	d3 03       	ssrf	0x10
		cpu_irq_restore(flags);
		return;
	}
#else
	//* SINGLE DEVICE MODE INITIALIZATION
	sysclk_enable_usb();
80003432:	f0 1f 00 2f 	mcall	800034ec <udd_enable+0xc4>

	// Here, only the device mode is possible, then link USBB interrupt to UDD interrupt
	irq_register_handler(
80003436:	30 0a       	mov	r10,0
80003438:	e0 6b 02 20 	mov	r11,544
8000343c:	4a dc       	lddpc	r12,800034f0 <udd_enable+0xc8>
8000343e:	f0 1f 00 2e 	mcall	800034f4 <udd_enable+0xcc>
 *  AVR32_PM_AWEN_xxxxWEN_MASK in the part-specific header file under
 *  "toolchain folder"/avr32/inc(lude)/avr32/)
 */
__always_inline static void pm_asyn_wake_up_enable(unsigned long awen_mask)
{
  AVR32_PM.awen |= awen_mask;
80003442:	fe 78 0c 00 	mov	r8,-62464
80003446:	f0 f9 01 44 	ld.w	r9,r8[324]
8000344a:	a1 a9       	sbr	r9,0x0
8000344c:	f1 49 01 44 	st.w	r8[324],r9
		cpu_irq_restore(flags);
		return; // Device is not the current mode
	}
# else
	// ID pin not used then force device mode
	otg_disable_id_pin();
80003450:	fe 68 08 00 	mov	r8,-129024
80003454:	70 09       	ld.w	r9,r8[0x0]
80003456:	b9 c9       	cbr	r9,0x18
80003458:	91 09       	st.w	r8[0x0],r9
	otg_force_device_mode();
8000345a:	70 09       	ld.w	r9,r8[0x0]
8000345c:	b9 b9       	sbr	r9,0x19
8000345e:	91 09       	st.w	r8[0x0],r9
# endif

	// Enable USB hardware
	otg_enable_pad();
80003460:	70 09       	ld.w	r9,r8[0x0]
80003462:	ad a9       	sbr	r9,0xc
80003464:	91 09       	st.w	r8[0x0],r9
	otg_enable();
80003466:	70 09       	ld.w	r9,r8[0x0]
80003468:	af b9       	sbr	r9,0xf
8000346a:	91 09       	st.w	r8[0x0],r9
	otg_unfreeze_clock();
8000346c:	70 09       	ld.w	r9,r8[0x0]
8000346e:	af c9       	cbr	r9,0xe
80003470:	91 09       	st.w	r8[0x0],r9
	(void)Is_otg_clock_frozen();
80003472:	70 08       	ld.w	r8,r8[0x0]

static void udd_ep_job_table_reset(void)
{
	uint8_t i;
	for (i = 0; i < USB_DEVICE_MAX_EP; i++) {
		udd_ep_job[i].busy = false;
80003474:	4a 18       	lddpc	r8,800034f8 <udd_enable+0xd0>
80003476:	70 0a       	ld.w	r10,r8[0x0]
80003478:	30 09       	mov	r9,0
		udd_ep_job[i].stall_requested = false;
8000347a:	f5 da c0 1f 	bfextu	r10,r10,0x0,0x1f
8000347e:	f5 d9 d3 a1 	bfins	r10,r9,0x1d,0x1
80003482:	91 0a       	st.w	r8[0x0],r10

static void udd_ep_job_table_reset(void)
{
	uint8_t i;
	for (i = 0; i < USB_DEVICE_MAX_EP; i++) {
		udd_ep_job[i].busy = false;
80003484:	70 5a       	ld.w	r10,r8[0x14]
		udd_ep_job[i].stall_requested = false;
80003486:	f5 da c0 1f 	bfextu	r10,r10,0x0,0x1f
8000348a:	f5 d9 d3 a1 	bfins	r10,r9,0x1d,0x1
8000348e:	91 5a       	st.w	r8[0x14],r10

static void udd_ep_job_table_reset(void)
{
	uint8_t i;
	for (i = 0; i < USB_DEVICE_MAX_EP; i++) {
		udd_ep_job[i].busy = false;
80003490:	70 aa       	ld.w	r10,r8[0x28]
		udd_ep_job[i].stall_requested = false;
80003492:	f5 da c0 1f 	bfextu	r10,r10,0x0,0x1f
80003496:	f5 d9 d3 a1 	bfins	r10,r9,0x1d,0x1
8000349a:	91 aa       	st.w	r8[0x28],r10

	// Set the USB speed requested by configuration file
#ifdef USB_DEVICE_LOW_SPEED
	udd_low_speed_enable();
#else
	udd_low_speed_disable();
8000349c:	fe 68 00 00 	mov	r8,-131072
800034a0:	70 09       	ld.w	r9,r8[0x0]
800034a2:	ad c9       	cbr	r9,0xc
800034a4:	91 09       	st.w	r8[0x0],r9
#  ifdef USB_DEVICE_HS_SUPPORT
	udd_high_speed_enable();
#  else
	udd_high_speed_disable();
800034a6:	70 09       	ld.w	r9,r8[0x0]
800034a8:	e8 19 0c 00 	orl	r9,0xc00
800034ac:	91 09       	st.w	r8[0x0],r9
#  endif
#endif
	otg_ack_vbus_transition();
800034ae:	30 29       	mov	r9,2
800034b0:	fe 68 08 08 	mov	r8,-129016
800034b4:	91 09       	st.w	r8[0x0],r9
	// Force Vbus interrupt in case of Vbus always with a high level
	// This is possible with a short timing between a Host mode stop/start.
	if (Is_otg_vbus_high()) {
800034b6:	fe 68 08 04 	mov	r8,-129020
800034ba:	70 08       	ld.w	r8,r8[0x0]
800034bc:	e2 18 08 00 	andl	r8,0x800,COH
800034c0:	c0 40       	breq	800034c8 <udd_enable+0xa0>
		otg_raise_vbus_transition();
800034c2:	fe 68 08 0c 	mov	r8,-129012
800034c6:	91 09       	st.w	r8[0x0],r9
	}
	otg_enable_vbus_interrupt();
800034c8:	fe 68 08 00 	mov	r8,-129024
800034cc:	70 09       	ld.w	r9,r8[0x0]
800034ce:	a1 b9       	sbr	r9,0x1
800034d0:	91 09       	st.w	r8[0x0],r9
	otg_freeze_clock();
800034d2:	70 09       	ld.w	r9,r8[0x0]
800034d4:	af a9       	sbr	r9,0xe
800034d6:	91 09       	st.w	r8[0x0],r9

#ifndef UDD_NO_SLEEP_MGR
	// Initialize the sleep mode authorized for the USB suspend mode
	udd_b_idle = false;
800034d8:	30 09       	mov	r9,0
800034da:	48 98       	lddpc	r8,800034fc <udd_enable+0xd4>
800034dc:	b0 89       	st.b	r8[0x0],r9
static inline void cpu_irq_restore(irqflags_t flags)
{
	barrier();

   /* Restore the global IRQ mask status flag if it was previously set */
   if ( cpu_irq_is_enabled_flags(flags) ) {
800034de:	e6 17 00 01 	andh	r7,0x1,COH
800034e2:	c0 21       	brne	800034e6 <udd_enable+0xbe>
      cpu_irq_enable();
800034e4:	d5 03       	csrf	0x10
	sleepmgr_lock_mode(USBB_SLEEP_MODE_USB_SUSPEND);
#endif

	cpu_irq_restore(flags);
}
800034e6:	e3 cd 80 80 	ldm	sp++,r7,pc
800034ea:	00 00       	add	r0,r0
800034ec:	80 00       	ld.sh	r0,r0[0x0]
800034ee:	3c 04       	mov	r4,-64
800034f0:	80 00       	ld.sh	r0,r0[0x0]
800034f2:	35 00       	mov	r0,80
800034f4:	80 00       	ld.sh	r0,r0[0x0]
800034f6:	28 64       	sub	r4,-122
800034f8:	00 00       	add	r0,r0
800034fa:	06 bc       	st.h	r3++,r12
800034fc:	00 00       	add	r0,r0
800034fe:	06 f8       	st.b	--r3,r8

80003500 <udd_interrupt>:
ISR_FREERTOS(udd_interrupt, AVR32_USBB_IRQ_GROUP, UDD_USB_INT_LEVEL)
#  else
ISR(udd_interrupt, AVR32_USBB_IRQ_GROUP, UDD_USB_INT_LEVEL)
#  endif
#endif
{
80003500:	eb cd 40 fe 	pushm	r1-r7,lr
	if (Is_udd_sof()) {
80003504:	fe 68 00 04 	mov	r8,-131068
80003508:	70 08       	ld.w	r8,r8[0x0]
8000350a:	e2 18 00 04 	andl	r8,0x4,COH
8000350e:	c1 10       	breq	80003530 <udd_interrupt+0x30>
		udd_ack_sof();
80003510:	30 49       	mov	r9,4
80003512:	fe 68 00 08 	mov	r8,-131064
80003516:	91 09       	st.w	r8[0x0],r9
		if (Is_udd_full_speed_mode()) {
80003518:	fe 68 08 04 	mov	r8,-129020
8000351c:	70 08       	ld.w	r8,r8[0x0]
8000351e:	f1 d8 c1 82 	bfextu	r8,r8,0xc,0x2
80003522:	c0 31       	brne	80003528 <udd_interrupt+0x28>
			udc_sof_notify();
80003524:	f0 1f 01 76 	mcall	80003afc <udd_interrupt+0x5fc>
		}
#ifdef UDC_SOF_EVENT
		UDC_SOF_EVENT();
80003528:	f0 1f 01 76 	mcall	80003b00 <udd_interrupt+0x600>
#endif
		goto udd_interrupt_end;
8000352c:	e0 8f 02 d6 	bral	80003ad8 <udd_interrupt+0x5d8>
	}
	if (Is_udd_msof()) {
80003530:	fe 68 00 04 	mov	r8,-131068
80003534:	70 08       	ld.w	r8,r8[0x0]
80003536:	e2 18 00 02 	andl	r8,0x2,COH
8000353a:	c0 90       	breq	8000354c <udd_interrupt+0x4c>
		udd_ack_msof();
8000353c:	30 29       	mov	r9,2
8000353e:	fe 68 00 08 	mov	r8,-131064
80003542:	91 09       	st.w	r8[0x0],r9
		udc_sof_notify();
80003544:	f0 1f 01 6e 	mcall	80003afc <udd_interrupt+0x5fc>
		goto udd_interrupt_end;
80003548:	e0 8f 02 c8 	bral	80003ad8 <udd_interrupt+0x5d8>


static bool udd_ctrl_interrupt(void)
{

	if (!Is_udd_endpoint_interrupt(0))
8000354c:	fe 68 00 00 	mov	r8,-131072
80003550:	70 18       	ld.w	r8,r8[0x4]
80003552:	e2 18 10 00 	andl	r8,0x1000,COH
80003556:	e0 80 01 70 	breq	80003836 <udd_interrupt+0x336>
		return false; // No interrupt events on control endpoint

	// By default disable overflow and underflow interrupt
	udd_disable_nak_in_interrupt(0);
8000355a:	fe 68 02 20 	mov	r8,-130528
8000355e:	31 09       	mov	r9,16
80003560:	91 09       	st.w	r8[0x0],r9
	udd_disable_nak_out_interrupt(0);
80003562:	30 89       	mov	r9,8
80003564:	91 09       	st.w	r8[0x0],r9


	// Search event on control endpoint
	if (Is_udd_setup_received(0)) {
80003566:	fe 68 01 30 	mov	r8,-130768
8000356a:	70 08       	ld.w	r8,r8[0x0]
8000356c:	e2 18 00 04 	andl	r8,0x4,COH
80003570:	e0 80 00 83 	breq	80003676 <udd_interrupt+0x176>
static void udd_ctrl_setup_received(void)
{
	irqflags_t flags;
	uint8_t i;

	if (UDD_EPCTRL_SETUP != udd_ep_control_state) {
80003574:	fe f8 05 90 	ld.w	r8,pc[1424]
80003578:	70 08       	ld.w	r8,r8[0x0]
8000357a:	58 08       	cp.w	r8,0
8000357c:	c0 50       	breq	80003586 <udd_interrupt+0x86>
		// May be a hidden DATA or ZLP phase
		// or protocol abort
		udd_ctrl_endofrequest();
8000357e:	f0 1f 01 63 	mcall	80003b08 <udd_interrupt+0x608>

		// Reinitializes control endpoint management
		udd_ctrl_init();
80003582:	f0 1f 01 63 	mcall	80003b0c <udd_interrupt+0x60c>
	}
	// Fill setup request structure
	if (8 != udd_byte_count(0)) {
80003586:	fe 68 01 30 	mov	r8,-130768
8000358a:	70 08       	ld.w	r8,r8[0x0]
8000358c:	f1 d8 c2 8b 	bfextu	r8,r8,0x14,0xb
80003590:	58 88       	cp.w	r8,8
80003592:	c0 90       	breq	800035a4 <udd_interrupt+0xa4>
		udd_ctrl_stall_data();
80003594:	f0 1f 01 5f 	mcall	80003b10 <udd_interrupt+0x610>
		udd_ack_setup_received(0);
80003598:	30 49       	mov	r9,4
8000359a:	fe 68 01 60 	mov	r8,-130720
8000359e:	91 09       	st.w	r8[0x0],r9
800035a0:	e0 8f 02 9c 	bral	80003ad8 <udd_interrupt+0x5d8>
800035a4:	30 08       	mov	r8,0
800035a6:	ea 18 d0 00 	orh	r8,0xd000
		return; // Error data number doesn't correspond to SETUP packet
	}
	uint8_t *ptr = (uint8_t *) & udd_get_endpoint_fifo_access(0,8);
	for (i = 0; i < 8; i++) {
		((uint8_t*) &udd_g_ctrlreq.req)[i] = *ptr++;
800035aa:	fe fc 05 6a 	ld.w	r12,pc[1386]
800035ae:	30 0b       	mov	r11,0
800035b0:	ea 1b 30 00 	orh	r11,0x3000
800035b4:	f0 0c 00 09 	add	r9,r8,r12
800035b8:	11 3a       	ld.ub	r10,r8++
800035ba:	f2 0b 0b 0a 	st.b	r9[r11],r10
		udd_ctrl_stall_data();
		udd_ack_setup_received(0);
		return; // Error data number doesn't correspond to SETUP packet
	}
	uint8_t *ptr = (uint8_t *) & udd_get_endpoint_fifo_access(0,8);
	for (i = 0; i < 8; i++) {
800035be:	30 8a       	mov	r10,8
800035c0:	ea 1a d0 00 	orh	r10,0xd000
800035c4:	14 38       	cp.w	r8,r10
800035c6:	cf 71       	brne	800035b4 <udd_interrupt+0xb4>
		((uint8_t*) &udd_g_ctrlreq.req)[i] = *ptr++;
	}
	// Manage LSB/MSB to fit with CPU usage
	udd_g_ctrlreq.req.wValue = le16_to_cpu(udd_g_ctrlreq.req.wValue);
800035c8:	fe f8 05 4c 	ld.w	r8,pc[1356]
800035cc:	90 19       	ld.sh	r9,r8[0x2]
800035ce:	5c c9       	swap.bh	r9
800035d0:	b0 19       	st.h	r8[0x2],r9
	udd_g_ctrlreq.req.wIndex = le16_to_cpu(udd_g_ctrlreq.req.wIndex);
800035d2:	90 29       	ld.sh	r9,r8[0x4]
800035d4:	5c c9       	swap.bh	r9
800035d6:	b0 29       	st.h	r8[0x4],r9
	udd_g_ctrlreq.req.wLength = le16_to_cpu(udd_g_ctrlreq.req.wLength);
800035d8:	90 39       	ld.sh	r9,r8[0x6]
800035da:	5c c9       	swap.bh	r9
800035dc:	b0 39       	st.h	r8[0x6],r9

	// Decode setup request
	if (udc_process_setup() == false) {
800035de:	f0 1f 01 4f 	mcall	80003b18 <udd_interrupt+0x618>
800035e2:	c0 91       	brne	800035f4 <udd_interrupt+0xf4>
		// Setup request unknown then stall it
		udd_ctrl_stall_data();
800035e4:	f0 1f 01 4b 	mcall	80003b10 <udd_interrupt+0x610>
		udd_ack_setup_received(0);
800035e8:	30 49       	mov	r9,4
800035ea:	fe 68 01 60 	mov	r8,-130720
800035ee:	91 09       	st.w	r8[0x0],r9
800035f0:	e0 8f 02 74 	bral	80003ad8 <udd_interrupt+0x5d8>
		return;
	}
	udd_ack_setup_received(0);
800035f4:	30 49       	mov	r9,4
800035f6:	fe 68 01 60 	mov	r8,-130720
800035fa:	91 09       	st.w	r8[0x0],r9

	if (Udd_setup_is_in()) {
800035fc:	fe f8 05 18 	ld.w	r8,pc[1304]
80003600:	11 89       	ld.ub	r9,r8[0x0]
80003602:	30 08       	mov	r8,0
80003604:	f0 09 18 00 	cp.b	r9,r8
80003608:	c1 04       	brge	80003628 <udd_interrupt+0x128>
		// IN data phase requested
		udd_ctrl_prev_payload_nb_trans = 0;
8000360a:	30 08       	mov	r8,0
8000360c:	fe f9 05 10 	ld.w	r9,pc[1296]
80003610:	b2 08       	st.h	r9[0x0],r8
		udd_ctrl_payload_nb_trans = 0;
80003612:	fe f9 05 0e 	ld.w	r9,pc[1294]
80003616:	b2 08       	st.h	r9[0x0],r8
		udd_ep_control_state = UDD_EPCTRL_DATA_IN;
80003618:	30 29       	mov	r9,2
8000361a:	fe f8 04 ea 	ld.w	r8,pc[1258]
8000361e:	91 09       	st.w	r8[0x0],r9
		udd_ctrl_in_sent(); // Send first data transfer
80003620:	f0 1f 01 41 	mcall	80003b24 <udd_interrupt+0x624>
80003624:	e0 8f 02 5a 	bral	80003ad8 <udd_interrupt+0x5d8>
	} else {
		if (0 == udd_g_ctrlreq.req.wLength) {
80003628:	fe f8 04 ec 	ld.w	r8,pc[1260]
8000362c:	90 39       	ld.sh	r9,r8[0x6]
8000362e:	30 08       	mov	r8,0
80003630:	f0 09 19 00 	cp.h	r9,r8
80003634:	c0 51       	brne	8000363e <udd_interrupt+0x13e>
			// No data phase requested
			// Send IN ZLP to ACK setup request
			udd_ctrl_send_zlp_in();
80003636:	f0 1f 01 3d 	mcall	80003b28 <udd_interrupt+0x628>
8000363a:	e0 8f 02 4f 	bral	80003ad8 <udd_interrupt+0x5d8>
			return;
		}
		// OUT data phase requested
		udd_ctrl_prev_payload_nb_trans = 0;
8000363e:	30 08       	mov	r8,0
80003640:	fe f9 04 dc 	ld.w	r9,pc[1244]
80003644:	b2 08       	st.h	r9[0x0],r8
		udd_ctrl_payload_nb_trans = 0;
80003646:	fe f9 04 da 	ld.w	r9,pc[1242]
8000364a:	b2 08       	st.h	r9[0x0],r8
		udd_ep_control_state = UDD_EPCTRL_DATA_OUT;
8000364c:	30 19       	mov	r9,1
8000364e:	fe f8 04 b6 	ld.w	r8,pc[1206]
80003652:	91 09       	st.w	r8[0x0],r9
		// To detect a protocol error, enable nak interrupt on data IN phase
		udd_ack_nak_in(0);
80003654:	31 08       	mov	r8,16
80003656:	fe 69 01 60 	mov	r9,-130720
8000365a:	93 08       	st.w	r9[0x0],r8

static inline irqflags_t cpu_irq_save(void)
{
	irqflags_t flags;

	flags = sysreg_read(AVR32_SR);
8000365c:	e1 b9 00 00 	mfsr	r9,0x0
	cpu_irq_disable();
80003660:	d3 03       	ssrf	0x10
		flags = cpu_irq_save();
		udd_enable_nak_in_interrupt(0);
80003662:	fe 6a 01 f0 	mov	r10,-130576
80003666:	95 08       	st.w	r10[0x0],r8
static inline void cpu_irq_restore(irqflags_t flags)
{
	barrier();

   /* Restore the global IRQ mask status flag if it was previously set */
   if ( cpu_irq_is_enabled_flags(flags) ) {
80003668:	12 98       	mov	r8,r9
8000366a:	e6 18 00 01 	andh	r8,0x1,COH
8000366e:	c0 21       	brne	80003672 <udd_interrupt+0x172>
      cpu_irq_enable();
80003670:	d5 03       	csrf	0x10
   }

	barrier();
80003672:	e0 8f 02 33 	bral	80003ad8 <udd_interrupt+0x5d8>
	if (Is_udd_setup_received(0)) {
		// SETUP packet received
		udd_ctrl_setup_received();
		return true;
	}
	if (Is_udd_in_send(0) && Is_udd_in_send_interrupt_enabled(0)) {
80003676:	fe 68 01 30 	mov	r8,-130768
8000367a:	70 08       	ld.w	r8,r8[0x0]
8000367c:	f1 d8 c0 01 	bfextu	r8,r8,0x0,0x1
80003680:	c0 b0       	breq	80003696 <udd_interrupt+0x196>
80003682:	fe 68 01 c0 	mov	r8,-130624
80003686:	70 08       	ld.w	r8,r8[0x0]
80003688:	f1 d8 c0 01 	bfextu	r8,r8,0x0,0x1
8000368c:	c0 50       	breq	80003696 <udd_interrupt+0x196>
		// IN packet sent
		udd_ctrl_in_sent();
8000368e:	f0 1f 01 26 	mcall	80003b24 <udd_interrupt+0x624>
80003692:	e0 8f 02 23 	bral	80003ad8 <udd_interrupt+0x5d8>
		return true;
	}
	if (Is_udd_out_received(0)) {
80003696:	fe 68 01 30 	mov	r8,-130768
8000369a:	70 08       	ld.w	r8,r8[0x0]
8000369c:	e2 18 00 02 	andl	r8,0x2,COH
800036a0:	e0 80 00 a8 	breq	800037f0 <udd_interrupt+0x2f0>
{
	irqflags_t flags;
	uint8_t i;
	uint16_t nb_data;

	if (UDD_EPCTRL_DATA_OUT != udd_ep_control_state) {
800036a4:	fe f8 04 60 	ld.w	r8,pc[1120]
800036a8:	70 08       	ld.w	r8,r8[0x0]
800036aa:	58 18       	cp.w	r8,1
800036ac:	c1 10       	breq	800036ce <udd_interrupt+0x1ce>
		if ((UDD_EPCTRL_DATA_IN == udd_ep_control_state)
800036ae:	58 28       	cp.w	r8,2
800036b0:	5f 09       	sreq	r9
800036b2:	58 48       	cp.w	r8,4
800036b4:	5f 08       	sreq	r8
800036b6:	f3 e8 10 08 	or	r8,r9,r8
800036ba:	c0 40       	breq	800036c2 <udd_interrupt+0x1c2>
						udd_ep_control_state)) {
			// End of SETUP request:
			// - Data IN Phase aborted,
			// - or last Data IN Phase hidden by ZLP OUT sending quickly,
			// - or ZLP OUT received normally.
			udd_ctrl_endofrequest();
800036bc:	f0 1f 01 13 	mcall	80003b08 <udd_interrupt+0x608>
800036c0:	c0 38       	rjmp	800036c6 <udd_interrupt+0x1c6>
		} else {
			// Protocol error during SETUP request
			udd_ctrl_stall_data();
800036c2:	f0 1f 01 14 	mcall	80003b10 <udd_interrupt+0x610>
		}
		// Reinitializes control endpoint management
		udd_ctrl_init();
800036c6:	f0 1f 01 12 	mcall	80003b0c <udd_interrupt+0x60c>
800036ca:	e0 8f 02 07 	bral	80003ad8 <udd_interrupt+0x5d8>
		return;
	}
	// Read data received during OUT phase
	nb_data = udd_byte_count(0);
800036ce:	fe 68 01 30 	mov	r8,-130768
800036d2:	70 0b       	ld.w	r11,r8[0x0]
800036d4:	f7 db c2 8b 	bfextu	r11,r11,0x14,0xb
	if (udd_g_ctrlreq.payload_size < (udd_ctrl_payload_nb_trans + nb_data)) {
800036d8:	fe f8 04 3c 	ld.w	r8,pc[1084]
800036dc:	90 69       	ld.sh	r9,r8[0xc]
800036de:	fe f8 04 42 	ld.w	r8,pc[1090]
800036e2:	90 08       	ld.sh	r8,r8[0x0]
800036e4:	f9 d9 c0 10 	bfextu	r12,r9,0x0,0x10
800036e8:	f5 d8 c0 10 	bfextu	r10,r8,0x0,0x10
800036ec:	f6 0a 00 0a 	add	r10,r11,r10
800036f0:	14 3c       	cp.w	r12,r10
800036f2:	c0 44       	brge	800036fa <udd_interrupt+0x1fa>
		// Payload buffer too small
		nb_data = udd_g_ctrlreq.payload_size -
800036f4:	10 19       	sub	r9,r8
800036f6:	f7 d9 b0 10 	bfexts	r11,r9,0x0,0x10
				udd_ctrl_payload_nb_trans;
	}
	uint8_t *ptr_src = (uint8_t *) & udd_get_endpoint_fifo_access(0, 8);
	uint8_t *ptr_dest = udd_g_ctrlreq.payload + udd_ctrl_payload_nb_trans;
800036fa:	fe f9 04 1a 	ld.w	r9,pc[1050]
800036fe:	72 29       	ld.w	r9,r9[0x8]
	for (i = 0; i < nb_data; i++) {
80003700:	58 0b       	cp.w	r11,0
80003702:	e0 80 01 f2 	breq	80003ae6 <udd_interrupt+0x5e6>
		// Payload buffer too small
		nb_data = udd_g_ctrlreq.payload_size -
				udd_ctrl_payload_nb_trans;
	}
	uint8_t *ptr_src = (uint8_t *) & udd_get_endpoint_fifo_access(0, 8);
	uint8_t *ptr_dest = udd_g_ctrlreq.payload + udd_ctrl_payload_nb_trans;
80003706:	5c 78       	castu.h	r8
80003708:	10 09       	add	r9,r8
8000370a:	30 08       	mov	r8,0
8000370c:	ea 18 d0 00 	orh	r8,0xd000
	for (i = 0; i < nb_data; i++) {
		*ptr_dest++ = *ptr_src++;
80003710:	11 3a       	ld.ub	r10,r8++
80003712:	12 ca       	st.b	r9++,r10
		nb_data = udd_g_ctrlreq.payload_size -
				udd_ctrl_payload_nb_trans;
	}
	uint8_t *ptr_src = (uint8_t *) & udd_get_endpoint_fifo_access(0, 8);
	uint8_t *ptr_dest = udd_g_ctrlreq.payload + udd_ctrl_payload_nb_trans;
	for (i = 0; i < nb_data; i++) {
80003714:	f5 d8 c0 08 	bfextu	r10,r8,0x0,0x8
80003718:	f6 0a 19 00 	cp.h	r10,r11
8000371c:	cf a3       	brcs	80003710 <udd_interrupt+0x210>
		*ptr_dest++ = *ptr_src++;
	}
	udd_ctrl_payload_nb_trans += nb_data;
8000371e:	fe f9 04 02 	ld.w	r9,pc[1026]
80003722:	92 08       	ld.sh	r8,r9[0x0]
80003724:	16 08       	add	r8,r11
80003726:	5c 88       	casts.h	r8
80003728:	b2 08       	st.h	r9[0x0],r8

	if ((USB_DEVICE_EP_CTRL_SIZE != nb_data)
8000372a:	34 09       	mov	r9,64
8000372c:	f2 0b 19 00 	cp.h	r11,r9
80003730:	c0 e1       	brne	8000374c <udd_interrupt+0x24c>
80003732:	fe f9 03 e2 	ld.w	r9,pc[994]
80003736:	92 ba       	ld.uh	r10,r9[0x6]
80003738:	f7 d8 c0 10 	bfextu	r11,r8,0x0,0x10
8000373c:	fe f9 03 e0 	ld.w	r9,pc[992]
80003740:	92 89       	ld.uh	r9,r9[0x0]
80003742:	f6 09 00 09 	add	r9,r11,r9
80003746:	12 3a       	cp.w	r10,r9
80003748:	e0 89 00 1a 	brgt	8000377c <udd_interrupt+0x27c>
							udd_ctrl_payload_nb_trans)))
	{
		// End of reception because it is a short packet
		// Before send ZLP, call intermediate callback
		// in case of data receive generate a stall
		udd_g_ctrlreq.payload_size = udd_ctrl_payload_nb_trans;
8000374c:	fe f9 03 c8 	ld.w	r9,pc[968]
80003750:	b2 68       	st.h	r9[0xc],r8
		if (NULL != udd_g_ctrlreq.over_under_run) {
80003752:	72 5c       	ld.w	r12,r9[0x14]
80003754:	58 0c       	cp.w	r12,0
80003756:	c0 b0       	breq	8000376c <udd_interrupt+0x26c>
			if (!udd_g_ctrlreq.over_under_run()) {
80003758:	5d 1c       	icall	r12
8000375a:	c0 91       	brne	8000376c <udd_interrupt+0x26c>
				// Stall ZLP
				udd_ctrl_stall_data();
8000375c:	f0 1f 00 ed 	mcall	80003b10 <udd_interrupt+0x610>
				// Ack reception of OUT to replace NAK by a STALL
				udd_ack_out_received(0);
80003760:	30 29       	mov	r9,2
80003762:	fe 68 01 60 	mov	r8,-130720
80003766:	91 09       	st.w	r8[0x0],r9
80003768:	e0 8f 01 b8 	bral	80003ad8 <udd_interrupt+0x5d8>
				return;
			}
		}
		// Send IN ZLP to ACK setup request
		udd_ack_out_received(0);
8000376c:	30 29       	mov	r9,2
8000376e:	fe 68 01 60 	mov	r8,-130720
80003772:	91 09       	st.w	r8[0x0],r9
		udd_ctrl_send_zlp_in();
80003774:	f0 1f 00 ed 	mcall	80003b28 <udd_interrupt+0x628>
80003778:	e0 8f 01 b0 	bral	80003ad8 <udd_interrupt+0x5d8>
		return;
	}

	if (udd_g_ctrlreq.payload_size == udd_ctrl_payload_nb_trans) {
8000377c:	fe f9 03 98 	ld.w	r9,pc[920]
80003780:	92 69       	ld.sh	r9,r9[0xc]
80003782:	f0 09 19 00 	cp.h	r9,r8
80003786:	c2 31       	brne	800037cc <udd_interrupt+0x2cc>
		// Overrun then request a new payload buffer
		if (!udd_g_ctrlreq.over_under_run) {
80003788:	fe f8 03 8c 	ld.w	r8,pc[908]
8000378c:	70 5c       	ld.w	r12,r8[0x14]
8000378e:	58 0c       	cp.w	r12,0
80003790:	c0 91       	brne	800037a2 <udd_interrupt+0x2a2>
			// No callback available to request a new payload buffer
			udd_ctrl_stall_data();
80003792:	f0 1f 00 e0 	mcall	80003b10 <udd_interrupt+0x610>
			// Ack reception of OUT to replace NAK by a STALL
			udd_ack_out_received(0);
80003796:	30 29       	mov	r9,2
80003798:	fe 68 01 60 	mov	r8,-130720
8000379c:	91 09       	st.w	r8[0x0],r9
8000379e:	e0 8f 01 9d 	bral	80003ad8 <udd_interrupt+0x5d8>
			return;
		}
		if (!udd_g_ctrlreq.over_under_run()) {
800037a2:	5d 1c       	icall	r12
800037a4:	c0 91       	brne	800037b6 <udd_interrupt+0x2b6>
			// No new payload buffer delivered
			udd_ctrl_stall_data();
800037a6:	f0 1f 00 db 	mcall	80003b10 <udd_interrupt+0x610>
			// Ack reception of OUT to replace NAK by a STALL
			udd_ack_out_received(0);
800037aa:	30 29       	mov	r9,2
800037ac:	fe 68 01 60 	mov	r8,-130720
800037b0:	91 09       	st.w	r8[0x0],r9
800037b2:	e0 8f 01 93 	bral	80003ad8 <udd_interrupt+0x5d8>
			return;
		}
		// New payload buffer available
		// Update number of total data received
		udd_ctrl_prev_payload_nb_trans += udd_ctrl_payload_nb_trans;
800037b6:	fe f9 03 66 	ld.w	r9,pc[870]
800037ba:	fe f8 03 66 	ld.w	r8,pc[870]
800037be:	90 0b       	ld.sh	r11,r8[0x0]
800037c0:	92 0a       	ld.sh	r10,r9[0x0]
800037c2:	f6 0a 00 0a 	add	r10,r11,r10
800037c6:	b2 0a       	st.h	r9[0x0],r10
		// Reinit reception on payload buffer
		udd_ctrl_payload_nb_trans = 0;
800037c8:	30 09       	mov	r9,0
800037ca:	b0 09       	st.h	r8[0x0],r9
	}
	// Free buffer of control endpoint to authorize next reception
	udd_ack_out_received(0);
800037cc:	fe 69 01 60 	mov	r9,-130720
800037d0:	30 28       	mov	r8,2
800037d2:	93 08       	st.w	r9[0x0],r8
	// To detect a protocol error, enable nak interrupt on data IN phase
	udd_ack_nak_in(0);
800037d4:	31 08       	mov	r8,16
800037d6:	93 08       	st.w	r9[0x0],r8

static inline irqflags_t cpu_irq_save(void)
{
	irqflags_t flags;

	flags = sysreg_read(AVR32_SR);
800037d8:	e1 b9 00 00 	mfsr	r9,0x0
	cpu_irq_disable();
800037dc:	d3 03       	ssrf	0x10
	flags = cpu_irq_save();
	udd_enable_nak_in_interrupt(0);
800037de:	fe 6a 01 f0 	mov	r10,-130576
800037e2:	95 08       	st.w	r10[0x0],r8
static inline void cpu_irq_restore(irqflags_t flags)
{
	barrier();

   /* Restore the global IRQ mask status flag if it was previously set */
   if ( cpu_irq_is_enabled_flags(flags) ) {
800037e4:	12 98       	mov	r8,r9
800037e6:	e6 18 00 01 	andh	r8,0x1,COH
800037ea:	c0 21       	brne	800037ee <udd_interrupt+0x2ee>
      cpu_irq_enable();
800037ec:	d5 03       	csrf	0x10
   }

	barrier();
800037ee:	c7 59       	rjmp	80003ad8 <udd_interrupt+0x5d8>
	if (Is_udd_out_received(0)) {
		// OUT packet received
		udd_ctrl_out_received();
		return true;
	}
	if (Is_udd_nak_out(0)) {
800037f0:	fe 68 01 30 	mov	r8,-130768
800037f4:	70 08       	ld.w	r8,r8[0x0]
800037f6:	e2 18 00 08 	andl	r8,0x8,COH
800037fa:	c1 80       	breq	8000382a <udd_interrupt+0x32a>
		// Overflow on OUT packet
		udd_ack_nak_out(0);
800037fc:	30 89       	mov	r9,8
800037fe:	fe 68 01 60 	mov	r8,-130720
80003802:	91 09       	st.w	r8[0x0],r9
}


static void udd_ctrl_overflow(void)
{
	if (Is_udd_in_send(0))
80003804:	fe 68 01 30 	mov	r8,-130768
80003808:	70 08       	ld.w	r8,r8[0x0]
8000380a:	f1 d8 c0 01 	bfextu	r8,r8,0x0,0x1
8000380e:	e0 81 01 65 	brne	80003ad8 <udd_interrupt+0x5d8>
		return; // overflow ignored if IN data is received

	// The case of UDD_EPCTRL_DATA_IN is not managed
	// because the OUT endpoint is already free and OUT ZLP accepted

	if (UDD_EPCTRL_HANDSHAKE_WAIT_IN_ZLP == udd_ep_control_state) {
80003812:	fe f8 02 f2 	ld.w	r8,pc[754]
80003816:	70 08       	ld.w	r8,r8[0x0]
80003818:	58 38       	cp.w	r8,3
8000381a:	e0 81 01 5f 	brne	80003ad8 <udd_interrupt+0x5d8>
		// A IN handshake is waiting by device,
		// but host want extra OUT data then stall extra OUT data
		udd_enable_stall_handshake(0);
8000381e:	e8 69 00 00 	mov	r9,524288
80003822:	fe 68 01 f0 	mov	r8,-130576
80003826:	91 09       	st.w	r8[0x0],r9
80003828:	c5 89       	rjmp	80003ad8 <udd_interrupt+0x5d8>
		// Overflow on OUT packet
		udd_ack_nak_out(0);
		udd_ctrl_overflow();
		return true;
	}
	if (Is_udd_nak_in(0)) {
8000382a:	fe 68 01 30 	mov	r8,-130768
8000382e:	70 08       	ld.w	r8,r8[0x0]
80003830:	e2 18 00 10 	andl	r8,0x10,COH
80003834:	c0 f1       	brne	80003852 <udd_interrupt+0x352>
80003836:	fe f7 02 f6 	ld.w	r7,pc[758]
8000383a:	0e 96       	mov	r6,r7
8000383c:	fe 6b 01 34 	mov	r11,-130764
80003840:	30 05       	mov	r5,0
	for (ep = 1; ep <= USB_DEVICE_MAX_EP; ep++) {
		// Get job corresponding at endpoint
		ptr_job = &udd_ep_job[ep - 1];

		// Check DMA event
		if (Is_udd_endpoint_dma_interrupt_enabled(ep)
80003842:	fe 6a 00 00 	mov	r10,-131072
80003846:	30 04       	mov	r4,0
80003848:	ea 14 02 00 	orh	r4,0x200
			}
			udd_ep_trans_done(ep);
			return true;
		}
		// Check empty bank interrupt event
		if (Is_udd_endpoint_interrupt_enabled(ep)) {
8000384c:	e0 63 10 00 	mov	r3,4096
80003850:	c1 e8       	rjmp	8000388c <udd_interrupt+0x38c>
		udd_ctrl_overflow();
		return true;
	}
	if (Is_udd_nak_in(0)) {
		// Underflow on IN packet
		udd_ack_nak_in(0);
80003852:	31 09       	mov	r9,16
80003854:	fe 68 01 60 	mov	r8,-130720
80003858:	91 09       	st.w	r8[0x0],r9
}


static void udd_ctrl_underflow(void)
{
	if (Is_udd_out_received(0))
8000385a:	fe 68 01 30 	mov	r8,-130768
8000385e:	70 08       	ld.w	r8,r8[0x0]
80003860:	e2 18 00 02 	andl	r8,0x2,COH
80003864:	e0 81 01 3a 	brne	80003ad8 <udd_interrupt+0x5d8>
		return; // underflow ignored if OUT data is received

	if (UDD_EPCTRL_DATA_OUT == udd_ep_control_state) {
80003868:	fe f8 02 9c 	ld.w	r8,pc[668]
8000386c:	70 08       	ld.w	r8,r8[0x0]
8000386e:	58 18       	cp.w	r8,1
80003870:	c0 41       	brne	80003878 <udd_interrupt+0x378>
		// Host want to stop OUT transaction
		// then stop to wait OUT data phase and wait IN ZLP handshake
		udd_ctrl_send_zlp_in();
80003872:	f0 1f 00 ae 	mcall	80003b28 <udd_interrupt+0x628>
80003876:	c3 19       	rjmp	80003ad8 <udd_interrupt+0x5d8>
	} else if (UDD_EPCTRL_HANDSHAKE_WAIT_OUT_ZLP == udd_ep_control_state) {
80003878:	58 48       	cp.w	r8,4
8000387a:	e0 81 01 2f 	brne	80003ad8 <udd_interrupt+0x5d8>
		// A OUT handshake is waiting by device,
		// but host want extra IN data then stall extra IN data
		udd_enable_stall_handshake(0);
8000387e:	e8 69 00 00 	mov	r9,524288
80003882:	fe 68 01 f0 	mov	r8,-130576
80003886:	91 09       	st.w	r8[0x0],r9
80003888:	c2 89       	rjmp	80003ad8 <udd_interrupt+0x5d8>
8000388a:	12 95       	mov	r5,r9
8000388c:	ea c9 ff ff 	sub	r9,r5,-1
80003890:	0c 98       	mov	r8,r6
	for (ep = 1; ep <= USB_DEVICE_MAX_EP; ep++) {
		// Get job corresponding at endpoint
		ptr_job = &udd_ep_job[ep - 1];

		// Check DMA event
		if (Is_udd_endpoint_dma_interrupt_enabled(ep)
80003892:	74 4e       	ld.w	lr,r10[0x10]
80003894:	12 9c       	mov	r12,r9
80003896:	e8 05 09 45 	lsl	r5,r4,r5
8000389a:	eb ee 00 0e 	and	lr,r5,lr
8000389e:	c1 b0       	breq	800038d4 <udd_interrupt+0x3d4>
				&& Is_udd_endpoint_dma_interrupt(ep)) {
800038a0:	74 1e       	ld.w	lr,r10[0x4]
	for (ep = 1; ep <= USB_DEVICE_MAX_EP; ep++) {
		// Get job corresponding at endpoint
		ptr_job = &udd_ep_job[ep - 1];

		// Check DMA event
		if (Is_udd_endpoint_dma_interrupt_enabled(ep)
800038a2:	eb ee 00 0e 	and	lr,r5,lr
800038a6:	c1 70       	breq	800038d4 <udd_interrupt+0x3d4>
				&& Is_udd_endpoint_dma_interrupt(ep)) {
			uint32_t nb_remaining;
			if( udd_endpoint_dma_get_status(ep)
800038a8:	a5 69       	lsl	r9,0x4
800038aa:	e0 39 fd 00 	sub	r9,130304
800038ae:	72 3a       	ld.w	r10,r9[0xc]
800038b0:	f5 da c0 01 	bfextu	r10,r10,0x0,0x1
800038b4:	e0 81 01 12 	brne	80003ad8 <udd_interrupt+0x5d8>
					& AVR32_USBB_UDDMA1_STATUS_CH_EN_MASK) {
				return true; // Ignore EOT_STA interrupt
			}
			udd_disable_endpoint_dma_interrupt(ep);
800038b8:	fe 6a 00 00 	mov	r10,-131072
800038bc:	95 55       	st.w	r10[0x14],r5
			// Save number of data no transfered
			nb_remaining = (udd_endpoint_dma_get_status(ep) &
800038be:	72 39       	ld.w	r9,r9[0xc]
800038c0:	b1 89       	lsr	r9,0x10
					AVR32_USBB_UDDMA1_STATUS_CH_BYTE_CNT_MASK)
					>> AVR32_USBB_UDDMA1_STATUS_CH_BYTE_CNT_OFFSET;
			if (nb_remaining) {
800038c2:	c0 60       	breq	800038ce <udd_interrupt+0x3ce>
				// Transfer no complete (short packet or ZLP) then:
				// Update number of data transfered
				ptr_job->nb_trans -= nb_remaining;
800038c4:	6c 3a       	ld.w	r10,r6[0xc]
800038c6:	f4 09 01 09 	sub	r9,r10,r9
800038ca:	8d 39       	st.w	r6[0xc],r9
				// Set transfer complete to stop the transfer
				ptr_job->buf_size = ptr_job->nb_trans;
800038cc:	8d 29       	st.w	r6[0x8],r9
			}
			udd_ep_trans_done(ep);
800038ce:	f0 1f 00 99 	mcall	80003b30 <udd_interrupt+0x630>
800038d2:	c0 39       	rjmp	80003ad8 <udd_interrupt+0x5d8>
			return true;
		}
		// Check empty bank interrupt event
		if (Is_udd_endpoint_interrupt_enabled(ep)) {
800038d4:	74 45       	ld.w	r5,r10[0x10]
800038d6:	e6 0c 09 4e 	lsl	lr,r3,r12
800038da:	fd e5 00 05 	and	r5,lr,r5
800038de:	c4 80       	breq	8000396e <udd_interrupt+0x46e>
800038e0:	e0 75 fe d0 	mov	r5,130768
800038e4:	f6 05 00 01 	add	r1,r11,r5
800038e8:	f6 c5 ff 70 	sub	r5,r11,-144
			if (Is_udd_in_send_interrupt_enabled(ep) && Is_udd_in_send(ep)) {
800038ec:	6a 02       	ld.w	r2,r5[0x0]
800038ee:	e5 d2 c0 01 	bfextu	r2,r2,0x0,0x1
800038f2:	c1 70       	breq	80003920 <udd_interrupt+0x420>
800038f4:	76 02       	ld.w	r2,r11[0x0]
800038f6:	e5 d2 c0 01 	bfextu	r2,r2,0x0,0x1
800038fa:	c1 30       	breq	80003920 <udd_interrupt+0x420>
				udd_disable_in_send_interrupt(ep);
800038fc:	fe 6a 02 20 	mov	r10,-130528
80003900:	e2 0a 00 09 	add	r9,r1,r10
80003904:	30 1a       	mov	r10,1
80003906:	93 0a       	st.w	r9[0x0],r10
				// One bank is free then send a ZLP
				udd_ack_in_send(ep);
80003908:	e0 31 fe a0 	sub	r1,130720
8000390c:	83 0a       	st.w	r1[0x0],r10
				udd_ack_fifocon(ep);
8000390e:	e0 6a 40 00 	mov	r10,16384
80003912:	93 0a       	st.w	r9[0x0],r10
				udd_ep_finish_job(ptr_job, false, ep);
80003914:	18 9a       	mov	r10,r12
80003916:	30 0b       	mov	r11,0
80003918:	10 9c       	mov	r12,r8
8000391a:	f0 1f 00 87 	mcall	80003b34 <udd_interrupt+0x634>
8000391e:	cd d8       	rjmp	80003ad8 <udd_interrupt+0x5d8>
				return true;
			}
			if (Is_udd_bank_interrupt_enabled(ep) && (0 == udd_nb_busy_bank(ep))) {
80003920:	6a 0c       	ld.w	r12,r5[0x0]
80003922:	e2 1c 10 00 	andl	r12,0x1000,COH
80003926:	c2 40       	breq	8000396e <udd_interrupt+0x46e>
80003928:	76 0c       	ld.w	r12,r11[0x0]
8000392a:	f9 dc c1 82 	bfextu	r12,r12,0xc,0x2
8000392e:	c2 01       	brne	8000396e <udd_interrupt+0x46e>
				// End of background transfer on IN endpoint
				udd_disable_bank_interrupt(ep);
80003930:	fe 65 02 20 	mov	r5,-130528
80003934:	e2 05 00 09 	add	r9,r1,r5
80003938:	e0 6a 10 00 	mov	r10,4096
8000393c:	93 0a       	st.w	r9[0x0],r10
				udd_disable_endpoint_interrupt(ep);
8000393e:	fe 69 00 00 	mov	r9,-131072
80003942:	93 5e       	st.w	r9[0x14],lr

				Assert(ptr_job->stall_requested);
				// A stall has been requested during background transfer
				ptr_job->stall_requested = false;
80003944:	70 09       	ld.w	r9,r8[0x0]
80003946:	30 0a       	mov	r10,0
80003948:	f3 da d3 a1 	bfins	r9,r10,0x1d,0x1
8000394c:	91 09       	st.w	r8[0x0],r9
				udd_disable_endpoint_bank_autoswitch(ep);
8000394e:	fe 6a 01 00 	mov	r10,-130816
80003952:	e2 0a 00 08 	add	r8,r1,r10
80003956:	70 09       	ld.w	r9,r8[0x0]
80003958:	a9 d9       	cbr	r9,0x9
8000395a:	91 09       	st.w	r8[0x0],r9
				udd_enable_stall_handshake(ep);
8000395c:	e0 31 fe 10 	sub	r1,130576
80003960:	e8 68 00 00 	mov	r8,524288
80003964:	83 08       	st.w	r1[0x0],r8
				udd_reset_data_toggle(ep);
80003966:	e4 68 00 00 	mov	r8,262144
8000396a:	83 08       	st.w	r1[0x0],r8
8000396c:	cb 68       	rjmp	80003ad8 <udd_interrupt+0x5d8>
8000396e:	2e c6       	sub	r6,-20
80003970:	2f cb       	sub	r11,-4
{
	udd_ep_id_t ep;
	udd_ep_job_t *ptr_job;

	// For each endpoint different of control endpoint (0)
	for (ep = 1; ep <= USB_DEVICE_MAX_EP; ep++) {
80003972:	58 39       	cp.w	r9,3
80003974:	c8 b1       	brne	8000388a <udd_interrupt+0x38a>
80003976:	cb c8       	rjmp	80003aee <udd_interrupt+0x5ee>
		goto udd_interrupt_end; // Interrupt acked by bulk/interrupt/isochronous endpoint managed
#endif

	// USB bus reset detection
	if (Is_udd_reset()) {
		udd_ack_reset();
80003978:	30 89       	mov	r9,8
8000397a:	fe 68 00 08 	mov	r8,-131064
8000397e:	91 09       	st.w	r8[0x0],r9
80003980:	30 06       	mov	r6,0
{
	uint8_t i;

	// For each endpoint, kill job
	for (i = 0; i < USB_DEVICE_MAX_EP; i++) {
		udd_ep_finish_job(&udd_ep_job[i], true, i + 1);
80003982:	30 15       	mov	r5,1
#  ifdef FREERTOS_USED
#    include "FreeRTOS.h"
#    include "task.h"
ISR_FREERTOS(udd_interrupt, AVR32_USBB_IRQ_GROUP, UDD_USB_INT_LEVEL)
#  else
ISR(udd_interrupt, AVR32_USBB_IRQ_GROUP, UDD_USB_INT_LEVEL)
80003984:	2f f6       	sub	r6,-1
{
	uint8_t i;

	// For each endpoint, kill job
	for (i = 0; i < USB_DEVICE_MAX_EP; i++) {
		udd_ep_finish_job(&udd_ep_job[i], true, i + 1);
80003986:	0c 9a       	mov	r10,r6
80003988:	0a 9b       	mov	r11,r5
8000398a:	0e 9c       	mov	r12,r7
8000398c:	f0 1f 00 6a 	mcall	80003b34 <udd_interrupt+0x634>
80003990:	2e c7       	sub	r7,-20
static void udd_ep_job_table_kill(void)
{
	uint8_t i;

	// For each endpoint, kill job
	for (i = 0; i < USB_DEVICE_MAX_EP; i++) {
80003992:	58 36       	cp.w	r6,3
80003994:	cf 81       	brne	80003984 <udd_interrupt+0x484>
		// Abort all jobs on-going
#if (USB_DEVICE_MAX_EP != 0)
		udd_ep_job_table_kill();
#endif
		// Reset USB Device Stack Core
		udc_reset();
80003996:	f0 1f 00 69 	mcall	80003b38 <udd_interrupt+0x638>
static void udd_reset_ep_ctrl(void)
{
	irqflags_t flags;

	// Reset USB address to 0
	udd_configure_address(0);
8000399a:	fe 68 00 00 	mov	r8,-131072
8000399e:	70 09       	ld.w	r9,r8[0x0]
800039a0:	e0 19 ff 80 	andl	r9,0xff80
800039a4:	91 09       	st.w	r8[0x0],r9
	udd_enable_address();
800039a6:	70 09       	ld.w	r9,r8[0x0]
800039a8:	a7 b9       	sbr	r9,0x7
800039aa:	91 09       	st.w	r8[0x0],r9

	// Alloc and configure control endpoint
	udd_configure_endpoint(0,
800039ac:	fe 69 01 00 	mov	r9,-130816
800039b0:	72 0a       	ld.w	r10,r9[0x0]
800039b2:	30 8c       	mov	r12,8
800039b4:	34 0b       	mov	r11,64
800039b6:	f6 0c 0c 4b 	max	r11,r11,r12
800039ba:	e0 6c 04 00 	mov	r12,1024
800039be:	f6 0c 0d 4b 	min	r11,r11,r12
800039c2:	a1 7b       	lsl	r11,0x1
800039c4:	20 1b       	sub	r11,1
800039c6:	f6 0b 12 00 	clz	r11,r11
800039ca:	f6 0b 11 1c 	rsub	r11,r11,28
800039ce:	a5 6b       	lsl	r11,0x4
800039d0:	e2 1b 19 7c 	andl	r11,0x197c,COH
800039d4:	e0 1a e6 83 	andl	r10,0xe683
800039d8:	f7 ea 10 0a 	or	r10,r11,r10
800039dc:	93 0a       	st.w	r9[0x0],r10
			USB_EP_TYPE_CONTROL,
			0,
			USB_DEVICE_EP_CTRL_SIZE, AVR32_USBB_UECFG0_EPBK_SINGLE);

	udd_allocate_memory(0);
800039de:	72 0a       	ld.w	r10,r9[0x0]
800039e0:	a1 ba       	sbr	r10,0x1
800039e2:	93 0a       	st.w	r9[0x0],r10
	udd_enable_endpoint(0);
800039e4:	70 79       	ld.w	r9,r8[0x1c]
800039e6:	a1 a9       	sbr	r9,0x0
800039e8:	91 79       	st.w	r8[0x1c],r9

static inline irqflags_t cpu_irq_save(void)
{
	irqflags_t flags;

	flags = sysreg_read(AVR32_SR);
800039ea:	e1 ba 00 00 	mfsr	r10,0x0
	cpu_irq_disable();
800039ee:	d3 03       	ssrf	0x10
	flags = cpu_irq_save();
	udd_enable_setup_received_interrupt(0);
800039f0:	fe 69 01 f0 	mov	r9,-130576
800039f4:	30 4b       	mov	r11,4
800039f6:	93 0b       	st.w	r9[0x0],r11
	udd_enable_out_received_interrupt(0);
800039f8:	30 2b       	mov	r11,2
800039fa:	93 0b       	st.w	r9[0x0],r11
	udd_enable_endpoint_interrupt(0);
800039fc:	e0 69 10 00 	mov	r9,4096
80003a00:	91 69       	st.w	r8[0x18],r9
static inline void cpu_irq_restore(irqflags_t flags)
{
	barrier();

   /* Restore the global IRQ mask status flag if it was previously set */
   if ( cpu_irq_is_enabled_flags(flags) ) {
80003a02:	14 98       	mov	r8,r10
80003a04:	e6 18 00 01 	andh	r8,0x1,COH
80003a08:	c0 21       	brne	80003a0c <udd_interrupt+0x50c>
      cpu_irq_enable();
80003a0a:	d5 03       	csrf	0x10
		// Reset USB Device Stack Core
		udc_reset();
		// Reset endpoint control
		udd_reset_ep_ctrl();
		// Reset endpoint control management
		udd_ctrl_init();
80003a0c:	f0 1f 00 40 	mcall	80003b0c <udd_interrupt+0x60c>
		goto udd_interrupt_end;
80003a10:	c6 48       	rjmp	80003ad8 <udd_interrupt+0x5d8>
	}

	if (Is_udd_suspend_interrupt_enabled() && Is_udd_suspend()) {
80003a12:	fe 68 00 10 	mov	r8,-131056
80003a16:	70 08       	ld.w	r8,r8[0x0]
80003a18:	f1 d8 c0 01 	bfextu	r8,r8,0x0,0x1
80003a1c:	c1 d0       	breq	80003a56 <udd_interrupt+0x556>
80003a1e:	fe 68 00 04 	mov	r8,-131068
80003a22:	70 08       	ld.w	r8,r8[0x0]
80003a24:	f1 d8 c0 01 	bfextu	r8,r8,0x0,0x1
80003a28:	c1 70       	breq	80003a56 <udd_interrupt+0x556>
		otg_unfreeze_clock();
80003a2a:	fe 68 08 00 	mov	r8,-129024
80003a2e:	70 09       	ld.w	r9,r8[0x0]
80003a30:	af c9       	cbr	r9,0xe
80003a32:	91 09       	st.w	r8[0x0],r9
		// The suspend interrupt is automatic acked when a wakeup occur
		udd_disable_suspend_interrupt();
80003a34:	30 1a       	mov	r10,1
80003a36:	fe 69 00 14 	mov	r9,-131052
80003a3a:	93 0a       	st.w	r9[0x0],r10
		udd_enable_wake_up_interrupt();
80003a3c:	31 0a       	mov	r10,16
80003a3e:	fe 69 00 18 	mov	r9,-131048
80003a42:	93 0a       	st.w	r9[0x0],r10
		otg_freeze_clock(); // Mandatory to exit of sleep mode after a wakeup event
80003a44:	70 09       	ld.w	r9,r8[0x0]
80003a46:	af a9       	sbr	r9,0xe
80003a48:	91 09       	st.w	r8[0x0],r9
		udd_sleep_mode(false); // Enter in SUSPEND mode
80003a4a:	30 0c       	mov	r12,0
80003a4c:	f0 1f 00 3c 	mcall	80003b3c <udd_interrupt+0x63c>
#ifdef UDC_SUSPEND_EVENT
		UDC_SUSPEND_EVENT();
80003a50:	f0 1f 00 3c 	mcall	80003b40 <udd_interrupt+0x640>
#endif
		goto udd_interrupt_end;
80003a54:	c4 28       	rjmp	80003ad8 <udd_interrupt+0x5d8>
	}

	if (Is_udd_wake_up_interrupt_enabled() && Is_udd_wake_up()) {
80003a56:	fe 68 00 10 	mov	r8,-131056
80003a5a:	70 08       	ld.w	r8,r8[0x0]
80003a5c:	e2 18 00 10 	andl	r8,0x10,COH
80003a60:	c1 f0       	breq	80003a9e <udd_interrupt+0x59e>
80003a62:	fe 68 00 04 	mov	r8,-131068
80003a66:	70 08       	ld.w	r8,r8[0x0]
80003a68:	e2 18 00 10 	andl	r8,0x10,COH
80003a6c:	c1 90       	breq	80003a9e <udd_interrupt+0x59e>
		// Ack wakeup interrupt and enable suspend interrupt
		otg_unfreeze_clock();
80003a6e:	fe 68 08 00 	mov	r8,-129024
80003a72:	70 09       	ld.w	r9,r8[0x0]
80003a74:	af c9       	cbr	r9,0xe
80003a76:	91 09       	st.w	r8[0x0],r9

		// Check USB clock ready after suspend and eventually sleep USB clock
		while( !Is_otg_clock_usable() );
80003a78:	fe 69 08 04 	mov	r9,-129020
80003a7c:	72 08       	ld.w	r8,r9[0x0]
80003a7e:	e2 18 40 00 	andl	r8,0x4000,COH
80003a82:	cf d0       	breq	80003a7c <udd_interrupt+0x57c>

		// The wakeup interrupt is automatic acked when a suspend occur
		udd_disable_wake_up_interrupt();
80003a84:	31 09       	mov	r9,16
80003a86:	fe 68 00 14 	mov	r8,-131052
80003a8a:	91 09       	st.w	r8[0x0],r9
		udd_enable_suspend_interrupt();
80003a8c:	30 1c       	mov	r12,1
80003a8e:	fe 68 00 18 	mov	r8,-131048
80003a92:	91 0c       	st.w	r8[0x0],r12
		udd_sleep_mode(true); // Enter in IDLE mode
80003a94:	f0 1f 00 2a 	mcall	80003b3c <udd_interrupt+0x63c>
#ifdef UDC_RESUME_EVENT
		UDC_RESUME_EVENT();
80003a98:	f0 1f 00 2b 	mcall	80003b44 <udd_interrupt+0x644>
#endif
		goto udd_interrupt_end;
80003a9c:	c1 e8       	rjmp	80003ad8 <udd_interrupt+0x5d8>
	}

	if (Is_otg_vbus_transition()) {
80003a9e:	fe 68 08 04 	mov	r8,-129020
80003aa2:	70 08       	ld.w	r8,r8[0x0]
80003aa4:	e2 18 00 02 	andl	r8,0x2,COH
80003aa8:	c1 80       	breq	80003ad8 <udd_interrupt+0x5d8>
		// Ack Vbus transition and send status to high level
		otg_unfreeze_clock();
80003aaa:	fe 68 08 00 	mov	r8,-129024
80003aae:	70 09       	ld.w	r9,r8[0x0]
80003ab0:	af c9       	cbr	r9,0xe
80003ab2:	91 09       	st.w	r8[0x0],r9
		otg_ack_vbus_transition();
80003ab4:	30 2a       	mov	r10,2
80003ab6:	fe 69 08 08 	mov	r9,-129016
80003aba:	93 0a       	st.w	r9[0x0],r10
		otg_freeze_clock();
80003abc:	70 09       	ld.w	r9,r8[0x0]
80003abe:	af a9       	sbr	r9,0xe
80003ac0:	91 09       	st.w	r8[0x0],r9
#ifndef USB_DEVICE_ATTACH_AUTO_DISABLE
		if (Is_otg_vbus_high()) {
80003ac2:	fe 68 08 04 	mov	r8,-129020
80003ac6:	70 08       	ld.w	r8,r8[0x0]
80003ac8:	e2 18 08 00 	andl	r8,0x800,COH
80003acc:	c0 40       	breq	80003ad4 <udd_interrupt+0x5d4>
			udd_attach();
80003ace:	f0 1f 00 1f 	mcall	80003b48 <udd_interrupt+0x648>
80003ad2:	c0 38       	rjmp	80003ad8 <udd_interrupt+0x5d8>
		} else {
			udd_detach();
80003ad4:	f0 1f 00 1e 	mcall	80003b4c <udd_interrupt+0x64c>
		UDC_VBUS_EVENT(Is_otg_vbus_high());
#endif
		goto udd_interrupt_end;
	}
udd_interrupt_end:
	otg_data_memory_barrier();
80003ad8:	fe 68 00 00 	mov	r8,-131072
80003adc:	f0 f8 08 18 	ld.w	r8,r8[2072]
	// consider that exiting from the USB interrupt will require a context switch.
	return pdTRUE;
#else
	return;
#endif
}
80003ae0:	e3 cd 40 fe 	ldm	sp++,r1-r7,lr
80003ae4:	d6 03       	rete
	uint8_t *ptr_src = (uint8_t *) & udd_get_endpoint_fifo_access(0, 8);
	uint8_t *ptr_dest = udd_g_ctrlreq.payload + udd_ctrl_payload_nb_trans;
	for (i = 0; i < nb_data; i++) {
		*ptr_dest++ = *ptr_src++;
	}
	udd_ctrl_payload_nb_trans += nb_data;
80003ae6:	48 f9       	lddpc	r9,80003b20 <udd_interrupt+0x620>
80003ae8:	b2 08       	st.h	r9[0x0],r8
80003aea:	fe 9f fe 31 	bral	8000374c <udd_interrupt+0x24c>
	if (udd_ep_interrupt())
		goto udd_interrupt_end; // Interrupt acked by bulk/interrupt/isochronous endpoint managed
#endif

	// USB bus reset detection
	if (Is_udd_reset()) {
80003aee:	fe 68 00 04 	mov	r8,-131068
80003af2:	70 08       	ld.w	r8,r8[0x0]
80003af4:	e2 18 00 08 	andl	r8,0x8,COH
80003af8:	c8 d0       	breq	80003a12 <udd_interrupt+0x512>
80003afa:	c3 fb       	rjmp	80003978 <udd_interrupt+0x478>
80003afc:	80 00       	ld.sh	r0,r0[0x0]
80003afe:	43 34       	lddsp	r4,sp[0xcc]
80003b00:	80 00       	ld.sh	r0,r0[0x0]
80003b02:	4e c0       	lddpc	r0,80003cb0 <sysclk_init+0x20>
80003b04:	00 00       	add	r0,r0
80003b06:	07 00       	ld.w	r0,r3++
80003b08:	80 00       	ld.sh	r0,r0[0x0]
80003b0a:	2d 70       	sub	r0,-41
80003b0c:	80 00       	ld.sh	r0,r0[0x0]
80003b0e:	31 3c       	mov	r12,19
80003b10:	80 00       	ld.sh	r0,r0[0x0]
80003b12:	2d 58       	sub	r8,-43
80003b14:	00 00       	add	r0,r0
80003b16:	0f 64       	ld.uh	r4,--r7
80003b18:	80 00       	ld.sh	r0,r0[0x0]
80003b1a:	45 b4       	lddsp	r4,sp[0x16c]
80003b1c:	00 00       	add	r0,r0
80003b1e:	06 b8       	st.h	r3++,r8
80003b20:	00 00       	add	r0,r0
80003b22:	06 fa       	st.b	--r3,r10
80003b24:	80 00       	ld.sh	r0,r0[0x0]
80003b26:	31 74       	mov	r4,23
80003b28:	80 00       	ld.sh	r0,r0[0x0]
80003b2a:	31 0c       	mov	r12,16
80003b2c:	00 00       	add	r0,r0
80003b2e:	06 bc       	st.h	r3++,r12
80003b30:	80 00       	ld.sh	r0,r0[0x0]
80003b32:	2e a4       	sub	r4,-22
80003b34:	80 00       	ld.sh	r0,r0[0x0]
80003b36:	2d 84       	sub	r4,-40
80003b38:	80 00       	ld.sh	r0,r0[0x0]
80003b3a:	45 54       	lddsp	r4,sp[0x154]
80003b3c:	80 00       	ld.sh	r0,r0[0x0]
80003b3e:	2b 4c       	sub	r12,-76
80003b40:	80 00       	ld.sh	r0,r0[0x0]
80003b42:	4e f0       	lddpc	r0,80003cfc <sysclk_init+0x6c>
80003b44:	80 00       	ld.sh	r0,r0[0x0]
80003b46:	4e e4       	lddpc	r4,80003cfc <sysclk_init+0x6c>
80003b48:	80 00       	ld.sh	r0,r0[0x0]
80003b4a:	30 98       	mov	r8,9
80003b4c:	80 00       	ld.sh	r0,r0[0x0]
80003b4e:	2b 58       	sub	r8,-75

80003b50 <_stext>:

  .global _stext
  .type _stext, @function
_stext:
  // Set initial stack pointer.
  lda.w   sp, _estack
80003b50:	e0 6d 80 00 	mov	sp,32768

  // Set up EVBA so interrupts can be enabled.
  lda.w   r0, _evba
  mtsr    AVR32_EVBA, r0
80003b54:	fe c0 89 54 	sub	r0,pc,-30380

  // Enable the exception processing.
  csrf    AVR32_SR_EM_OFFSET
80003b58:	e3 b0 00 01 	mtsr	0x4,r0

  // Load initialized data having a global lifetime from the data LMA.
  lda.w   r0, _data
  lda.w   r1, _edata
80003b5c:	d5 53       	csrf	0x15
  cp      r0, r1
80003b5e:	30 80       	mov	r0,8
  brhs    idata_load_loop_end
80003b60:	e0 61 05 f8 	mov	r1,1528
  lda.w   r2, _data_lma
idata_load_loop:
  ld.d    r4, r2++
80003b64:	02 30       	cp.w	r0,r1
  st.d    r0++, r4
80003b66:	c0 62       	brcc	80003b72 <idata_load_loop_end>
  cp      r0, r1
80003b68:	48 92       	lddpc	r2,80003b8c <udata_clear_loop_end+0x4>

80003b6a <idata_load_loop>:
  brlo    idata_load_loop
80003b6a:	a5 05       	ld.d	r4,r2++
idata_load_loop_end:

  // Clear uninitialized data having a global lifetime in the blank static storage section.
  lda.w   r0, __bss_start
80003b6c:	a1 24       	st.d	r0++,r4
  lda.w   r1, _end
80003b6e:	02 30       	cp.w	r0,r1
  cp      r0, r1
80003b70:	cf d3       	brcs	80003b6a <idata_load_loop>

80003b72 <idata_load_loop_end>:
  brhs    udata_clear_loop_end
80003b72:	e0 60 05 f8 	mov	r0,1528
  mov     r2, 0
  mov     r3, 0
80003b76:	e0 61 0f a0 	mov	r1,4000
udata_clear_loop:
  st.d    r0++, r2
  cp      r0, r1
80003b7a:	02 30       	cp.w	r0,r1
  brlo    udata_clear_loop
80003b7c:	c0 62       	brcc	80003b88 <udata_clear_loop_end>
  // Safety: Set the default "return" @ to the exit routine address.
  lda.w   lr, exit
#endif

  // Start the show.
  lda.w   pc, main
80003b7e:	30 02       	mov	r2,0
80003b80:	30 03       	mov	r3,0

80003b82 <udata_clear_loop>:
80003b82:	a1 22       	st.d	r0++,r2
80003b84:	02 30       	cp.w	r0,r1
80003b86:	cf e3       	brcs	80003b82 <udata_clear_loop>

80003b88 <udata_clear_loop_end>:
80003b88:	fe cf ea 14 	sub	pc,pc,-5612
80003b8c:	80 00       	ld.sh	r0,r0[0x0]
80003b8e:	bc e0       	st.b	lr[0x6],r0

80003b90 <sysclk_priv_enable_module>:

static inline irqflags_t cpu_irq_save(void)
{
	irqflags_t flags;

	flags = sysreg_read(AVR32_SR);
80003b90:	e1 ba 00 00 	mfsr	r10,0x0
	cpu_irq_disable();
80003b94:	d3 03       	ssrf	0x10

	/*
	 * Poll MSKRDY before changing mask rather than after, as it's
	 * highly unlikely to actually be cleared at this point.
	 */
	while (!(AVR32_PM.poscsr & (1U << AVR32_PM_POSCSR_MSKRDY))) {
80003b96:	fe 78 0c 00 	mov	r8,-62464
80003b9a:	71 59       	ld.w	r9,r8[0x54]
80003b9c:	e2 19 00 40 	andl	r9,0x40,COH
80003ba0:	cf d0       	breq	80003b9a <sysclk_priv_enable_module+0xa>
		/* Do nothing */
	}

	/* Enable the clock */
	mask = *(&AVR32_PM.cpumask + bus_id);
80003ba2:	a3 6c       	lsl	r12,0x2
80003ba4:	e0 2c f3 f8 	sub	r12,62456
80003ba8:	78 08       	ld.w	r8,r12[0x0]
	mask |= 1U << module_index;
80003baa:	30 19       	mov	r9,1
80003bac:	f2 0b 09 4b 	lsl	r11,r9,r11
80003bb0:	10 4b       	or	r11,r8
	*(&AVR32_PM.cpumask + bus_id) = mask;
80003bb2:	99 0b       	st.w	r12[0x0],r11
static inline void cpu_irq_restore(irqflags_t flags)
{
	barrier();

   /* Restore the global IRQ mask status flag if it was previously set */
   if ( cpu_irq_is_enabled_flags(flags) ) {
80003bb4:	14 98       	mov	r8,r10
80003bb6:	e6 18 00 01 	andh	r8,0x1,COH
80003bba:	c0 21       	brne	80003bbe <sysclk_priv_enable_module+0x2e>
      cpu_irq_enable();
80003bbc:	d5 03       	csrf	0x10

	cpu_irq_restore(flags);
}
80003bbe:	5e fc       	retal	r12

80003bc0 <sysclk_enable_pbb_module>:
/**
 * \brief Enable a module clock derived from the PBB clock
 * \param index Index of the module clock in the PBBMASK register
 */
void sysclk_enable_pbb_module(unsigned int index)
{
80003bc0:	eb cd 40 c0 	pushm	r6-r7,lr
80003bc4:	18 97       	mov	r7,r12

static inline irqflags_t cpu_irq_save(void)
{
	irqflags_t flags;

	flags = sysreg_read(AVR32_SR);
80003bc6:	e1 b6 00 00 	mfsr	r6,0x0
	cpu_irq_disable();
80003bca:	d3 03       	ssrf	0x10
	irqflags_t flags;

	/* Enable the bridge if necessary */
	flags = cpu_irq_save();

	if (!sysclk_pbb_refcount)
80003bcc:	48 c8       	lddpc	r8,80003bfc <sysclk_enable_pbb_module+0x3c>
80003bce:	11 89       	ld.ub	r9,r8[0x0]
80003bd0:	30 08       	mov	r8,0
80003bd2:	f0 09 18 00 	cp.b	r9,r8
80003bd6:	c0 51       	brne	80003be0 <sysclk_enable_pbb_module+0x20>
 * \brief Enable a module clock derived from the HSB clock
 * \param index Index of the module clock in the HSBMASK register
 */
static inline void sysclk_enable_hsb_module(unsigned int index)
{
	sysclk_priv_enable_module(AVR32_PM_CLK_GRP_HSB, index);
80003bd8:	30 2b       	mov	r11,2
80003bda:	30 1c       	mov	r12,1
80003bdc:	f0 1f 00 09 	mcall	80003c00 <sysclk_enable_pbb_module+0x40>
		sysclk_enable_hsb_module(SYSCLK_PBB_BRIDGE);
	sysclk_pbb_refcount++;
80003be0:	48 78       	lddpc	r8,80003bfc <sysclk_enable_pbb_module+0x3c>
80003be2:	11 89       	ld.ub	r9,r8[0x0]
80003be4:	2f f9       	sub	r9,-1
80003be6:	b0 89       	st.b	r8[0x0],r9
static inline void cpu_irq_restore(irqflags_t flags)
{
	barrier();

   /* Restore the global IRQ mask status flag if it was previously set */
   if ( cpu_irq_is_enabled_flags(flags) ) {
80003be8:	e6 16 00 01 	andh	r6,0x1,COH
80003bec:	c0 21       	brne	80003bf0 <sysclk_enable_pbb_module+0x30>
      cpu_irq_enable();
80003bee:	d5 03       	csrf	0x10

	cpu_irq_restore(flags);

	/* Enable the module */
	sysclk_priv_enable_module(AVR32_PM_CLK_GRP_PBB, index);
80003bf0:	0e 9b       	mov	r11,r7
80003bf2:	30 3c       	mov	r12,3
80003bf4:	f0 1f 00 03 	mcall	80003c00 <sysclk_enable_pbb_module+0x40>
}
80003bf8:	e3 cd 80 c0 	ldm	sp++,r6-r7,pc
80003bfc:	00 00       	add	r0,r0
80003bfe:	07 04       	ld.w	r4,r3++
80003c00:	80 00       	ld.sh	r0,r0[0x0]
80003c02:	3b 90       	mov	r0,-71

80003c04 <sysclk_enable_usb>:
 * \pre The USB generic clock must be configured to 48MHz.
 * CONFIG_USBCLK_SOURCE and CONFIG_USBCLK_DIV must be defined with proper
 * configuration. The selected clock source must also be configured.
 */
void sysclk_enable_usb(void)
{
80003c04:	d4 01       	pushm	lr
	sysclk_enable_pbb_module(SYSCLK_USBB_REGS);
80003c06:	30 1c       	mov	r12,1
80003c08:	f0 1f 00 20 	mcall	80003c88 <sysclk_enable_usb+0x84>
80003c0c:	30 3b       	mov	r11,3
80003c0e:	30 1c       	mov	r12,1
80003c10:	f0 1f 00 1f 	mcall	80003c8c <sysclk_enable_usb+0x88>

static inline bool pll_is_locked(unsigned int pll_id)
{
	Assert(pll_id < NR_PLLS);

	return !!(AVR32_PM.poscsr & (1U << (AVR32_PM_POSCSR_LOCK0 + pll_id)));
80003c14:	fe 78 0c 00 	mov	r8,-62464
80003c18:	71 58       	ld.w	r8,r8[0x54]

static inline void pll_enable_config_defaults(unsigned int pll_id)
{
	struct pll_config pllcfg;

	if (pll_is_locked(pll_id)) {
80003c1a:	f1 d8 c0 01 	bfextu	r8,r8,0x0,0x1
80003c1e:	c2 f1       	brne	80003c7c <sysclk_enable_usb+0x78>
static inline bool osc_is_ready(uint8_t id)
{
	switch (id) {
#ifdef BOARD_OSC0_HZ
	case OSC_ID_OSC0:
		return !!(AVR32_PM.poscsr & (1U << AVR32_PM_POSCSR_OSC0RDY));
80003c20:	fe 78 0c 00 	mov	r8,-62464
80003c24:	71 58       	ld.w	r8,r8[0x54]

static inline void pll_enable_source(enum pll_source src)
{
	switch (src) {
	case PLL_SRC_OSC0:
		if (!osc_is_ready(OSC_ID_OSC0)) {
80003c26:	e2 18 00 80 	andl	r8,0x80,COH
80003c2a:	c1 71       	brne	80003c58 <sysclk_enable_usb+0x54>

static inline irqflags_t cpu_irq_save(void)
{
	irqflags_t flags;

	flags = sysreg_read(AVR32_SR);
80003c2c:	e1 b9 00 00 	mfsr	r9,0x0
	cpu_irq_disable();
80003c30:	d3 03       	ssrf	0x10
#ifdef BOARD_OSC0_HZ
	case OSC_ID_OSC0:
		oscctrl = OSC0_STARTUP_VALUE <<
				AVR32_PM_OSCCTRL0_STARTUP_OFFSET;
		oscctrl |= OSC0_MODE_VALUE << AVR32_PM_OSCCTRL0_MODE_OFFSET;
		AVR32_PM.oscctrl0 = oscctrl;
80003c32:	fe 78 0c 00 	mov	r8,-62464
80003c36:	e0 6a 03 07 	mov	r10,775
80003c3a:	91 aa       	st.w	r8[0x28],r10
		AVR32_PM.mcctrl |= 1U << AVR32_PM_MCCTRL_OSC0EN;
80003c3c:	70 0a       	ld.w	r10,r8[0x0]
80003c3e:	a3 aa       	sbr	r10,0x2
80003c40:	91 0a       	st.w	r8[0x0],r10
static inline void cpu_irq_restore(irqflags_t flags)
{
	barrier();

   /* Restore the global IRQ mask status flag if it was previously set */
   if ( cpu_irq_is_enabled_flags(flags) ) {
80003c42:	12 98       	mov	r8,r9
80003c44:	e6 18 00 01 	andh	r8,0x1,COH
80003c48:	c0 21       	brne	80003c4c <sysclk_enable_usb+0x48>
      cpu_irq_enable();
80003c4a:	d5 03       	csrf	0x10
static inline bool osc_is_ready(uint8_t id)
{
	switch (id) {
#ifdef BOARD_OSC0_HZ
	case OSC_ID_OSC0:
		return !!(AVR32_PM.poscsr & (1U << AVR32_PM_POSCSR_OSC0RDY));
80003c4c:	fe 79 0c 00 	mov	r9,-62464
80003c50:	73 58       	ld.w	r8,r9[0x54]
 *
 * \param id A number identifying the oscillator to wait for.
 */
static inline void osc_wait_ready(uint8_t id)
{
	while (!osc_is_ready(id)) {
80003c52:	e2 18 00 80 	andl	r8,0x80,COH
80003c56:	cf d0       	breq	80003c50 <sysclk_enable_usb+0x4c>
	cfg->ctrl = 0;

	/* Bring the internal VCO frequency up to the minimum value */
	if ((vco_hz < PLL_MIN_HZ * 2) && (mul <= 8)) {
		mul *= 2;
		vco_hz *= 2;
80003c58:	30 88       	mov	r8,8
static inline void pll_config_set_option(struct pll_config *cfg,
		unsigned int option)
{
	Assert(option < PLL_NR_OPTIONS);

	cfg->ctrl |= 1U << (AVR32_PM_PLL0_PLLOPT + option);
80003c5a:	a3 a8       	sbr	r8,0x2
static inline void pll_enable(const struct pll_config *cfg,
		unsigned int pll_id)
{
	Assert(pll_id < NR_PLLS);

	AVR32_PM.pll[pll_id] = cfg->ctrl | (1U << AVR32_PM_PLL0_PLLEN);
80003c5c:	31 09       	mov	r9,16
80003c5e:	20 19       	sub	r9,1
80003c60:	b1 69       	lsl	r9,0x10
80003c62:	ea 19 3f 00 	orh	r9,0x3f00
80003c66:	e8 19 02 01 	orl	r9,0x201
80003c6a:	f3 e8 10 08 	or	r8,r9,r8
80003c6e:	fe 79 0c 00 	mov	r9,-62464
80003c72:	93 88       	st.w	r9[0x20],r8

static inline bool pll_is_locked(unsigned int pll_id)
{
	Assert(pll_id < NR_PLLS);

	return !!(AVR32_PM.poscsr & (1U << (AVR32_PM_POSCSR_LOCK0 + pll_id)));
80003c74:	73 58       	ld.w	r8,r9[0x54]
	default:
		Assert(false);
		break;
	}
	pll_enable(&pllcfg, pll_id);
	while (!pll_is_locked(pll_id));
80003c76:	f1 d8 c0 01 	bfextu	r8,r8,0x0,0x1
80003c7a:	cf d0       	breq	80003c74 <sysclk_enable_usb+0x70>
}

static inline void genclk_enable(const struct genclk_config *cfg,
		unsigned int id)
{
	AVR32_PM.gcctrl[id] = cfg->ctrl | (1U << AVR32_PM_GCCTRL_CEN);
80003c7c:	30 69       	mov	r9,6
80003c7e:	fe 78 0c 00 	mov	r8,-62464
80003c82:	f1 49 00 6c 	st.w	r8[108],r9
	sysclk_enable_hsb_module(SYSCLK_USBB_DATA);
	genclk_enable_config(AVR32_PM_GCLK_USBB, CONFIG_USBCLK_SOURCE, CONFIG_USBCLK_DIV);
}
80003c86:	d8 02       	popm	pc
80003c88:	80 00       	ld.sh	r0,r0[0x0]
80003c8a:	3b c0       	mov	r0,-68
80003c8c:	80 00       	ld.sh	r0,r0[0x0]
80003c8e:	3b 90       	mov	r0,-71

80003c90 <sysclk_init>:
}
#endif // CONFIG_USBCLK_SOURCE


void sysclk_init(void)
{
80003c90:	d4 01       	pushm	lr

static inline bool pll_is_locked(unsigned int pll_id)
{
	Assert(pll_id < NR_PLLS);

	return !!(AVR32_PM.poscsr & (1U << (AVR32_PM_POSCSR_LOCK0 + pll_id)));
80003c92:	fe 78 0c 00 	mov	r8,-62464
80003c96:	71 58       	ld.w	r8,r8[0x54]

static inline void pll_enable_config_defaults(unsigned int pll_id)
{
	struct pll_config pllcfg;

	if (pll_is_locked(pll_id)) {
80003c98:	f1 d8 c0 01 	bfextu	r8,r8,0x0,0x1
80003c9c:	c2 f1       	brne	80003cfa <sysclk_init+0x6a>
80003c9e:	fe 78 0c 00 	mov	r8,-62464
80003ca2:	71 58       	ld.w	r8,r8[0x54]

static inline void pll_enable_source(enum pll_source src)
{
	switch (src) {
	case PLL_SRC_OSC0:
		if (!osc_is_ready(OSC_ID_OSC0)) {
80003ca4:	e2 18 00 80 	andl	r8,0x80,COH
80003ca8:	c1 71       	brne	80003cd6 <sysclk_init+0x46>

static inline irqflags_t cpu_irq_save(void)
{
	irqflags_t flags;

	flags = sysreg_read(AVR32_SR);
80003caa:	e1 b9 00 00 	mfsr	r9,0x0
	cpu_irq_disable();
80003cae:	d3 03       	ssrf	0x10
#ifdef BOARD_OSC0_HZ
	case OSC_ID_OSC0:
		oscctrl = OSC0_STARTUP_VALUE <<
				AVR32_PM_OSCCTRL0_STARTUP_OFFSET;
		oscctrl |= OSC0_MODE_VALUE << AVR32_PM_OSCCTRL0_MODE_OFFSET;
		AVR32_PM.oscctrl0 = oscctrl;
80003cb0:	fe 78 0c 00 	mov	r8,-62464
80003cb4:	e0 6a 03 07 	mov	r10,775
80003cb8:	91 aa       	st.w	r8[0x28],r10
		AVR32_PM.mcctrl |= 1U << AVR32_PM_MCCTRL_OSC0EN;
80003cba:	70 0a       	ld.w	r10,r8[0x0]
80003cbc:	a3 aa       	sbr	r10,0x2
80003cbe:	91 0a       	st.w	r8[0x0],r10
static inline void cpu_irq_restore(irqflags_t flags)
{
	barrier();

   /* Restore the global IRQ mask status flag if it was previously set */
   if ( cpu_irq_is_enabled_flags(flags) ) {
80003cc0:	12 98       	mov	r8,r9
80003cc2:	e6 18 00 01 	andh	r8,0x1,COH
80003cc6:	c0 21       	brne	80003cca <sysclk_init+0x3a>
      cpu_irq_enable();
80003cc8:	d5 03       	csrf	0x10
static inline bool osc_is_ready(uint8_t id)
{
	switch (id) {
#ifdef BOARD_OSC0_HZ
	case OSC_ID_OSC0:
		return !!(AVR32_PM.poscsr & (1U << AVR32_PM_POSCSR_OSC0RDY));
80003cca:	fe 79 0c 00 	mov	r9,-62464
80003cce:	73 58       	ld.w	r8,r9[0x54]
80003cd0:	e2 18 00 80 	andl	r8,0x80,COH
80003cd4:	cf d0       	breq	80003cce <sysclk_init+0x3e>
	cfg->ctrl = 0;

	/* Bring the internal VCO frequency up to the minimum value */
	if ((vco_hz < PLL_MIN_HZ * 2) && (mul <= 8)) {
		mul *= 2;
		vco_hz *= 2;
80003cd6:	30 88       	mov	r8,8
static inline void pll_config_set_option(struct pll_config *cfg,
		unsigned int option)
{
	Assert(option < PLL_NR_OPTIONS);

	cfg->ctrl |= 1U << (AVR32_PM_PLL0_PLLOPT + option);
80003cd8:	a3 a8       	sbr	r8,0x2
static inline void pll_enable(const struct pll_config *cfg,
		unsigned int pll_id)
{
	Assert(pll_id < NR_PLLS);

	AVR32_PM.pll[pll_id] = cfg->ctrl | (1U << AVR32_PM_PLL0_PLLEN);
80003cda:	31 09       	mov	r9,16
80003cdc:	20 19       	sub	r9,1
80003cde:	b1 69       	lsl	r9,0x10
80003ce0:	ea 19 3f 00 	orh	r9,0x3f00
80003ce4:	e8 19 02 01 	orl	r9,0x201
80003ce8:	f3 e8 10 08 	or	r8,r9,r8
80003cec:	fe 79 0c 00 	mov	r9,-62464
80003cf0:	93 88       	st.w	r9[0x20],r8

static inline bool pll_is_locked(unsigned int pll_id)
{
	Assert(pll_id < NR_PLLS);

	return !!(AVR32_PM.poscsr & (1U << (AVR32_PM_POSCSR_LOCK0 + pll_id)));
80003cf2:	73 58       	ld.w	r8,r9[0x54]
	default:
		Assert(false);
		break;
	}
	pll_enable(&pllcfg, pll_id);
	while (!pll_is_locked(pll_id));
80003cf4:	f1 d8 c0 01 	bfextu	r8,r8,0x0,0x1
80003cf8:	cf d0       	breq	80003cf2 <sysclk_init+0x62>

#ifdef CONFIG_PLL0_SOURCE
	case SYSCLK_SRC_PLL0: {
		pll_enable_config_defaults(0);
		// Set a flash wait state depending on the new cpu frequency.
		flash_set_bus_freq(sysclk_get_cpu_hz());
80003cfa:	e0 6c 6c 00 	mov	r12,27648
80003cfe:	ea 1c 02 dc 	orh	r12,0x2dc
80003d02:	f0 1f 00 0a 	mcall	80003d28 <sysclk_init+0x98>

static inline irqflags_t cpu_irq_save(void)
{
	irqflags_t flags;

	flags = sysreg_read(AVR32_SR);
80003d06:	e1 b9 00 00 	mfsr	r9,0x0
	cpu_irq_disable();
80003d0a:	d3 03       	ssrf	0x10
	irqflags_t flags;

	Assert(src <= SYSCLK_SRC_PLL0);

	flags = cpu_irq_save();
	mcctrl = AVR32_PM.mcctrl & ~AVR32_PM_MCCTRL_MCSEL_MASK;
80003d0c:	fe 78 0c 00 	mov	r8,-62464
80003d10:	70 0a       	ld.w	r10,r8[0x0]
80003d12:	e0 1a ff fc 	andl	r10,0xfffc
	mcctrl |= src << AVR32_PM_MCCTRL_MCSEL;
80003d16:	a1 ba       	sbr	r10,0x1
	AVR32_PM.mcctrl = mcctrl;
80003d18:	91 0a       	st.w	r8[0x0],r10
static inline void cpu_irq_restore(irqflags_t flags)
{
	barrier();

   /* Restore the global IRQ mask status flag if it was previously set */
   if ( cpu_irq_is_enabled_flags(flags) ) {
80003d1a:	12 98       	mov	r8,r9
80003d1c:	e6 18 00 01 	andh	r8,0x1,COH
80003d20:	c0 21       	brne	80003d24 <sysclk_init+0x94>
      cpu_irq_enable();
80003d22:	d5 03       	csrf	0x10

#if (defined CONFIG_SYSCLK_DEFAULT_RETURNS_SLOW_OSC)
	/* Signal that the internal frequencies are setup */
	sysclk_initialized = true;
#endif
}
80003d24:	d8 02       	popm	pc
80003d26:	00 00       	add	r0,r0
80003d28:	80 00       	ld.sh	r0,r0[0x0]
80003d2a:	27 00       	sub	r0,112

80003d2c <udi_cdc_comm_disable>:
}

void udi_cdc_comm_disable(void)
{
	Assert(udi_cdc_nb_comm_enabled != 0);
	udi_cdc_nb_comm_enabled--;
80003d2c:	48 38       	lddpc	r8,80003d38 <udi_cdc_comm_disable+0xc>
80003d2e:	11 89       	ld.ub	r9,r8[0x0]
80003d30:	20 19       	sub	r9,1
80003d32:	b0 89       	st.b	r8[0x0],r9
}
80003d34:	5e fc       	retal	r12
80003d36:	00 00       	add	r0,r0
80003d38:	00 00       	add	r0,r0
80003d3a:	09 9c       	ld.ub	r12,r4[0x1]

80003d3c <udi_cdc_data_setup>:
}

bool udi_cdc_data_setup(void)
{
	return false;  // request Not supported
}
80003d3c:	5e fd       	retal	0

80003d3e <udi_cdc_getsetting>:

uint8_t udi_cdc_getsetting(void)
{
	return 0;      // CDC don't have multiple alternate setting
}
80003d3e:	5e fd       	retal	0

80003d40 <udi_cdc_setup_to_port>:
	default:
		port = 0;
		break;
	}
	return port;
}
80003d40:	5e fd       	retal	0
80003d42:	d7 03       	nop

80003d44 <udi_cdc_multi_get_free_tx_buffer>:

static inline irqflags_t cpu_irq_save(void)
{
	irqflags_t flags;

	flags = sysreg_read(AVR32_SR);
80003d44:	e1 bb 00 00 	mfsr	r11,0x0
	cpu_irq_disable();
80003d48:	d3 03       	ssrf	0x10
#if UDI_CDC_PORT_NB == 1 // To optimize code
	port = 0;
#endif

	flags = cpu_irq_save();
	buf_sel = udi_cdc_tx_buf_sel[port];
80003d4a:	49 78       	lddpc	r8,80003da4 <udi_cdc_multi_get_free_tx_buffer+0x60>
80003d4c:	11 88       	ld.ub	r8,r8[0x0]
	buf_sel_nb = udi_cdc_tx_buf_nb[port][buf_sel];
80003d4e:	49 7a       	lddpc	r10,80003da8 <udi_cdc_multi_get_free_tx_buffer+0x64>
80003d50:	f4 08 05 19 	ld.uh	r9,r10[r8<<0x1]
	buf_nosel_nb = udi_cdc_tx_buf_nb[port][(buf_sel == 0)? 1 : 0];
80003d54:	58 08       	cp.w	r8,0
80003d56:	f9 bc 01 00 	movne	r12,0
80003d5a:	f9 bc 00 02 	moveq	r12,2
80003d5e:	f4 0c 05 0a 	ld.uh	r10,r10[r12]
	if (buf_sel_nb == UDI_CDC_TX_BUFFERS) {
80003d62:	e0 49 01 40 	cp.w	r9,320
80003d66:	c1 31       	brne	80003d8c <udi_cdc_multi_get_free_tx_buffer+0x48>
		if ((!udi_cdc_tx_trans_ongoing[port])
80003d68:	49 1c       	lddpc	r12,80003dac <udi_cdc_multi_get_free_tx_buffer+0x68>
80003d6a:	19 8c       	ld.ub	r12,r12[0x0]
80003d6c:	58 0c       	cp.w	r12,0
80003d6e:	c0 f1       	brne	80003d8c <udi_cdc_multi_get_free_tx_buffer+0x48>
			&& (!udi_cdc_tx_both_buf_to_send[port])) {
80003d70:	49 0c       	lddpc	r12,80003db0 <udi_cdc_multi_get_free_tx_buffer+0x6c>
80003d72:	19 8c       	ld.ub	r12,r12[0x0]
	flags = cpu_irq_save();
	buf_sel = udi_cdc_tx_buf_sel[port];
	buf_sel_nb = udi_cdc_tx_buf_nb[port][buf_sel];
	buf_nosel_nb = udi_cdc_tx_buf_nb[port][(buf_sel == 0)? 1 : 0];
	if (buf_sel_nb == UDI_CDC_TX_BUFFERS) {
		if ((!udi_cdc_tx_trans_ongoing[port])
80003d74:	58 0c       	cp.w	r12,0
80003d76:	c0 b1       	brne	80003d8c <udi_cdc_multi_get_free_tx_buffer+0x48>
			&& (!udi_cdc_tx_both_buf_to_send[port])) {
			/* One buffer is full, but the other buffer is not used.
			 * (not used = transfer on-going)
			 * then move to the other buffer to store data */
			udi_cdc_tx_both_buf_to_send[port] = true;
80003d78:	30 1a       	mov	r10,1
80003d7a:	48 e9       	lddpc	r9,80003db0 <udi_cdc_multi_get_free_tx_buffer+0x6c>
80003d7c:	b2 8a       	st.b	r9[0x0],r10
			udi_cdc_tx_buf_sel[port] = (buf_sel == 0)? 1 : 0;
80003d7e:	58 08       	cp.w	r8,0
80003d80:	5f 09       	sreq	r9
80003d82:	48 98       	lddpc	r8,80003da4 <udi_cdc_multi_get_free_tx_buffer+0x60>
80003d84:	b0 89       	st.b	r8[0x0],r9
80003d86:	e0 6a 01 40 	mov	r10,320
80003d8a:	30 09       	mov	r9,0
static inline void cpu_irq_restore(irqflags_t flags)
{
	barrier();

   /* Restore the global IRQ mask status flag if it was previously set */
   if ( cpu_irq_is_enabled_flags(flags) ) {
80003d8c:	16 98       	mov	r8,r11
80003d8e:	e6 18 00 01 	andh	r8,0x1,COH
80003d92:	c0 21       	brne	80003d96 <udi_cdc_multi_get_free_tx_buffer+0x52>
      cpu_irq_enable();
80003d94:	d5 03       	csrf	0x10
   }

	barrier();
80003d96:	e0 68 02 80 	mov	r8,640
80003d9a:	f0 09 01 09 	sub	r9,r8,r9
		}
	}
	cpu_irq_restore(flags);

	return (UDI_CDC_TX_BUFFERS - buf_sel_nb) + (UDI_CDC_TX_BUFFERS - buf_nosel_nb);
}
80003d9e:	f2 0a 01 0c 	sub	r12,r9,r10
80003da2:	5e fc       	retal	r12
80003da4:	00 00       	add	r0,r0
80003da6:	07 10       	ld.sh	r0,r3++
80003da8:	00 00       	add	r0,r0
80003daa:	07 14       	ld.sh	r4,r3++
80003dac:	00 00       	add	r0,r0
80003dae:	09 a8       	ld.ub	r8,r4[0x2]
80003db0:	00 00       	add	r0,r0
80003db2:	0c 3c       	cp.w	r12,r6

80003db4 <udi_cdc_multi_is_tx_ready>:
{
	return udi_cdc_multi_get_free_tx_buffer(0);
}

bool udi_cdc_multi_is_tx_ready(uint8_t port)
{
80003db4:	d4 01       	pushm	lr
	return (udi_cdc_multi_get_free_tx_buffer(port) != 0);
80003db6:	f0 1f 00 03 	mcall	80003dc0 <udi_cdc_multi_is_tx_ready+0xc>
}
80003dba:	5f 1c       	srne	r12
80003dbc:	d8 02       	popm	pc
80003dbe:	00 00       	add	r0,r0
80003dc0:	80 00       	ld.sh	r0,r0[0x0]
80003dc2:	3d 44       	mov	r4,-44

80003dc4 <udi_cdc_multi_putc>:
{
	return udi_cdc_multi_is_tx_ready(0);
}

int udi_cdc_multi_putc(uint8_t port, int value)
{
80003dc4:	eb cd 40 fe 	pushm	r1-r7,lr
80003dc8:	16 96       	mov	r6,r11

#if UDI_CDC_PORT_NB == 1 // To optimize code
	port = 0;
#endif

	b_databit_9 = (9 == udi_cdc_line_coding[port].bDataBits);
80003dca:	49 a8       	lddpc	r8,80003e30 <udi_cdc_multi_putc+0x6c>
80003dcc:	11 e9       	ld.ub	r9,r8[0x6]
80003dce:	30 98       	mov	r8,9
80003dd0:	f0 09 18 00 	cp.b	r9,r8
80003dd4:	5f 03       	sreq	r3

udi_cdc_putc_process_one_byte:
	// Check available space
	if (!udi_cdc_multi_is_tx_ready(port)) {
80003dd6:	30 07       	mov	r7,0
		if (!udi_cdc_data_running) {
80003dd8:	49 75       	lddpc	r5,80003e34 <udi_cdc_multi_putc+0x70>
		goto udi_cdc_putc_process_one_byte;
	}

	// Write value
	flags = cpu_irq_save();
	buf_sel = udi_cdc_tx_buf_sel[port];
80003dda:	49 82       	lddpc	r2,80003e38 <udi_cdc_multi_putc+0x74>
	udi_cdc_tx_buf[port][buf_sel][udi_cdc_tx_buf_nb[port][buf_sel]++] = value;
80003ddc:	49 84       	lddpc	r4,80003e3c <udi_cdc_multi_putc+0x78>
80003dde:	49 91       	lddpc	r1,80003e40 <udi_cdc_multi_putc+0x7c>

	b_databit_9 = (9 == udi_cdc_line_coding[port].bDataBits);

udi_cdc_putc_process_one_byte:
	// Check available space
	if (!udi_cdc_multi_is_tx_ready(port)) {
80003de0:	0e 9c       	mov	r12,r7
80003de2:	f0 1f 00 19 	mcall	80003e44 <udi_cdc_multi_putc+0x80>
80003de6:	c0 51       	brne	80003df0 <udi_cdc_multi_putc+0x2c>
		if (!udi_cdc_data_running) {
80003de8:	0b 88       	ld.ub	r8,r5[0x0]
80003dea:	58 08       	cp.w	r8,0
80003dec:	cf a1       	brne	80003de0 <udi_cdc_multi_putc+0x1c>
80003dee:	c1 e8       	rjmp	80003e2a <udi_cdc_multi_putc+0x66>

static inline irqflags_t cpu_irq_save(void)
{
	irqflags_t flags;

	flags = sysreg_read(AVR32_SR);
80003df0:	e1 ba 00 00 	mfsr	r10,0x0
	cpu_irq_disable();
80003df4:	d3 03       	ssrf	0x10
		goto udi_cdc_putc_process_one_byte;
	}

	// Write value
	flags = cpu_irq_save();
	buf_sel = udi_cdc_tx_buf_sel[port];
80003df6:	05 88       	ld.ub	r8,r2[0x0]
	udi_cdc_tx_buf[port][buf_sel][udi_cdc_tx_buf_nb[port][buf_sel]++] = value;
80003df8:	e8 08 04 19 	ld.sh	r9,r4[r8<<0x1]
80003dfc:	f9 d9 c0 10 	bfextu	r12,r9,0x0,0x10
80003e00:	f0 08 00 2b 	add	r11,r8,r8<<0x2
80003e04:	a7 6b       	lsl	r11,0x6
80003e06:	18 0b       	add	r11,r12
80003e08:	e2 0b 0b 06 	st.b	r1[r11],r6
80003e0c:	2f f9       	sub	r9,-1
80003e0e:	e8 08 0a 19 	st.h	r4[r8<<0x1],r9
static inline void cpu_irq_restore(irqflags_t flags)
{
	barrier();

   /* Restore the global IRQ mask status flag if it was previously set */
   if ( cpu_irq_is_enabled_flags(flags) ) {
80003e12:	14 98       	mov	r8,r10
80003e14:	e6 18 00 01 	andh	r8,0x1,COH
80003e18:	c0 21       	brne	80003e1c <udi_cdc_multi_putc+0x58>
      cpu_irq_enable();
80003e1a:	d5 03       	csrf	0x10
	cpu_irq_restore(flags);

	if (b_databit_9) {
80003e1c:	58 03       	cp.w	r3,0
80003e1e:	c0 31       	brne	80003e24 <udi_cdc_multi_putc+0x60>
80003e20:	e3 cf 90 fe 	ldm	sp++,r1-r7,pc,r12=1
		// Send MSB
		b_databit_9 = false;
		value = value >> 8;
80003e24:	a9 46       	asr	r6,0x8
80003e26:	0e 93       	mov	r3,r7
80003e28:	cd cb       	rjmp	80003de0 <udi_cdc_multi_putc+0x1c>
		goto udi_cdc_putc_process_one_byte;
80003e2a:	e3 cf 80 fe 	ldm	sp++,r1-r7,pc,r12=0
80003e2e:	00 00       	add	r0,r0
80003e30:	00 00       	add	r0,r0
80003e32:	07 05       	ld.w	r5,r3++
80003e34:	00 00       	add	r0,r0
80003e36:	09 a2       	ld.ub	r2,r4[0x2]
80003e38:	00 00       	add	r0,r0
80003e3a:	07 10       	ld.sh	r0,r3++
80003e3c:	00 00       	add	r0,r0
80003e3e:	07 14       	ld.sh	r4,r3++
80003e40:	00 00       	add	r0,r0
80003e42:	07 18       	ld.sh	r8,r3++
80003e44:	80 00       	ld.sh	r0,r0[0x0]
80003e46:	3d b4       	mov	r4,-37

80003e48 <udi_cdc_putc>:
	}
	return true;
}

int udi_cdc_putc(int value)
{
80003e48:	d4 01       	pushm	lr
	return udi_cdc_multi_putc(0, value);
80003e4a:	18 9b       	mov	r11,r12
80003e4c:	30 0c       	mov	r12,0
80003e4e:	f0 1f 00 02 	mcall	80003e54 <udi_cdc_putc+0xc>
}
80003e52:	d8 02       	popm	pc
80003e54:	80 00       	ld.sh	r0,r0[0x0]
80003e56:	3d c4       	mov	r4,-36

80003e58 <udi_cdc_multi_get_nb_received_data>:

static inline irqflags_t cpu_irq_save(void)
{
	irqflags_t flags;

	flags = sysreg_read(AVR32_SR);
80003e58:	e1 b9 00 00 	mfsr	r9,0x0
	cpu_irq_disable();
80003e5c:	d3 03       	ssrf	0x10

#if UDI_CDC_PORT_NB == 1 // To optimize code
	port = 0;
#endif
	flags = cpu_irq_save();
	pos = udi_cdc_rx_pos[port];
80003e5e:	48 88       	lddpc	r8,80003e7c <udi_cdc_multi_get_nb_received_data+0x24>
80003e60:	90 08       	ld.sh	r8,r8[0x0]
	nb_received = udi_cdc_rx_buf_nb[port][udi_cdc_rx_buf_sel[port]] - pos;
80003e62:	48 8a       	lddpc	r10,80003e80 <udi_cdc_multi_get_nb_received_data+0x28>
80003e64:	15 8b       	ld.ub	r11,r10[0x0]
80003e66:	48 8a       	lddpc	r10,80003e84 <udi_cdc_multi_get_nb_received_data+0x2c>
80003e68:	f4 0b 04 1c 	ld.sh	r12,r10[r11<<0x1]
static inline void cpu_irq_restore(irqflags_t flags)
{
	barrier();

   /* Restore the global IRQ mask status flag if it was previously set */
   if ( cpu_irq_is_enabled_flags(flags) ) {
80003e6c:	e6 19 00 01 	andh	r9,0x1,COH
80003e70:	c0 21       	brne	80003e74 <udi_cdc_multi_get_nb_received_data+0x1c>
      cpu_irq_enable();
80003e72:	d5 03       	csrf	0x10
   }

	barrier();
80003e74:	5c 7c       	castu.h	r12
80003e76:	5c 78       	castu.h	r8
	cpu_irq_restore(flags);
	return nb_received;
}
80003e78:	10 1c       	sub	r12,r8
80003e7a:	5e fc       	retal	r12
80003e7c:	00 00       	add	r0,r0
80003e7e:	09 9e       	ld.ub	lr,r4[0x1]
80003e80:	00 00       	add	r0,r0
80003e82:	09 a4       	ld.ub	r4,r4[0x2]
80003e84:	00 00       	add	r0,r0
80003e86:	09 98       	ld.ub	r8,r4[0x1]

80003e88 <udi_cdc_multi_is_rx_ready>:
{
	return udi_cdc_multi_get_nb_received_data(0);
}

bool udi_cdc_multi_is_rx_ready(uint8_t port)
{
80003e88:	d4 01       	pushm	lr
	return (udi_cdc_multi_get_nb_received_data(port) > 0);
80003e8a:	f0 1f 00 03 	mcall	80003e94 <udi_cdc_multi_is_rx_ready+0xc>
}
80003e8e:	5f 1c       	srne	r12
80003e90:	d8 02       	popm	pc
80003e92:	00 00       	add	r0,r0
80003e94:	80 00       	ld.sh	r0,r0[0x0]
80003e96:	3e 58       	mov	r8,-27

80003e98 <udi_cdc_rx_start>:
//-------------------------------------------------
//------- Internal routines to process data transfer


static bool udi_cdc_rx_start(uint8_t port)
{
80003e98:	eb cd 40 80 	pushm	r7,lr

static inline irqflags_t cpu_irq_save(void)
{
	irqflags_t flags;

	flags = sysreg_read(AVR32_SR);
80003e9c:	e1 b8 00 00 	mfsr	r8,0x0
	cpu_irq_disable();
80003ea0:	d3 03       	ssrf	0x10
#if UDI_CDC_PORT_NB == 1 // To optimize code
	port = 0;
#endif

	flags = cpu_irq_save();
	buf_sel_trans = udi_cdc_rx_buf_sel[port];
80003ea2:	49 d9       	lddpc	r9,80003f14 <udi_cdc_rx_start+0x7c>
80003ea4:	13 87       	ld.ub	r7,r9[0x0]
	if (udi_cdc_rx_trans_ongoing[port] ||
80003ea6:	49 d9       	lddpc	r9,80003f18 <udi_cdc_rx_start+0x80>
80003ea8:	13 89       	ld.ub	r9,r9[0x0]
80003eaa:	58 09       	cp.w	r9,0
80003eac:	c0 a1       	brne	80003ec0 <udi_cdc_rx_start+0x28>
		(udi_cdc_rx_pos[port] < udi_cdc_rx_buf_nb[port][buf_sel_trans])) {
80003eae:	49 c9       	lddpc	r9,80003f1c <udi_cdc_rx_start+0x84>
80003eb0:	92 09       	ld.sh	r9,r9[0x0]
80003eb2:	49 ca       	lddpc	r10,80003f20 <udi_cdc_rx_start+0x88>
80003eb4:	f4 07 04 1a 	ld.sh	r10,r10[r7<<0x1]
80003eb8:	f2 0a 19 00 	cp.h	r10,r9
80003ebc:	e0 88 00 08 	brls	80003ecc <udi_cdc_rx_start+0x34>
static inline void cpu_irq_restore(irqflags_t flags)
{
	barrier();

   /* Restore the global IRQ mask status flag if it was previously set */
   if ( cpu_irq_is_enabled_flags(flags) ) {
80003ec0:	e6 18 00 01 	andh	r8,0x1,COH
80003ec4:	c0 21       	brne	80003ec8 <udi_cdc_rx_start+0x30>
      cpu_irq_enable();
80003ec6:	d5 03       	csrf	0x10
   }

	barrier();
80003ec8:	e3 cf 80 80 	ldm	sp++,r7,pc,r12=0
		cpu_irq_restore(flags);
		return false;
	}

	// Change current buffer
	udi_cdc_rx_pos[port] = 0;
80003ecc:	30 0a       	mov	r10,0
80003ece:	49 49       	lddpc	r9,80003f1c <udi_cdc_rx_start+0x84>
80003ed0:	b2 0a       	st.h	r9[0x0],r10
	udi_cdc_rx_buf_sel[port] = (buf_sel_trans==0)?1:0;
80003ed2:	58 07       	cp.w	r7,0
80003ed4:	5f 0a       	sreq	r10
80003ed6:	49 09       	lddpc	r9,80003f14 <udi_cdc_rx_start+0x7c>
80003ed8:	b2 8a       	st.b	r9[0x0],r10

	// Start transfer on RX
	udi_cdc_rx_trans_ongoing[port] = true;
80003eda:	30 1a       	mov	r10,1
80003edc:	48 f9       	lddpc	r9,80003f18 <udi_cdc_rx_start+0x80>
80003ede:	b2 8a       	st.b	r9[0x0],r10
static inline void cpu_irq_restore(irqflags_t flags)
{
	barrier();

   /* Restore the global IRQ mask status flag if it was previously set */
   if ( cpu_irq_is_enabled_flags(flags) ) {
80003ee0:	e6 18 00 01 	andh	r8,0x1,COH
80003ee4:	c0 21       	brne	80003ee8 <udi_cdc_rx_start+0x50>
      cpu_irq_enable();
80003ee6:	d5 03       	csrf	0x10
	cpu_irq_restore(flags);

	if (udi_cdc_multi_is_rx_ready(port)) {
80003ee8:	30 0c       	mov	r12,0
80003eea:	f0 1f 00 0f 	mcall	80003f24 <udi_cdc_rx_start+0x8c>
80003eee:	c0 40       	breq	80003ef6 <udi_cdc_rx_start+0x5e>
		UDI_CDC_RX_NOTIFY(port);
80003ef0:	30 0c       	mov	r12,0
80003ef2:	f0 1f 00 0e 	mcall	80003f28 <udi_cdc_rx_start+0x90>
#undef UDI_CDC_PORT_TO_DATA_EP_OUT
	default:
		ep = UDI_CDC_DATA_EP_OUT_0;
		break;
	}
	return udd_ep_run(ep,
80003ef6:	ee 07 00 27 	add	r7,r7,r7<<0x2
80003efa:	a7 67       	lsl	r7,0x6
80003efc:	48 c8       	lddpc	r8,80003f2c <udi_cdc_rx_start+0x94>
80003efe:	e0 69 01 40 	mov	r9,320
80003f02:	48 ca       	lddpc	r10,80003f30 <udi_cdc_rx_start+0x98>
80003f04:	0e 0a       	add	r10,r7
80003f06:	30 1b       	mov	r11,1
80003f08:	30 2c       	mov	r12,2
80003f0a:	f0 1f 00 0b 	mcall	80003f34 <udi_cdc_rx_start+0x9c>
			true,
			udi_cdc_rx_buf[port][buf_sel_trans],
			UDI_CDC_RX_BUFFERS,
			udi_cdc_data_received);
}
80003f0e:	e3 cd 80 80 	ldm	sp++,r7,pc
80003f12:	00 00       	add	r0,r0
80003f14:	00 00       	add	r0,r0
80003f16:	09 a4       	ld.ub	r4,r4[0x2]
80003f18:	00 00       	add	r0,r0
80003f1a:	0c 38       	cp.w	r8,r6
80003f1c:	00 00       	add	r0,r0
80003f1e:	09 9e       	ld.ub	lr,r4[0x1]
80003f20:	00 00       	add	r0,r0
80003f22:	09 98       	ld.ub	r8,r4[0x1]
80003f24:	80 00       	ld.sh	r0,r0[0x0]
80003f26:	3e 88       	mov	r8,-24
80003f28:	80 00       	ld.sh	r0,r0[0x0]
80003f2a:	56 84       	stdsp	sp[0x1a0],r4
80003f2c:	80 00       	ld.sh	r0,r0[0x0]
80003f2e:	3f 38       	mov	r8,-13
80003f30:	00 00       	add	r0,r0
80003f32:	09 b8       	ld.ub	r8,r4[0x3]
80003f34:	80 00       	ld.sh	r0,r0[0x0]
80003f36:	2f fc       	sub	r12,-1

80003f38 <udi_cdc_data_received>:


static void udi_cdc_data_received(udd_ep_status_t status, iram_size_t n, udd_ep_id_t ep)
{
80003f38:	d4 01       	pushm	lr
80003f3a:	14 9e       	mov	lr,r10
	default:
		port = 0;
		break;
	}

	if (UDD_EP_TRANSFER_OK != status) {
80003f3c:	58 0c       	cp.w	r12,0
80003f3e:	c2 01       	brne	80003f7e <udi_cdc_data_received+0x46>
		// Abort reception
		return;
	}
	buf_sel_trans = (udi_cdc_rx_buf_sel[port]==0)?1:0;
80003f40:	49 08       	lddpc	r8,80003f80 <udi_cdc_data_received+0x48>
80003f42:	11 88       	ld.ub	r8,r8[0x0]
80003f44:	58 08       	cp.w	r8,0
80003f46:	5f 08       	sreq	r8
	if (!n) {
80003f48:	58 0b       	cp.w	r11,0
80003f4a:	c1 11       	brne	80003f6c <udi_cdc_data_received+0x34>
		udd_ep_run( ep,
80003f4c:	f0 0a 15 02 	lsl	r10,r8,0x2
80003f50:	10 0a       	add	r10,r8
80003f52:	a7 6a       	lsl	r10,0x6
80003f54:	fe c8 00 1c 	sub	r8,pc,28
80003f58:	e0 69 01 40 	mov	r9,320
80003f5c:	48 ab       	lddpc	r11,80003f84 <udi_cdc_data_received+0x4c>
80003f5e:	f6 0a 00 0a 	add	r10,r11,r10
80003f62:	30 1b       	mov	r11,1
80003f64:	1c 9c       	mov	r12,lr
80003f66:	f0 1f 00 09 	mcall	80003f88 <udi_cdc_data_received+0x50>
				true,
				udi_cdc_rx_buf[port][buf_sel_trans],
				UDI_CDC_RX_BUFFERS,
				udi_cdc_data_received);
		return;
80003f6a:	d8 02       	popm	pc
	}
	udi_cdc_rx_buf_nb[port][buf_sel_trans] = n;
80003f6c:	48 89       	lddpc	r9,80003f8c <udi_cdc_data_received+0x54>
80003f6e:	f2 08 0a 1b 	st.h	r9[r8<<0x1],r11
	udi_cdc_rx_trans_ongoing[port] = false;
80003f72:	30 09       	mov	r9,0
80003f74:	48 78       	lddpc	r8,80003f90 <udi_cdc_data_received+0x58>
80003f76:	b0 89       	st.b	r8[0x0],r9
	udi_cdc_rx_start(port);
80003f78:	30 0c       	mov	r12,0
80003f7a:	f0 1f 00 07 	mcall	80003f94 <udi_cdc_data_received+0x5c>
80003f7e:	d8 02       	popm	pc
80003f80:	00 00       	add	r0,r0
80003f82:	09 a4       	ld.ub	r4,r4[0x2]
80003f84:	00 00       	add	r0,r0
80003f86:	09 b8       	ld.ub	r8,r4[0x3]
80003f88:	80 00       	ld.sh	r0,r0[0x0]
80003f8a:	2f fc       	sub	r12,-1
80003f8c:	00 00       	add	r0,r0
80003f8e:	09 98       	ld.ub	r8,r4[0x1]
80003f90:	00 00       	add	r0,r0
80003f92:	0c 38       	cp.w	r8,r6
80003f94:	80 00       	ld.sh	r0,r0[0x0]
80003f96:	3e 98       	mov	r8,-23

80003f98 <udi_cdc_tx_send>:
	udi_cdc_tx_send(port);
}


static void udi_cdc_tx_send(uint8_t port)
{
80003f98:	eb cd 40 e0 	pushm	r5-r7,lr

#if UDI_CDC_PORT_NB == 1 // To optimize code
	port = 0;
#endif

	if (udi_cdc_tx_trans_ongoing[port]) {
80003f9c:	4c 28       	lddpc	r8,800040a4 <udi_cdc_tx_send+0x10c>
80003f9e:	11 88       	ld.ub	r8,r8[0x0]
80003fa0:	58 08       	cp.w	r8,0
80003fa2:	e0 81 00 7e 	brne	8000409e <udi_cdc_tx_send+0x106>
		return; // Already on going or wait next SOF to send next data
	}
	if (udd_is_high_speed()) {
80003fa6:	f0 1f 00 41 	mcall	800040a8 <udi_cdc_tx_send+0x110>
80003faa:	c0 a0       	breq	80003fbe <udi_cdc_tx_send+0x26>
		if (udi_cdc_tx_sof_num[port] == udd_get_micro_frame_number()) {
80003fac:	4c 08       	lddpc	r8,800040ac <udi_cdc_tx_send+0x114>
80003fae:	90 07       	ld.sh	r7,r8[0x0]
80003fb0:	f0 1f 00 40 	mcall	800040b0 <udi_cdc_tx_send+0x118>
80003fb4:	f8 07 19 00 	cp.h	r7,r12
80003fb8:	c0 a1       	brne	80003fcc <udi_cdc_tx_send+0x34>
80003fba:	e3 cd 80 e0 	ldm	sp++,r5-r7,pc
			return; // Wait next SOF to send next data
		}
	}else{
		if (udi_cdc_tx_sof_num[port] == udd_get_frame_number()) {
80003fbe:	4b c8       	lddpc	r8,800040ac <udi_cdc_tx_send+0x114>
80003fc0:	90 07       	ld.sh	r7,r8[0x0]
80003fc2:	f0 1f 00 3d 	mcall	800040b4 <udi_cdc_tx_send+0x11c>
80003fc6:	f8 07 19 00 	cp.h	r7,r12
80003fca:	c6 a0       	breq	8000409e <udi_cdc_tx_send+0x106>

static inline irqflags_t cpu_irq_save(void)
{
	irqflags_t flags;

	flags = sysreg_read(AVR32_SR);
80003fcc:	e1 b6 00 00 	mfsr	r6,0x0
	cpu_irq_disable();
80003fd0:	d3 03       	ssrf	0x10
			return; // Wait next SOF to send next data
		}
	}

	flags = cpu_irq_save(); // to protect udi_cdc_tx_buf_sel
	buf_sel_trans = udi_cdc_tx_buf_sel[port];
80003fd2:	4b a8       	lddpc	r8,800040b8 <udi_cdc_tx_send+0x120>
80003fd4:	11 87       	ld.ub	r7,r8[0x0]
	if (udi_cdc_tx_buf_nb[port][buf_sel_trans] == 0) {
80003fd6:	4b a8       	lddpc	r8,800040bc <udi_cdc_tx_send+0x124>
80003fd8:	f0 07 04 19 	ld.sh	r9,r8[r7<<0x1]
80003fdc:	30 08       	mov	r8,0
80003fde:	f0 09 19 00 	cp.h	r9,r8
80003fe2:	c2 01       	brne	80004022 <udi_cdc_tx_send+0x8a>
		sof_zlp_counter++;
80003fe4:	4b 78       	lddpc	r8,800040c0 <udi_cdc_tx_send+0x128>
80003fe6:	90 09       	ld.sh	r9,r8[0x0]
80003fe8:	2f f9       	sub	r9,-1
80003fea:	b0 09       	st.h	r8[0x0],r9
		if (((!udd_is_high_speed()) && (sof_zlp_counter < 100))
80003fec:	f0 1f 00 2f 	mcall	800040a8 <udi_cdc_tx_send+0x110>
80003ff0:	c0 81       	brne	80004000 <udi_cdc_tx_send+0x68>
80003ff2:	4b 48       	lddpc	r8,800040c0 <udi_cdc_tx_send+0x128>
80003ff4:	90 09       	ld.sh	r9,r8[0x0]
80003ff6:	36 38       	mov	r8,99
80003ff8:	f0 09 19 00 	cp.h	r9,r8
80003ffc:	e0 88 00 0d 	brls	80004016 <udi_cdc_tx_send+0x7e>
80004000:	f0 1f 00 2a 	mcall	800040a8 <udi_cdc_tx_send+0x110>
80004004:	c0 f0       	breq	80004022 <udi_cdc_tx_send+0x8a>
80004006:	4a f8       	lddpc	r8,800040c0 <udi_cdc_tx_send+0x128>
80004008:	90 09       	ld.sh	r9,r8[0x0]
8000400a:	e0 68 03 1f 	mov	r8,799
8000400e:	f0 09 19 00 	cp.h	r9,r8
80004012:	e0 8b 00 08 	brhi	80004022 <udi_cdc_tx_send+0x8a>
static inline void cpu_irq_restore(irqflags_t flags)
{
	barrier();

   /* Restore the global IRQ mask status flag if it was previously set */
   if ( cpu_irq_is_enabled_flags(flags) ) {
80004016:	e6 16 00 01 	andh	r6,0x1,COH
8000401a:	c0 21       	brne	8000401e <udi_cdc_tx_send+0x86>
      cpu_irq_enable();
8000401c:	d5 03       	csrf	0x10
				|| (udd_is_high_speed() && (sof_zlp_counter < 800))) {
			cpu_irq_restore(flags);
			return;
8000401e:	e3 cd 80 e0 	ldm	sp++,r5-r7,pc
		}
	}
	sof_zlp_counter = 0;
80004022:	30 09       	mov	r9,0
80004024:	4a 78       	lddpc	r8,800040c0 <udi_cdc_tx_send+0x128>
80004026:	b0 09       	st.h	r8[0x0],r9

	if (!udi_cdc_tx_both_buf_to_send[port]) {
80004028:	4a 78       	lddpc	r8,800040c4 <udi_cdc_tx_send+0x12c>
8000402a:	11 88       	ld.ub	r8,r8[0x0]
8000402c:	58 08       	cp.w	r8,0
8000402e:	c0 61       	brne	8000403a <udi_cdc_tx_send+0xa2>
		// Send current Buffer
		// and switch the current buffer
		udi_cdc_tx_buf_sel[port] = (buf_sel_trans==0)?1:0;
80004030:	58 07       	cp.w	r7,0
80004032:	5f 09       	sreq	r9
80004034:	4a 18       	lddpc	r8,800040b8 <udi_cdc_tx_send+0x120>
80004036:	b0 89       	st.b	r8[0x0],r9
80004038:	c0 38       	rjmp	8000403e <udi_cdc_tx_send+0xa6>
	}else{
		// Send the other Buffer
		// and no switch the current buffer
		buf_sel_trans = (buf_sel_trans==0)?1:0;
8000403a:	58 07       	cp.w	r7,0
8000403c:	5f 07       	sreq	r7
	}
	udi_cdc_tx_trans_ongoing[port] = true;
8000403e:	30 19       	mov	r9,1
80004040:	49 98       	lddpc	r8,800040a4 <udi_cdc_tx_send+0x10c>
80004042:	b0 89       	st.b	r8[0x0],r9
static inline void cpu_irq_restore(irqflags_t flags)
{
	barrier();

   /* Restore the global IRQ mask status flag if it was previously set */
   if ( cpu_irq_is_enabled_flags(flags) ) {
80004044:	e6 16 00 01 	andh	r6,0x1,COH
80004048:	c0 21       	brne	8000404c <udi_cdc_tx_send+0xb4>
      cpu_irq_enable();
8000404a:	d5 03       	csrf	0x10
	cpu_irq_restore(flags);

	b_short_packet = (udi_cdc_tx_buf_nb[port][buf_sel_trans] != UDI_CDC_TX_BUFFERS);
8000404c:	0e 95       	mov	r5,r7
8000404e:	49 c8       	lddpc	r8,800040bc <udi_cdc_tx_send+0x124>
80004050:	f0 07 04 19 	ld.sh	r9,r8[r7<<0x1]
80004054:	e0 68 01 40 	mov	r8,320
80004058:	f0 09 19 00 	cp.h	r9,r8
8000405c:	5f 16       	srne	r6
	if (b_short_packet) {
8000405e:	58 06       	cp.w	r6,0
80004060:	c0 e0       	breq	8000407c <udi_cdc_tx_send+0xe4>
		if (udd_is_high_speed()) {
80004062:	f0 1f 00 12 	mcall	800040a8 <udi_cdc_tx_send+0x110>
80004066:	c0 60       	breq	80004072 <udi_cdc_tx_send+0xda>
			udi_cdc_tx_sof_num[port] = udd_get_micro_frame_number();
80004068:	f0 1f 00 12 	mcall	800040b0 <udi_cdc_tx_send+0x118>
8000406c:	49 08       	lddpc	r8,800040ac <udi_cdc_tx_send+0x114>
8000406e:	b0 0c       	st.h	r8[0x0],r12
80004070:	c0 98       	rjmp	80004082 <udi_cdc_tx_send+0xea>
		}else{
			udi_cdc_tx_sof_num[port] = udd_get_frame_number();
80004072:	f0 1f 00 11 	mcall	800040b4 <udi_cdc_tx_send+0x11c>
80004076:	48 e8       	lddpc	r8,800040ac <udi_cdc_tx_send+0x114>
80004078:	b0 0c       	st.h	r8[0x0],r12
8000407a:	c0 48       	rjmp	80004082 <udi_cdc_tx_send+0xea>
		}
	}else{
		udi_cdc_tx_sof_num[port] = 0; // Force next transfer without wait SOF
8000407c:	30 09       	mov	r9,0
8000407e:	48 c8       	lddpc	r8,800040ac <udi_cdc_tx_send+0x114>
80004080:	b0 09       	st.h	r8[0x0],r9
#undef UDI_CDC_PORT_TO_DATA_EP_IN
	default:
		ep = UDI_CDC_DATA_EP_IN_0;
		break;
	}
	udd_ep_run( ep,
80004082:	ee 07 00 27 	add	r7,r7,r7<<0x2
80004086:	a7 67       	lsl	r7,0x6
80004088:	49 08       	lddpc	r8,800040c8 <udi_cdc_tx_send+0x130>
8000408a:	48 d9       	lddpc	r9,800040bc <udi_cdc_tx_send+0x124>
8000408c:	f2 05 05 19 	ld.uh	r9,r9[r5<<0x1]
80004090:	48 fa       	lddpc	r10,800040cc <udi_cdc_tx_send+0x134>
80004092:	0e 0a       	add	r10,r7
80004094:	0c 9b       	mov	r11,r6
80004096:	e0 6c 00 81 	mov	r12,129
8000409a:	f0 1f 00 0e 	mcall	800040d0 <udi_cdc_tx_send+0x138>
8000409e:	e3 cd 80 e0 	ldm	sp++,r5-r7,pc
800040a2:	00 00       	add	r0,r0
800040a4:	00 00       	add	r0,r0
800040a6:	09 a8       	ld.ub	r8,r4[0x2]
800040a8:	80 00       	ld.sh	r0,r0[0x0]
800040aa:	2b 80       	sub	r0,-72
800040ac:	00 00       	add	r0,r0
800040ae:	09 a0       	ld.ub	r0,r4[0x2]
800040b0:	80 00       	ld.sh	r0,r0[0x0]
800040b2:	2b bc       	sub	r12,-69
800040b4:	80 00       	ld.sh	r0,r0[0x0]
800040b6:	2b b0       	sub	r0,-69
800040b8:	00 00       	add	r0,r0
800040ba:	07 10       	ld.sh	r0,r3++
800040bc:	00 00       	add	r0,r0
800040be:	07 14       	ld.sh	r4,r3++
800040c0:	00 00       	add	r0,r0
800040c2:	07 0c       	ld.w	r12,r3++
800040c4:	00 00       	add	r0,r0
800040c6:	0c 3c       	cp.w	r12,r6
800040c8:	80 00       	ld.sh	r0,r0[0x0]
800040ca:	40 e4       	lddsp	r4,sp[0x38]
800040cc:	00 00       	add	r0,r0
800040ce:	07 18       	ld.sh	r8,r3++
800040d0:	80 00       	ld.sh	r0,r0[0x0]
800040d2:	2f fc       	sub	r12,-1

800040d4 <udi_cdc_data_sof_notify>:
{
	return 0;      // CDC don't have multiple alternate setting
}

void udi_cdc_data_sof_notify(void)
{
800040d4:	d4 01       	pushm	lr
	static uint8_t port_notify = 0;

	// A call of udi_cdc_data_sof_notify() is done for each port
	udi_cdc_tx_send(port_notify);
800040d6:	30 0c       	mov	r12,0
800040d8:	f0 1f 00 02 	mcall	800040e0 <udi_cdc_data_sof_notify+0xc>
	port_notify++;
	if (port_notify >= UDI_CDC_PORT_NB) {
		port_notify = 0;
	}
#endif
}
800040dc:	d8 02       	popm	pc
800040de:	00 00       	add	r0,r0
800040e0:	80 00       	ld.sh	r0,r0[0x0]
800040e2:	3f 98       	mov	r8,-7

800040e4 <udi_cdc_data_sent>:
	udi_cdc_rx_start(port);
}


static void udi_cdc_data_sent(udd_ep_status_t status, iram_size_t n, udd_ep_id_t ep)
{
800040e4:	d4 01       	pushm	lr
	default:
		port = 0;
		break;
	}

	if (UDD_EP_TRANSFER_OK != status) {
800040e6:	58 0c       	cp.w	r12,0
800040e8:	c1 21       	brne	8000410c <udi_cdc_data_sent+0x28>
		// Abort transfer
		return;
	}
	udi_cdc_tx_buf_nb[port][(udi_cdc_tx_buf_sel[port]==0)?1:0] = 0;
800040ea:	48 a8       	lddpc	r8,80004110 <udi_cdc_data_sent+0x2c>
800040ec:	11 88       	ld.ub	r8,r8[0x0]
800040ee:	58 08       	cp.w	r8,0
800040f0:	f9 b9 01 00 	movne	r9,0
800040f4:	f9 b9 00 02 	moveq	r9,2
800040f8:	30 08       	mov	r8,0
800040fa:	48 7a       	lddpc	r10,80004114 <udi_cdc_data_sent+0x30>
800040fc:	f4 09 0a 08 	st.h	r10[r9],r8
	udi_cdc_tx_both_buf_to_send[port] = false;
80004100:	48 69       	lddpc	r9,80004118 <udi_cdc_data_sent+0x34>
80004102:	b2 88       	st.b	r9[0x0],r8
	udi_cdc_tx_trans_ongoing[port] = false;
80004104:	48 69       	lddpc	r9,8000411c <udi_cdc_data_sent+0x38>
80004106:	b2 88       	st.b	r9[0x0],r8

	if (n != 0) {
		UDI_CDC_TX_EMPTY_NOTIFY(port);
	}
	udi_cdc_tx_send(port);
80004108:	f0 1f 00 06 	mcall	80004120 <udi_cdc_data_sent+0x3c>
8000410c:	d8 02       	popm	pc
8000410e:	00 00       	add	r0,r0
80004110:	00 00       	add	r0,r0
80004112:	07 10       	ld.sh	r0,r3++
80004114:	00 00       	add	r0,r0
80004116:	07 14       	ld.sh	r4,r3++
80004118:	00 00       	add	r0,r0
8000411a:	0c 3c       	cp.w	r12,r6
8000411c:	00 00       	add	r0,r0
8000411e:	09 a8       	ld.ub	r8,r4[0x2]
80004120:	80 00       	ld.sh	r0,r0[0x0]
80004122:	3f 98       	mov	r8,-7

80004124 <udi_cdc_data_enable>:
	udi_cdc_nb_comm_enabled++;
	return true;
}

bool udi_cdc_data_enable(void)
{
80004124:	eb cd 40 c0 	pushm	r6-r7,lr
	uint8_t port;

#if UDI_CDC_PORT_NB == 1 // To optimize code
	port = 0;
	udi_cdc_nb_data_enabled = 0;
80004128:	30 07       	mov	r7,0
8000412a:	49 88       	lddpc	r8,80004188 <udi_cdc_data_enable+0x64>
8000412c:	b0 87       	st.b	r8[0x0],r7
	}
	port = udi_cdc_nb_data_enabled;
#endif

	// Initialize TX management
	udi_cdc_tx_trans_ongoing[port] = false;
8000412e:	49 88       	lddpc	r8,8000418c <udi_cdc_data_enable+0x68>
80004130:	b0 87       	st.b	r8[0x0],r7
	udi_cdc_tx_both_buf_to_send[port] = false;
80004132:	49 88       	lddpc	r8,80004190 <udi_cdc_data_enable+0x6c>
80004134:	b0 87       	st.b	r8[0x0],r7
	udi_cdc_tx_buf_sel[port] = 0;
80004136:	49 88       	lddpc	r8,80004194 <udi_cdc_data_enable+0x70>
80004138:	b0 87       	st.b	r8[0x0],r7
	udi_cdc_tx_buf_nb[port][0] = 0;
8000413a:	49 88       	lddpc	r8,80004198 <udi_cdc_data_enable+0x74>
8000413c:	30 06       	mov	r6,0
8000413e:	b0 06       	st.h	r8[0x0],r6
	udi_cdc_tx_buf_nb[port][1] = 0;
80004140:	b0 16       	st.h	r8[0x2],r6
	udi_cdc_tx_sof_num[port] = 0;
80004142:	49 78       	lddpc	r8,8000419c <udi_cdc_data_enable+0x78>
80004144:	b0 06       	st.h	r8[0x0],r6
	udi_cdc_tx_send(port);
80004146:	30 0c       	mov	r12,0
80004148:	f0 1f 00 16 	mcall	800041a0 <udi_cdc_data_enable+0x7c>

	// Initialize RX management
	udi_cdc_rx_trans_ongoing[port] = false;
8000414c:	49 68       	lddpc	r8,800041a4 <udi_cdc_data_enable+0x80>
8000414e:	b0 87       	st.b	r8[0x0],r7
	udi_cdc_rx_buf_sel[port] = 0;
80004150:	49 68       	lddpc	r8,800041a8 <udi_cdc_data_enable+0x84>
80004152:	b0 87       	st.b	r8[0x0],r7
	udi_cdc_rx_buf_nb[port][0] = 0;
80004154:	49 68       	lddpc	r8,800041ac <udi_cdc_data_enable+0x88>
80004156:	b0 06       	st.h	r8[0x0],r6
	udi_cdc_rx_pos[port] = 0;
80004158:	49 68       	lddpc	r8,800041b0 <udi_cdc_data_enable+0x8c>
8000415a:	b0 06       	st.h	r8[0x0],r6
	if (!udi_cdc_rx_start(port)) {
8000415c:	30 0c       	mov	r12,0
8000415e:	f0 1f 00 16 	mcall	800041b4 <udi_cdc_data_enable+0x90>
80004162:	c1 00       	breq	80004182 <udi_cdc_data_enable+0x5e>
		return false;
	}
	udi_cdc_nb_data_enabled++;
80004164:	48 98       	lddpc	r8,80004188 <udi_cdc_data_enable+0x64>
80004166:	11 89       	ld.ub	r9,r8[0x0]
80004168:	2f f9       	sub	r9,-1
8000416a:	b0 89       	st.b	r8[0x0],r9
	if (udi_cdc_nb_data_enabled == UDI_CDC_PORT_NB) {
8000416c:	11 89       	ld.ub	r9,r8[0x0]
8000416e:	30 18       	mov	r8,1
80004170:	f0 09 18 00 	cp.b	r9,r8
80004174:	c0 30       	breq	8000417a <udi_cdc_data_enable+0x56>
80004176:	e3 cf 90 c0 	ldm	sp++,r6-r7,pc,r12=1
		udi_cdc_data_running = true;
8000417a:	30 19       	mov	r9,1
8000417c:	48 f8       	lddpc	r8,800041b8 <udi_cdc_data_enable+0x94>
8000417e:	b0 89       	st.b	r8[0x0],r9
80004180:	30 1c       	mov	r12,1
	}
	return true;
}
80004182:	e3 cd 80 c0 	ldm	sp++,r6-r7,pc
80004186:	00 00       	add	r0,r0
80004188:	00 00       	add	r0,r0
8000418a:	07 0e       	ld.w	lr,r3++
8000418c:	00 00       	add	r0,r0
8000418e:	09 a8       	ld.ub	r8,r4[0x2]
80004190:	00 00       	add	r0,r0
80004192:	0c 3c       	cp.w	r12,r6
80004194:	00 00       	add	r0,r0
80004196:	07 10       	ld.sh	r0,r3++
80004198:	00 00       	add	r0,r0
8000419a:	07 14       	ld.sh	r4,r3++
8000419c:	00 00       	add	r0,r0
8000419e:	09 a0       	ld.ub	r0,r4[0x2]
800041a0:	80 00       	ld.sh	r0,r0[0x0]
800041a2:	3f 98       	mov	r8,-7
800041a4:	00 00       	add	r0,r0
800041a6:	0c 38       	cp.w	r8,r6
800041a8:	00 00       	add	r0,r0
800041aa:	09 a4       	ld.ub	r4,r4[0x2]
800041ac:	00 00       	add	r0,r0
800041ae:	09 98       	ld.ub	r8,r4[0x1]
800041b0:	00 00       	add	r0,r0
800041b2:	09 9e       	ld.ub	lr,r4[0x1]
800041b4:	80 00       	ld.sh	r0,r0[0x0]
800041b6:	3e 98       	mov	r8,-23
800041b8:	00 00       	add	r0,r0
800041ba:	09 a2       	ld.ub	r2,r4[0x2]

800041bc <udi_cdc_comm_setup>:
	UDI_CDC_DISABLE_EXT(port);
	udi_cdc_data_running = false;
}

bool udi_cdc_comm_setup(void)
{
800041bc:	d4 01       	pushm	lr
	uint8_t port = udi_cdc_setup_to_port();
800041be:	f0 1f 00 29 	mcall	80004260 <udi_cdc_comm_setup+0xa4>

	if (Udd_setup_is_in()) {
800041c2:	4a 98       	lddpc	r8,80004264 <udi_cdc_comm_setup+0xa8>
800041c4:	11 88       	ld.ub	r8,r8[0x0]
800041c6:	30 09       	mov	r9,0
800041c8:	f2 08 18 00 	cp.b	r8,r9
800041cc:	c1 d4       	brge	80004206 <udi_cdc_comm_setup+0x4a>
		// GET Interface Requests
		if (Udd_setup_type() == USB_REQ_TYPE_CLASS) {
800041ce:	e2 18 00 60 	andl	r8,0x60,COH
800041d2:	e0 48 00 20 	cp.w	r8,32
800041d6:	c4 31       	brne	8000425c <udi_cdc_comm_setup+0xa0>
			// Requests Class Interface Get
			switch (udd_g_ctrlreq.req.bRequest) {
800041d8:	4a 38       	lddpc	r8,80004264 <udi_cdc_comm_setup+0xa8>
800041da:	11 99       	ld.ub	r9,r8[0x1]
800041dc:	32 18       	mov	r8,33
800041de:	f0 09 18 00 	cp.b	r9,r8
800041e2:	c3 d1       	brne	8000425c <udi_cdc_comm_setup+0xa0>
			case USB_REQ_CDC_GET_LINE_CODING:
				// Get configuration of CDC line
				if (sizeof(usb_cdc_line_coding_t) !=
800041e4:	4a 08       	lddpc	r8,80004264 <udi_cdc_comm_setup+0xa8>
800041e6:	90 39       	ld.sh	r9,r8[0x6]
800041e8:	30 78       	mov	r8,7
800041ea:	f0 09 19 00 	cp.h	r9,r8
800041ee:	c3 71       	brne	8000425c <udi_cdc_comm_setup+0xa0>
						udd_g_ctrlreq.req.wLength)
					return false; // Error for USB host
				udd_g_ctrlreq.payload =
800041f0:	49 d8       	lddpc	r8,80004264 <udi_cdc_comm_setup+0xa8>
800041f2:	f8 09 15 03 	lsl	r9,r12,0x3
800041f6:	f2 0c 01 0c 	sub	r12,r9,r12
800041fa:	49 c9       	lddpc	r9,80004268 <udi_cdc_comm_setup+0xac>
800041fc:	18 09       	add	r9,r12
800041fe:	91 29       	st.w	r8[0x8],r9
						(uint8_t *) &
						udi_cdc_line_coding[port];
				udd_g_ctrlreq.payload_size =
80004200:	30 79       	mov	r9,7
80004202:	b0 69       	st.h	r8[0xc],r9
80004204:	da 0a       	popm	pc,r12=1
			}
		}
	}
	if (Udd_setup_is_out()) {
		// SET Interface Requests
		if (Udd_setup_type() == USB_REQ_TYPE_CLASS) {
80004206:	e2 18 00 60 	andl	r8,0x60,COH
8000420a:	e0 48 00 20 	cp.w	r8,32
8000420e:	c2 71       	brne	8000425c <udi_cdc_comm_setup+0xa0>
			// Requests Class Interface Set
			switch (udd_g_ctrlreq.req.bRequest) {
80004210:	49 58       	lddpc	r8,80004264 <udi_cdc_comm_setup+0xa8>
80004212:	11 98       	ld.ub	r8,r8[0x1]
80004214:	32 09       	mov	r9,32
80004216:	f2 08 18 00 	cp.b	r8,r9
8000421a:	c0 60       	breq	80004226 <udi_cdc_comm_setup+0x6a>
8000421c:	32 29       	mov	r9,34
8000421e:	f2 08 18 00 	cp.b	r8,r9
80004222:	c1 d1       	brne	8000425c <udi_cdc_comm_setup+0xa0>
80004224:	c1 58       	rjmp	8000424e <udi_cdc_comm_setup+0x92>
			case USB_REQ_CDC_SET_LINE_CODING:
				// Change configuration of CDC line
				if (sizeof(usb_cdc_line_coding_t) !=
80004226:	49 08       	lddpc	r8,80004264 <udi_cdc_comm_setup+0xa8>
80004228:	90 39       	ld.sh	r9,r8[0x6]
8000422a:	30 78       	mov	r8,7
8000422c:	f0 09 19 00 	cp.h	r9,r8
80004230:	c1 61       	brne	8000425c <udi_cdc_comm_setup+0xa0>
						udd_g_ctrlreq.req.wLength)
					return false; // Error for USB host
				udd_g_ctrlreq.callback =
80004232:	48 d8       	lddpc	r8,80004264 <udi_cdc_comm_setup+0xa8>
80004234:	48 e9       	lddpc	r9,8000426c <udi_cdc_comm_setup+0xb0>
80004236:	91 49       	st.w	r8[0x10],r9
						udi_cdc_line_coding_received;
				udd_g_ctrlreq.payload =
80004238:	f8 09 15 03 	lsl	r9,r12,0x3
8000423c:	f2 0c 01 0c 	sub	r12,r9,r12
80004240:	48 a9       	lddpc	r9,80004268 <udi_cdc_comm_setup+0xac>
80004242:	f2 0c 00 0c 	add	r12,r9,r12
80004246:	91 2c       	st.w	r8[0x8],r12
						(uint8_t *) &
						udi_cdc_line_coding[port];
				udd_g_ctrlreq.payload_size =
80004248:	30 79       	mov	r9,7
8000424a:	b0 69       	st.h	r8[0xc],r9
8000424c:	da 0a       	popm	pc,r12=1
						sizeof(usb_cdc_line_coding_t);
				return true;
			case USB_REQ_CDC_SET_CONTROL_LINE_STATE:
				// According cdc spec 1.1 chapter 6.2.14
				UDI_CDC_SET_DTR_EXT(port, (0 !=
8000424e:	48 68       	lddpc	r8,80004264 <udi_cdc_comm_setup+0xa8>
80004250:	90 9b       	ld.uh	r11,r8[0x2]
80004252:	f7 db c0 01 	bfextu	r11,r11,0x0,0x1
80004256:	f0 1f 00 07 	mcall	80004270 <udi_cdc_comm_setup+0xb4>
8000425a:	da 0a       	popm	pc,r12=1
						(udd_g_ctrlreq.req.wValue
						 & CDC_CTRL_SIGNAL_DTE_PRESENT)));
				UDI_CDC_SET_RTS_EXT(port, (0 !=
						(udd_g_ctrlreq.req.wValue
						 & CDC_CTRL_SIGNAL_ACTIVATE_CARRIER)));
				return true;
8000425c:	d8 0a       	popm	pc,r12=0
8000425e:	00 00       	add	r0,r0
80004260:	80 00       	ld.sh	r0,r0[0x0]
80004262:	3d 40       	mov	r0,-44
80004264:	00 00       	add	r0,r0
80004266:	0f 64       	ld.uh	r4,--r7
80004268:	00 00       	add	r0,r0
8000426a:	07 05       	ld.w	r5,r3++
8000426c:	80 00       	ld.sh	r0,r0[0x0]
8000426e:	42 74       	lddsp	r4,sp[0x9c]
80004270:	80 00       	ld.sh	r0,r0[0x0]
80004272:	4e a4       	lddpc	r4,80004418 <udc_update_iface_desc+0x74>

80004274 <udi_cdc_line_coding_received>:
	}
	return port;
}

static void udi_cdc_line_coding_received(void)
{
80004274:	d4 01       	pushm	lr
	uint8_t port = udi_cdc_setup_to_port();
80004276:	f0 1f 00 06 	mcall	8000428c <udi_cdc_line_coding_received+0x18>
	UNUSED(port);

	UDI_CDC_SET_CODING_EXT(port, (&udi_cdc_line_coding[port]));
8000427a:	f8 08 15 03 	lsl	r8,r12,0x3
8000427e:	18 18       	sub	r8,r12
80004280:	48 4b       	lddpc	r11,80004290 <udi_cdc_line_coding_received+0x1c>
80004282:	10 0b       	add	r11,r8
80004284:	f0 1f 00 04 	mcall	80004294 <udi_cdc_line_coding_received+0x20>
}
80004288:	d8 02       	popm	pc
8000428a:	00 00       	add	r0,r0
8000428c:	80 00       	ld.sh	r0,r0[0x0]
8000428e:	3d 40       	mov	r0,-44
80004290:	00 00       	add	r0,r0
80004292:	07 05       	ld.w	r5,r3++
80004294:	80 00       	ld.sh	r0,r0[0x0]
80004296:	56 86       	stdsp	sp[0x1a0],r6

80004298 <udi_cdc_data_disable>:
	Assert(udi_cdc_nb_comm_enabled != 0);
	udi_cdc_nb_comm_enabled--;
}

void udi_cdc_data_disable(void)
{
80004298:	d4 01       	pushm	lr
	uint8_t port;
	UNUSED(port);

	Assert(udi_cdc_nb_data_enabled != 0);
	udi_cdc_nb_data_enabled--;
8000429a:	48 68       	lddpc	r8,800042b0 <udi_cdc_data_disable+0x18>
8000429c:	11 89       	ld.ub	r9,r8[0x0]
8000429e:	20 19       	sub	r9,1
800042a0:	b0 89       	st.b	r8[0x0],r9
	port = udi_cdc_nb_data_enabled;
800042a2:	11 8c       	ld.ub	r12,r8[0x0]
	UDI_CDC_DISABLE_EXT(port);
800042a4:	f0 1f 00 04 	mcall	800042b4 <udi_cdc_data_disable+0x1c>
	udi_cdc_data_running = false;
800042a8:	30 09       	mov	r9,0
800042aa:	48 48       	lddpc	r8,800042b8 <udi_cdc_data_disable+0x20>
800042ac:	b0 89       	st.b	r8[0x0],r9
}
800042ae:	d8 02       	popm	pc
800042b0:	00 00       	add	r0,r0
800042b2:	07 0e       	ld.w	lr,r3++
800042b4:	80 00       	ld.sh	r0,r0[0x0]
800042b6:	4a d0       	lddpc	r0,80004368 <udc_sof_notify+0x34>
800042b8:	00 00       	add	r0,r0
800042ba:	09 a2       	ld.ub	r2,r4[0x2]

800042bc <udi_cdc_comm_enable>:
static volatile bool udi_cdc_tx_both_buf_to_send[UDI_CDC_PORT_NB];

//@}

bool udi_cdc_comm_enable(void)
{
800042bc:	eb cd 40 80 	pushm	r7,lr
	uint8_t port;
	uint8_t iface_comm_num;

#if UDI_CDC_PORT_NB == 1 // To optimize code
	port = 0;
	udi_cdc_nb_comm_enabled = 0;
800042c0:	30 0a       	mov	r10,0
800042c2:	49 78       	lddpc	r8,8000431c <udi_cdc_comm_enable+0x60>
800042c4:	b0 8a       	st.b	r8[0x0],r10
	}
	port = udi_cdc_nb_comm_enabled;
#endif

	// Initialize control signal management
	udi_cdc_state[port] = CPU_TO_LE16(0);
800042c6:	30 09       	mov	r9,0
800042c8:	49 68       	lddpc	r8,80004320 <udi_cdc_comm_enable+0x64>
800042ca:	b0 09       	st.h	r8[0x0],r9

	uid_cdc_state_msg[port].header.bmRequestType =
800042cc:	49 68       	lddpc	r8,80004324 <udi_cdc_comm_enable+0x68>
800042ce:	3a 1b       	mov	r11,-95
800042d0:	b0 8b       	st.b	r8[0x0],r11
			USB_REQ_DIR_IN | USB_REQ_TYPE_CLASS |
			USB_REQ_RECIP_INTERFACE;
	uid_cdc_state_msg[port].header.bNotification = USB_REQ_CDC_NOTIFY_SERIAL_STATE;
800042d2:	32 0b       	mov	r11,32
800042d4:	b0 9b       	st.b	r8[0x1],r11
	uid_cdc_state_msg[port].header.wValue = LE16(0);
800042d6:	b0 19       	st.h	r8[0x2],r9
	default:
		iface_comm_num = UDI_CDC_COMM_IFACE_NUMBER_0;
		break;
	}

	uid_cdc_state_msg[port].header.wIndex = LE16(iface_comm_num);
800042d8:	b0 29       	st.h	r8[0x4],r9
	uid_cdc_state_msg[port].header.wLength = LE16(2);
800042da:	e0 6b 02 00 	mov	r11,512
800042de:	b0 3b       	st.h	r8[0x6],r11
	uid_cdc_state_msg[port].value = CPU_TO_LE16(0);
800042e0:	b0 49       	st.h	r8[0x8],r9

	udi_cdc_line_coding[port].dwDTERate = CPU_TO_LE32(UDI_CDC_DEFAULT_RATE);
800042e2:	49 2b       	lddpc	r11,80004328 <udi_cdc_comm_enable+0x6c>
800042e4:	30 07       	mov	r7,0
800042e6:	b6 89       	st.b	r11[0x0],r9
800042e8:	3c 28       	mov	r8,-62
800042ea:	b6 98       	st.b	r11[0x1],r8
800042ec:	30 18       	mov	r8,1
800042ee:	b6 a8       	st.b	r11[0x2],r8
800042f0:	b6 ba       	st.b	r11[0x3],r10
	udi_cdc_line_coding[port].bCharFormat = UDI_CDC_DEFAULT_STOPBITS;
800042f2:	b6 ca       	st.b	r11[0x4],r10
	udi_cdc_line_coding[port].bParityType = UDI_CDC_DEFAULT_PARITY;
800042f4:	b6 da       	st.b	r11[0x5],r10
	udi_cdc_line_coding[port].bDataBits = UDI_CDC_DEFAULT_DATABITS;
800042f6:	30 88       	mov	r8,8
800042f8:	b6 e8       	st.b	r11[0x6],r8
	// Call application callback
	// to initialize memories or indicate that interface is enabled
	UDI_CDC_SET_CODING_EXT(port,(&udi_cdc_line_coding[port]));
800042fa:	0e 9c       	mov	r12,r7
800042fc:	f0 1f 00 0c 	mcall	8000432c <udi_cdc_comm_enable+0x70>
	if (!UDI_CDC_ENABLE_EXT(port)) {
80004300:	0e 9c       	mov	r12,r7
80004302:	f0 1f 00 0c 	mcall	80004330 <udi_cdc_comm_enable+0x74>
80004306:	c0 41       	brne	8000430e <udi_cdc_comm_enable+0x52>
80004308:	0e 9c       	mov	r12,r7
8000430a:	e3 cd 80 80 	ldm	sp++,r7,pc
		return false;
	}
	udi_cdc_nb_comm_enabled++;
8000430e:	48 48       	lddpc	r8,8000431c <udi_cdc_comm_enable+0x60>
80004310:	11 89       	ld.ub	r9,r8[0x0]
80004312:	2f f9       	sub	r9,-1
80004314:	b0 89       	st.b	r8[0x0],r9
80004316:	e3 cf 90 80 	ldm	sp++,r7,pc,r12=1
8000431a:	00 00       	add	r0,r0
8000431c:	00 00       	add	r0,r0
8000431e:	09 9c       	ld.ub	r12,r4[0x1]
80004320:	00 00       	add	r0,r0
80004322:	0c 40       	or	r0,r6
80004324:	00 00       	add	r0,r0
80004326:	09 ac       	ld.ub	r12,r4[0x2]
80004328:	00 00       	add	r0,r0
8000432a:	07 05       	ld.w	r5,r3++
8000432c:	80 00       	ld.sh	r0,r0[0x0]
8000432e:	56 86       	stdsp	sp[0x1a0],r6
80004330:	80 00       	ld.sh	r0,r0[0x0]
80004332:	4a c4       	lddpc	r4,800043e0 <udc_update_iface_desc+0x3c>

80004334 <udc_sof_notify>:
			CPU_TO_LE16(USB_DEV_STATUS_BUS_POWERED);
#endif
}

void udc_sof_notify(void)
{
80004334:	eb cd 40 c0 	pushm	r6-r7,lr
	uint8_t iface_num;

	if (udc_num_configuration) {
80004338:	49 18       	lddpc	r8,8000437c <udc_sof_notify+0x48>
8000433a:	11 89       	ld.ub	r9,r8[0x0]
8000433c:	30 08       	mov	r8,0
8000433e:	f0 09 18 00 	cp.b	r9,r8
80004342:	c1 b0       	breq	80004378 <udc_sof_notify+0x44>
		for (iface_num = 0;
				iface_num < udc_ptr_conf->desc->bNumInterfaces;
80004344:	48 f8       	lddpc	r8,80004380 <udc_sof_notify+0x4c>
80004346:	70 08       	ld.w	r8,r8[0x0]
void udc_sof_notify(void)
{
	uint8_t iface_num;

	if (udc_num_configuration) {
		for (iface_num = 0;
80004348:	70 09       	ld.w	r9,r8[0x0]
8000434a:	13 ca       	ld.ub	r10,r9[0x4]
8000434c:	30 09       	mov	r9,0
8000434e:	f2 0a 18 00 	cp.b	r10,r9
80004352:	c1 30       	breq	80004378 <udc_sof_notify+0x44>
80004354:	30 07       	mov	r7,0
				iface_num < udc_ptr_conf->desc->bNumInterfaces;
80004356:	48 b6       	lddpc	r6,80004380 <udc_sof_notify+0x4c>
				iface_num++) {
			if (udc_ptr_conf->udi_apis[iface_num]->sof_notify != NULL) {
80004358:	70 18       	ld.w	r8,r8[0x4]
8000435a:	f0 07 03 28 	ld.w	r8,r8[r7<<0x2]
8000435e:	70 48       	ld.w	r8,r8[0x10]
80004360:	58 08       	cp.w	r8,0
80004362:	c0 20       	breq	80004366 <udc_sof_notify+0x32>
				udc_ptr_conf->udi_apis[iface_num]->sof_notify();
80004364:	5d 18       	icall	r8
	uint8_t iface_num;

	if (udc_num_configuration) {
		for (iface_num = 0;
				iface_num < udc_ptr_conf->desc->bNumInterfaces;
				iface_num++) {
80004366:	2f f7       	sub	r7,-1
80004368:	5c 57       	castu.b	r7
{
	uint8_t iface_num;

	if (udc_num_configuration) {
		for (iface_num = 0;
				iface_num < udc_ptr_conf->desc->bNumInterfaces;
8000436a:	6c 08       	ld.w	r8,r6[0x0]
void udc_sof_notify(void)
{
	uint8_t iface_num;

	if (udc_num_configuration) {
		for (iface_num = 0;
8000436c:	70 09       	ld.w	r9,r8[0x0]
8000436e:	13 c9       	ld.ub	r9,r9[0x4]
80004370:	ee 09 18 00 	cp.b	r9,r7
80004374:	fe 9b ff f2 	brhi	80004358 <udc_sof_notify+0x24>
80004378:	e3 cd 80 c0 	ldm	sp++,r6-r7,pc
8000437c:	00 00       	add	r0,r0
8000437e:	0c 4e       	or	lr,r6
80004380:	00 00       	add	r0,r0
80004382:	0c 44       	or	r4,r6

80004384 <udc_get_eof_conf>:
 */
static usb_conf_desc_t UDC_DESC_STORAGE *udc_get_eof_conf(void)
{
	return (UDC_DESC_STORAGE usb_conf_desc_t *) ((uint8_t *)
			udc_ptr_conf->desc +
			le16_to_cpu(udc_ptr_conf->desc->wTotalLength));
80004384:	48 78       	lddpc	r8,800043a0 <udc_get_eof_conf+0x1c>
80004386:	70 08       	ld.w	r8,r8[0x0]
80004388:	70 08       	ld.w	r8,r8[0x0]
8000438a:	11 aa       	ld.ub	r10,r8[0x2]
8000438c:	11 b9       	ld.ub	r9,r8[0x3]
8000438e:	f3 ea 10 89 	or	r9,r9,r10<<0x8
80004392:	5c c9       	swap.bh	r9
80004394:	f9 d9 c0 10 	bfextu	r12,r9,0x0,0x10
}
80004398:	f0 0c 00 0c 	add	r12,r8,r12
8000439c:	5e fc       	retal	r12
8000439e:	00 00       	add	r0,r0
800043a0:	00 00       	add	r0,r0
800043a2:	0c 44       	or	r4,r6

800043a4 <udc_update_iface_desc>:
 * \param setting_num   Setting number of interface to find
 *
 * \return 1 if found or 0 if not found
 */
static bool udc_update_iface_desc(uint8_t iface_num, uint8_t setting_num)
{
800043a4:	eb cd 40 e0 	pushm	r5-r7,lr
800043a8:	18 97       	mov	r7,r12
800043aa:	16 96       	mov	r6,r11
	usb_conf_desc_t UDC_DESC_STORAGE *ptr_end_desc;

	if (0 == udc_num_configuration) {
800043ac:	49 b8       	lddpc	r8,80004418 <udc_update_iface_desc+0x74>
800043ae:	11 89       	ld.ub	r9,r8[0x0]
800043b0:	30 08       	mov	r8,0
800043b2:	f0 09 18 00 	cp.b	r9,r8
800043b6:	c2 f0       	breq	80004414 <udc_update_iface_desc+0x70>
		return false;
	}

	if (iface_num >= udc_ptr_conf->desc->bNumInterfaces) {
800043b8:	49 98       	lddpc	r8,8000441c <udc_update_iface_desc+0x78>
800043ba:	70 08       	ld.w	r8,r8[0x0]
800043bc:	70 08       	ld.w	r8,r8[0x0]
800043be:	11 c9       	ld.ub	r9,r8[0x4]
800043c0:	18 9e       	mov	lr,r12
800043c2:	f8 09 18 00 	cp.b	r9,r12
800043c6:	e0 88 00 27 	brls	80004414 <udc_update_iface_desc+0x70>
		return false;
	}

	// Start at the beginning of configuration descriptor
	udc_ptr_iface = (UDC_DESC_STORAGE usb_iface_desc_t *)
800043ca:	49 65       	lddpc	r5,80004420 <udc_update_iface_desc+0x7c>
800043cc:	8b 08       	st.w	r5[0x0],r8
			udc_ptr_conf->desc;

	// Check the end of configuration descriptor
	ptr_end_desc = udc_get_eof_conf();
800043ce:	f0 1f 00 16 	mcall	80004424 <udc_update_iface_desc+0x80>
	while (ptr_end_desc >
800043d2:	6a 08       	ld.w	r8,r5[0x0]
800043d4:	10 3c       	cp.w	r12,r8
800043d6:	e0 88 00 1f 	brls	80004414 <udc_update_iface_desc+0x70>
			(UDC_DESC_STORAGE usb_conf_desc_t *) udc_ptr_iface) {
		if (USB_DT_INTERFACE == udc_ptr_iface->bDescriptorType) {
800043da:	30 4b       	mov	r11,4
	udc_ptr_iface = (UDC_DESC_STORAGE usb_iface_desc_t *)
			udc_ptr_conf->desc;

	// Check the end of configuration descriptor
	ptr_end_desc = udc_get_eof_conf();
	while (ptr_end_desc >
800043dc:	10 99       	mov	r9,r8
			(UDC_DESC_STORAGE usb_conf_desc_t *) udc_ptr_iface) {
		if (USB_DT_INTERFACE == udc_ptr_iface->bDescriptorType) {
800043de:	11 9a       	ld.ub	r10,r8[0x1]
800043e0:	f6 0a 18 00 	cp.b	r10,r11
800043e4:	c0 a1       	brne	800043f8 <udc_update_iface_desc+0x54>
			// A interface descriptor is found
			// Check interface and alternate setting number
			if ((iface_num == udc_ptr_iface->bInterfaceNumber) &&
800043e6:	11 aa       	ld.ub	r10,r8[0x2]
800043e8:	0e 9e       	mov	lr,r7
800043ea:	ee 0a 18 00 	cp.b	r10,r7
800043ee:	c0 51       	brne	800043f8 <udc_update_iface_desc+0x54>
					(setting_num ==
					udc_ptr_iface->bAlternateSetting)) {
800043f0:	11 ba       	ld.ub	r10,r8[0x3]
800043f2:	ec 0a 18 00 	cp.b	r10,r6
800043f6:	c0 b0       	breq	8000440c <udc_update_iface_desc+0x68>
				return true; // Interface found
			}
		}
		// Go to next descriptor
		udc_ptr_iface = (UDC_DESC_STORAGE usb_iface_desc_t *) (
800043f8:	13 88       	ld.ub	r8,r9[0x0]
800043fa:	f2 08 00 08 	add	r8,r9,r8
	udc_ptr_iface = (UDC_DESC_STORAGE usb_iface_desc_t *)
			udc_ptr_conf->desc;

	// Check the end of configuration descriptor
	ptr_end_desc = udc_get_eof_conf();
	while (ptr_end_desc >
800043fe:	10 3c       	cp.w	r12,r8
80004400:	fe 9b ff ee 	brhi	800043dc <udc_update_iface_desc+0x38>
80004404:	48 79       	lddpc	r9,80004420 <udc_update_iface_desc+0x7c>
80004406:	93 08       	st.w	r9[0x0],r8
80004408:	e3 cf 80 e0 	ldm	sp++,r5-r7,pc,r12=0
8000440c:	48 59       	lddpc	r9,80004420 <udc_update_iface_desc+0x7c>
8000440e:	93 08       	st.w	r9[0x0],r8
80004410:	e3 cf 90 e0 	ldm	sp++,r5-r7,pc,r12=1
80004414:	e3 cf 80 e0 	ldm	sp++,r5-r7,pc,r12=0
80004418:	00 00       	add	r0,r0
8000441a:	0c 4e       	or	lr,r6
8000441c:	00 00       	add	r0,r0
8000441e:	0c 44       	or	r4,r6
80004420:	00 00       	add	r0,r0
80004422:	0c 50       	eor	r0,r6
80004424:	80 00       	ld.sh	r0,r0[0x0]
80004426:	43 84       	lddsp	r4,sp[0xe0]

80004428 <udc_next_desc_in_iface>:
 * \return address of specific descriptor found
 * \return NULL if it is the end of global interface descriptor
 */
static usb_conf_desc_t UDC_DESC_STORAGE *udc_next_desc_in_iface(usb_conf_desc_t
		UDC_DESC_STORAGE * desc, uint8_t desc_id)
{
80004428:	eb cd 40 c0 	pushm	r6-r7,lr
8000442c:	18 96       	mov	r6,r12
8000442e:	16 97       	mov	r7,r11
	usb_conf_desc_t UDC_DESC_STORAGE *ptr_eof_desc;

	ptr_eof_desc = udc_get_eof_conf();
80004430:	f0 1f 00 11 	mcall	80004474 <udc_next_desc_in_iface+0x4c>
	// Go to next descriptor
	desc = (UDC_DESC_STORAGE usb_conf_desc_t *) ((uint8_t *) desc +
80004434:	0d 88       	ld.ub	r8,r6[0x0]
80004436:	10 06       	add	r6,r8
			desc->bLength);
	// Check the end of configuration descriptor
	while (ptr_eof_desc > desc) {
80004438:	0c 3c       	cp.w	r12,r6
8000443a:	e0 88 00 19 	brls	8000446c <udc_next_desc_in_iface+0x44>
		// If new interface descriptor is found,
		// then it is the end of the current global interface descriptor
		if (USB_DT_INTERFACE == desc->bDescriptorType) {
8000443e:	0d 98       	ld.ub	r8,r6[0x1]
80004440:	30 49       	mov	r9,4
80004442:	f2 08 18 00 	cp.b	r8,r9
80004446:	c1 30       	breq	8000446c <udc_next_desc_in_iface+0x44>
			break; // End of global interface descriptor
		}
		if (desc_id == desc->bDescriptorType) {
80004448:	ee 08 18 00 	cp.b	r8,r7
8000444c:	c0 a1       	brne	80004460 <udc_next_desc_in_iface+0x38>
8000444e:	c1 08       	rjmp	8000446e <udc_next_desc_in_iface+0x46>
			desc->bLength);
	// Check the end of configuration descriptor
	while (ptr_eof_desc > desc) {
		// If new interface descriptor is found,
		// then it is the end of the current global interface descriptor
		if (USB_DT_INTERFACE == desc->bDescriptorType) {
80004450:	0d 98       	ld.ub	r8,r6[0x1]
80004452:	f2 08 18 00 	cp.b	r8,r9
80004456:	c0 b0       	breq	8000446c <udc_next_desc_in_iface+0x44>
			break; // End of global interface descriptor
		}
		if (desc_id == desc->bDescriptorType) {
80004458:	ee 08 18 00 	cp.b	r8,r7
8000445c:	c0 31       	brne	80004462 <udc_next_desc_in_iface+0x3a>
8000445e:	c0 88       	rjmp	8000446e <udc_next_desc_in_iface+0x46>
			desc->bLength);
	// Check the end of configuration descriptor
	while (ptr_eof_desc > desc) {
		// If new interface descriptor is found,
		// then it is the end of the current global interface descriptor
		if (USB_DT_INTERFACE == desc->bDescriptorType) {
80004460:	30 49       	mov	r9,4
		}
		if (desc_id == desc->bDescriptorType) {
			return desc; // Specific descriptor found
		}
		// Go to next descriptor
		desc = (UDC_DESC_STORAGE usb_conf_desc_t *) ((uint8_t *) desc +
80004462:	0d 88       	ld.ub	r8,r6[0x0]
80004464:	10 06       	add	r6,r8
	ptr_eof_desc = udc_get_eof_conf();
	// Go to next descriptor
	desc = (UDC_DESC_STORAGE usb_conf_desc_t *) ((uint8_t *) desc +
			desc->bLength);
	// Check the end of configuration descriptor
	while (ptr_eof_desc > desc) {
80004466:	0c 3c       	cp.w	r12,r6
80004468:	fe 9b ff f4 	brhi	80004450 <udc_next_desc_in_iface+0x28>
8000446c:	30 06       	mov	r6,0
		// Go to next descriptor
		desc = (UDC_DESC_STORAGE usb_conf_desc_t *) ((uint8_t *) desc +
				desc->bLength);
	}
	return NULL; // No specific descriptor found
}
8000446e:	0c 9c       	mov	r12,r6
80004470:	e3 cd 80 c0 	ldm	sp++,r6-r7,pc
80004474:	80 00       	ld.sh	r0,r0[0x0]
80004476:	43 84       	lddsp	r4,sp[0xe0]

80004478 <udc_valid_address>:
/**
 * \brief Change the address of device
 * Callback called at the end of request set address
 */
static void udc_valid_address(void)
{
80004478:	d4 01       	pushm	lr
	udd_set_address(udd_g_ctrlreq.req.wValue & 0x7F);
8000447a:	48 48       	lddpc	r8,80004488 <udc_valid_address+0x10>
8000447c:	11 bc       	ld.ub	r12,r8[0x3]
8000447e:	f9 dc c0 07 	bfextu	r12,r12,0x0,0x7
80004482:	f0 1f 00 03 	mcall	8000448c <udc_valid_address+0x14>
}
80004486:	d8 02       	popm	pc
80004488:	00 00       	add	r0,r0
8000448a:	0f 64       	ld.uh	r4,--r7
8000448c:	80 00       	ld.sh	r0,r0[0x0]
8000448e:	2b 82       	sub	r2,-72

80004490 <udc_iface_enable>:
 * \param setting_num   Setting number to enable
 *
 * \return 1 if it is done or 0 if interface is not found
 */
static bool udc_iface_enable(uint8_t iface_num, uint8_t setting_num)
{
80004490:	eb cd 40 e0 	pushm	r5-r7,lr
80004494:	18 95       	mov	r5,r12
	// Select the interface descriptor
	if (!udc_update_iface_desc(iface_num, setting_num)) {
80004496:	f0 1f 00 12 	mcall	800044dc <udc_iface_enable+0x4c>
8000449a:	c1 f0       	breq	800044d8 <udc_iface_enable+0x48>

#if (0!=USB_DEVICE_MAX_EP)
	usb_ep_desc_t UDC_DESC_STORAGE *ep_desc;

	// Start at the beginning of the global interface descriptor
	ep_desc = (UDC_DESC_STORAGE usb_ep_desc_t *) udc_ptr_iface;
8000449c:	49 18       	lddpc	r8,800044e0 <udc_iface_enable+0x50>
8000449e:	70 07       	ld.w	r7,r8[0x0]
	while (1) {
		// Search Endpoint descriptor included in the global interface descriptor
		ep_desc = (UDC_DESC_STORAGE usb_ep_desc_t *)
800044a0:	30 56       	mov	r6,5
800044a2:	0c 9b       	mov	r11,r6
800044a4:	0e 9c       	mov	r12,r7
800044a6:	f0 1f 00 10 	mcall	800044e4 <udc_iface_enable+0x54>
800044aa:	18 97       	mov	r7,r12
				udc_next_desc_in_iface((UDC_DESC_STORAGE
						usb_conf_desc_t *) ep_desc,
				USB_DT_ENDPOINT);
		if (NULL == ep_desc)
800044ac:	c0 d0       	breq	800044c6 <udc_iface_enable+0x36>
			break;
		// Alloc the endpoint used by the interface
		if (!udd_ep_alloc(ep_desc->bEndpointAddress,
				ep_desc->bmAttributes,
				le16_to_cpu
800044ae:	19 ca       	ld.ub	r10,r12[0x4]
800044b0:	19 d8       	ld.ub	r8,r12[0x5]
800044b2:	f1 ea 10 8a 	or	r10,r8,r10<<0x8
800044b6:	5c ca       	swap.bh	r10
						usb_conf_desc_t *) ep_desc,
				USB_DT_ENDPOINT);
		if (NULL == ep_desc)
			break;
		// Alloc the endpoint used by the interface
		if (!udd_ep_alloc(ep_desc->bEndpointAddress,
800044b8:	5c 7a       	castu.h	r10
800044ba:	19 bb       	ld.ub	r11,r12[0x3]
800044bc:	19 ac       	ld.ub	r12,r12[0x2]
800044be:	f0 1f 00 0b 	mcall	800044e8 <udc_iface_enable+0x58>
800044c2:	cf 01       	brne	800044a2 <udc_iface_enable+0x12>
800044c4:	c0 a8       	rjmp	800044d8 <udc_iface_enable+0x48>
			return false;
		}
	}
#endif
	// Enable the interface
	return udc_ptr_conf->udi_apis[iface_num]->enable();
800044c6:	48 a8       	lddpc	r8,800044ec <udc_iface_enable+0x5c>
800044c8:	70 08       	ld.w	r8,r8[0x0]
800044ca:	70 18       	ld.w	r8,r8[0x4]
800044cc:	f0 05 03 28 	ld.w	r8,r8[r5<<0x2]
800044d0:	70 0c       	ld.w	r12,r8[0x0]
800044d2:	5d 1c       	icall	r12
800044d4:	e3 cd 80 e0 	ldm	sp++,r5-r7,pc
800044d8:	e3 cf 80 e0 	ldm	sp++,r5-r7,pc,r12=0
800044dc:	80 00       	ld.sh	r0,r0[0x0]
800044de:	43 a4       	lddsp	r4,sp[0xe8]
800044e0:	00 00       	add	r0,r0
800044e2:	0c 50       	eor	r0,r6
800044e4:	80 00       	ld.sh	r0,r0[0x0]
800044e6:	44 28       	lddsp	r8,sp[0x108]
800044e8:	80 00       	ld.sh	r0,r0[0x0]
800044ea:	32 b4       	mov	r4,43
800044ec:	00 00       	add	r0,r0
800044ee:	0c 44       	or	r4,r6

800044f0 <udc_iface_disable>:
 * \param iface_num     Interface number to disable
 *
 * \return 1 if it is done or 0 if interface is not found
 */
static bool udc_iface_disable(uint8_t iface_num)
{
800044f0:	eb cd 40 e0 	pushm	r5-r7,lr
800044f4:	18 96       	mov	r6,r12
	udi_api_t UDC_DESC_STORAGE *udi_api;

	// Select first alternate setting of the interface
	// to update udc_ptr_iface before call iface->getsetting()
	if (!udc_update_iface_desc(iface_num, 0)) {
800044f6:	18 97       	mov	r7,r12
800044f8:	30 0b       	mov	r11,0
800044fa:	f0 1f 00 12 	mcall	80004540 <udc_iface_disable+0x50>
800044fe:	c1 e0       	breq	8000453a <udc_iface_disable+0x4a>
		return false;
	}

	// Select the interface with the current alternate setting
	udi_api = udc_ptr_conf->udi_apis[iface_num];
80004500:	49 18       	lddpc	r8,80004544 <udc_iface_disable+0x54>
80004502:	70 08       	ld.w	r8,r8[0x0]
80004504:	70 18       	ld.w	r8,r8[0x4]
80004506:	f0 06 03 25 	ld.w	r5,r8[r6<<0x2]

#if (0!=USB_DEVICE_MAX_EP)
	if (!udc_update_iface_desc(iface_num, udi_api->getsetting())) {
8000450a:	6a 3c       	ld.w	r12,r5[0xc]
8000450c:	5d 1c       	icall	r12
8000450e:	18 9b       	mov	r11,r12
80004510:	0c 9c       	mov	r12,r6
80004512:	f0 1f 00 0c 	mcall	80004540 <udc_iface_disable+0x50>
80004516:	c1 20       	breq	8000453a <udc_iface_disable+0x4a>
	}

	// Start at the beginning of interface descriptor
	{
		usb_ep_desc_t UDC_DESC_STORAGE *ep_desc;
		ep_desc = (UDC_DESC_STORAGE usb_ep_desc_t *) udc_ptr_iface;
80004518:	48 c8       	lddpc	r8,80004548 <udc_iface_disable+0x58>
8000451a:	70 07       	ld.w	r7,r8[0x0]
		while (1) {
			// Search Endpoint descriptor included in global interface descriptor
			ep_desc = (UDC_DESC_STORAGE usb_ep_desc_t *)
8000451c:	30 56       	mov	r6,5
8000451e:	0c 9b       	mov	r11,r6
80004520:	0e 9c       	mov	r12,r7
80004522:	f0 1f 00 0b 	mcall	8000454c <udc_iface_disable+0x5c>
80004526:	18 97       	mov	r7,r12
					udc_next_desc_in_iface((UDC_DESC_STORAGE
					usb_conf_desc_t *)
					ep_desc, USB_DT_ENDPOINT);
			if (NULL == ep_desc) {
80004528:	c0 50       	breq	80004532 <udc_iface_disable+0x42>
				break;
			}
			// Free the endpoint used by the interface
			udd_ep_free(ep_desc->bEndpointAddress);
8000452a:	19 ac       	ld.ub	r12,r12[0x2]
8000452c:	f0 1f 00 09 	mcall	80004550 <udc_iface_disable+0x60>
		}
80004530:	cf 7b       	rjmp	8000451e <udc_iface_disable+0x2e>
	}
#endif

	// Disable interface
	udi_api->disable();
80004532:	6a 18       	ld.w	r8,r5[0x4]
80004534:	5d 18       	icall	r8
80004536:	e3 cf 90 e0 	ldm	sp++,r5-r7,pc,r12=1
	return true;
8000453a:	e3 cf 80 e0 	ldm	sp++,r5-r7,pc,r12=0
8000453e:	00 00       	add	r0,r0
80004540:	80 00       	ld.sh	r0,r0[0x0]
80004542:	43 a4       	lddsp	r4,sp[0xe8]
80004544:	00 00       	add	r0,r0
80004546:	0c 44       	or	r4,r6
80004548:	00 00       	add	r0,r0
8000454a:	0c 50       	eor	r0,r6
8000454c:	80 00       	ld.sh	r0,r0[0x0]
8000454e:	44 28       	lddsp	r8,sp[0x108]
80004550:	80 00       	ld.sh	r0,r0[0x0]
80004552:	2e 4c       	sub	r12,-28

80004554 <udc_reset>:
/**
 * \brief Reset the current configuration of the USB device,
 * This routines can be called by UDD when a RESET on the USB line occurs.
 */
void udc_reset(void)
{
80004554:	eb cd 40 c0 	pushm	r6-r7,lr
	uint8_t iface_num;

	if (udc_num_configuration) {
80004558:	49 38       	lddpc	r8,800045a4 <udc_reset+0x50>
8000455a:	11 89       	ld.ub	r9,r8[0x0]
8000455c:	30 08       	mov	r8,0
8000455e:	f0 09 18 00 	cp.b	r9,r8
80004562:	c1 70       	breq	80004590 <udc_reset+0x3c>
		for (iface_num = 0;
				iface_num < udc_ptr_conf->desc->bNumInterfaces;
80004564:	49 18       	lddpc	r8,800045a8 <udc_reset+0x54>
80004566:	70 08       	ld.w	r8,r8[0x0]
80004568:	70 08       	ld.w	r8,r8[0x0]
8000456a:	11 c9       	ld.ub	r9,r8[0x4]
8000456c:	30 08       	mov	r8,0
8000456e:	f0 09 18 00 	cp.b	r9,r8
80004572:	c0 f0       	breq	80004590 <udc_reset+0x3c>
80004574:	30 07       	mov	r7,0
80004576:	48 d6       	lddpc	r6,800045a8 <udc_reset+0x54>
				iface_num++) {
			udc_iface_disable(iface_num);
80004578:	0e 9c       	mov	r12,r7
8000457a:	f0 1f 00 0d 	mcall	800045ac <udc_reset+0x58>
	uint8_t iface_num;

	if (udc_num_configuration) {
		for (iface_num = 0;
				iface_num < udc_ptr_conf->desc->bNumInterfaces;
				iface_num++) {
8000457e:	2f f7       	sub	r7,-1
80004580:	5c 57       	castu.b	r7
{
	uint8_t iface_num;

	if (udc_num_configuration) {
		for (iface_num = 0;
				iface_num < udc_ptr_conf->desc->bNumInterfaces;
80004582:	6c 08       	ld.w	r8,r6[0x0]
80004584:	70 08       	ld.w	r8,r8[0x0]
80004586:	11 c8       	ld.ub	r8,r8[0x4]
80004588:	ee 08 18 00 	cp.b	r8,r7
8000458c:	fe 9b ff f6 	brhi	80004578 <udc_reset+0x24>
				iface_num++) {
			udc_iface_disable(iface_num);
		}
	}
	udc_num_configuration = 0;
80004590:	30 09       	mov	r9,0
80004592:	48 58       	lddpc	r8,800045a4 <udc_reset+0x50>
80004594:	b0 89       	st.b	r8[0x0],r9
	if (CPU_TO_LE16(USB_DEV_STATUS_REMOTEWAKEUP) & udc_device_status) {
		// Remote wakeup is enabled then disable it
		UDC_REMOTEWAKEUP_DISABLE();
	}
#endif
	udc_device_status =
80004596:	e0 69 01 00 	mov	r9,256
8000459a:	48 68       	lddpc	r8,800045b0 <udc_reset+0x5c>
8000459c:	b0 09       	st.h	r8[0x0],r9
#if (USB_DEVICE_ATTR & USB_CONFIG_ATTR_SELF_POWERED)
			CPU_TO_LE16(USB_DEV_STATUS_SELF_POWERED);
#else
			CPU_TO_LE16(USB_DEV_STATUS_BUS_POWERED);
#endif
}
8000459e:	e3 cd 80 c0 	ldm	sp++,r6-r7,pc
800045a2:	00 00       	add	r0,r0
800045a4:	00 00       	add	r0,r0
800045a6:	0c 4e       	or	lr,r6
800045a8:	00 00       	add	r0,r0
800045aa:	0c 44       	or	r4,r6
800045ac:	80 00       	ld.sh	r0,r0[0x0]
800045ae:	44 f0       	lddsp	r0,sp[0x13c]
800045b0:	00 00       	add	r0,r0
800045b2:	0c 4c       	or	r12,r6

800045b4 <udc_process_setup>:
 * sent to a specific application callback.
 *
 * \return true if the request is supported, else the request is stalled by UDD
 */
bool udc_process_setup(void)
{
800045b4:	eb cd 40 e0 	pushm	r5-r7,lr
	// By default no data (receive/send) and no callbacks registered
	udd_g_ctrlreq.payload_size = 0;
800045b8:	fe f8 04 a8 	ld.w	r8,pc[1192]
800045bc:	30 09       	mov	r9,0
800045be:	b0 69       	st.h	r8[0xc],r9
	udd_g_ctrlreq.callback = NULL;
800045c0:	30 0a       	mov	r10,0
800045c2:	91 4a       	st.w	r8[0x10],r10
	udd_g_ctrlreq.over_under_run = NULL;
800045c4:	91 5a       	st.w	r8[0x14],r10

	if (Udd_setup_is_in()) {
800045c6:	11 88       	ld.ub	r8,r8[0x0]
800045c8:	10 9a       	mov	r10,r8
800045ca:	f2 08 18 00 	cp.b	r8,r9
800045ce:	c0 94       	brge	800045e0 <udc_process_setup+0x2c>
		if (udd_g_ctrlreq.req.wLength == 0) {
800045d0:	fe f9 04 90 	ld.w	r9,pc[1168]
800045d4:	92 3b       	ld.sh	r11,r9[0x6]
800045d6:	30 09       	mov	r9,0
800045d8:	f2 0b 19 00 	cp.h	r11,r9
800045dc:	e0 80 02 3d 	breq	80004a56 <udc_process_setup+0x4a2>
			return false; // Error from USB host
		}
	}

	// If standard request then try to decode it in UDC
	if (Udd_setup_type() == USB_REQ_TYPE_STANDARD) {
800045e0:	10 99       	mov	r9,r8
800045e2:	e2 19 00 60 	andl	r9,0x60,COH
800045e6:	e0 81 01 e1 	brne	800049a8 <udc_process_setup+0x3f4>
 *
 * \return true if the request is supported
 */
static bool udc_reqstd(void)
{
	if (Udd_setup_is_in()) {
800045ea:	f2 0a 18 00 	cp.b	r10,r9
800045ee:	e0 84 01 02 	brge	800047f2 <udc_process_setup+0x23e>
		// GET Standard Requests
		if (udd_g_ctrlreq.req.wLength == 0) {
800045f2:	fe f9 04 6e 	ld.w	r9,pc[1134]
800045f6:	92 39       	ld.sh	r9,r9[0x6]
800045f8:	58 09       	cp.w	r9,0
800045fa:	e0 80 01 d7 	breq	800049a8 <udc_process_setup+0x3f4>
			return false; // Error for USB host
		}

		if (USB_REQ_RECIP_DEVICE == Udd_setup_recipient()) {
800045fe:	f1 d8 c0 05 	bfextu	r8,r8,0x0,0x5
80004602:	e0 81 00 9f 	brne	80004740 <udc_process_setup+0x18c>
			// Standard Get Device request
			switch (udd_g_ctrlreq.req.bRequest) {
80004606:	fe fa 04 5a 	ld.w	r10,pc[1114]
8000460a:	15 9a       	ld.ub	r10,r10[0x1]
8000460c:	30 6b       	mov	r11,6
8000460e:	f6 0a 18 00 	cp.b	r10,r11
80004612:	c1 a0       	breq	80004646 <udc_process_setup+0x92>
80004614:	30 8b       	mov	r11,8
80004616:	f6 0a 18 00 	cp.b	r10,r11
8000461a:	e0 80 00 86 	breq	80004726 <udc_process_setup+0x172>
8000461e:	30 0b       	mov	r11,0
80004620:	f6 0a 18 00 	cp.b	r10,r11
80004624:	e0 81 00 8e 	brne	80004740 <udc_process_setup+0x18c>
 *
 * \return true if success
 */
static bool udc_req_std_dev_get_status(void)
{
	if (udd_g_ctrlreq.req.wLength != sizeof(udc_device_status)) {
80004628:	30 28       	mov	r8,2
8000462a:	f0 09 19 00 	cp.h	r9,r8
8000462e:	c0 40       	breq	80004636 <udc_process_setup+0x82>
80004630:	30 0c       	mov	r12,0
80004632:	e0 8f 01 b9 	bral	800049a4 <udc_process_setup+0x3f0>
		return false;
	}

	udd_set_setup_payload( (uint8_t *) & udc_device_status,
80004636:	30 2b       	mov	r11,2
80004638:	fe fc 04 2c 	ld.w	r12,pc[1068]
8000463c:	f0 1f 01 0b 	mcall	80004a68 <udc_process_setup+0x4b4>
80004640:	30 1c       	mov	r12,1
80004642:	e0 8f 01 b1 	bral	800049a4 <udc_process_setup+0x3f0>
 */
static bool udc_req_std_dev_get_descriptor(void)
{
	uint8_t conf_num;

	conf_num = udd_g_ctrlreq.req.wValue & 0xff;
80004646:	fe f8 04 1a 	ld.w	r8,pc[1050]
8000464a:	90 19       	ld.sh	r9,r8[0x2]

	// Check descriptor ID
	switch ((uint8_t) (udd_g_ctrlreq.req.wValue >> 8)) {
8000464c:	f2 08 16 08 	lsr	r8,r9,0x8
80004650:	30 2a       	mov	r10,2
80004652:	f4 08 18 00 	cp.b	r8,r10
80004656:	c1 00       	breq	80004676 <udc_process_setup+0xc2>
80004658:	30 3a       	mov	r10,3
8000465a:	f4 08 18 00 	cp.b	r8,r10
8000465e:	c2 a0       	breq	800046b2 <udc_process_setup+0xfe>
80004660:	30 19       	mov	r9,1
80004662:	f2 08 18 00 	cp.b	r8,r9
80004666:	c5 e1       	brne	80004722 <udc_process_setup+0x16e>
		} else
#endif
		{
			udd_set_setup_payload(
				(uint8_t *) udc_config.confdev_lsfs,
				udc_config.confdev_lsfs->bLength);
80004668:	fe f8 04 04 	ld.w	r8,pc[1028]
8000466c:	70 0c       	ld.w	r12,r8[0x0]
				(uint8_t *) udc_config.confdev_hs,
				udc_config.confdev_hs->bLength);
		} else
#endif
		{
			udd_set_setup_payload(
8000466e:	19 8b       	ld.ub	r11,r12[0x0]
80004670:	f0 1f 00 fe 	mcall	80004a68 <udc_process_setup+0x4b4>
80004674:	c4 78       	rjmp	80004702 <udc_process_setup+0x14e>
 */
static bool udc_req_std_dev_get_descriptor(void)
{
	uint8_t conf_num;

	conf_num = udd_g_ctrlreq.req.wValue & 0xff;
80004676:	5c 59       	castu.b	r9
				le16_to_cpu(udc_config.conf_hs[conf_num].desc->wTotalLength));
		} else
#endif
		{
			// FS descriptor
			if (conf_num >= udc_config.confdev_lsfs->
80004678:	fe f8 03 f4 	ld.w	r8,pc[1012]
8000467c:	70 08       	ld.w	r8,r8[0x0]
8000467e:	f1 38 00 11 	ld.ub	r8,r8[17]
80004682:	f2 08 18 00 	cp.b	r8,r9
80004686:	e0 88 00 4e 	brls	80004722 <udc_process_setup+0x16e>
					bNumConfigurations) {
				return false;
			}
			udd_set_setup_payload(
				(uint8_t *)udc_config.conf_lsfs[conf_num].desc,
				le16_to_cpu(udc_config.conf_lsfs[conf_num].desc->wTotalLength));
8000468a:	fe f8 03 e2 	ld.w	r8,pc[994]
8000468e:	70 18       	ld.w	r8,r8[0x4]
80004690:	f0 09 03 3c 	ld.w	r12,r8[r9<<0x3]
80004694:	19 a9       	ld.ub	r9,r12[0x2]
80004696:	19 b8       	ld.ub	r8,r12[0x3]
80004698:	f1 e9 10 88 	or	r8,r8,r9<<0x8
8000469c:	5c c8       	swap.bh	r8
			// FS descriptor
			if (conf_num >= udc_config.confdev_lsfs->
					bNumConfigurations) {
				return false;
			}
			udd_set_setup_payload(
8000469e:	f7 d8 c0 10 	bfextu	r11,r8,0x0,0x10
800046a2:	f0 1f 00 f2 	mcall	80004a68 <udc_process_setup+0x4b4>
				(uint8_t *)udc_config.conf_lsfs[conf_num].desc,
				le16_to_cpu(udc_config.conf_lsfs[conf_num].desc->wTotalLength));
		}
		((usb_conf_desc_t *) udd_g_ctrlreq.payload)->bDescriptorType =
800046a6:	fe f8 03 ba 	ld.w	r8,pc[954]
800046aa:	70 28       	ld.w	r8,r8[0x8]
800046ac:	30 29       	mov	r9,2
800046ae:	b0 99       	st.b	r8[0x1],r9
800046b0:	c2 98       	rjmp	80004702 <udc_process_setup+0x14e>
	uint8_t i;
	const uint8_t *str;
	uint8_t str_length = 0;

	// Link payload pointer to the string corresponding at request
	switch (udd_g_ctrlreq.req.wValue & 0xff) {
800046b2:	5c 59       	castu.b	r9
800046b4:	58 19       	cp.w	r9,1
800046b6:	c1 00       	breq	800046d6 <udc_process_setup+0x122>
800046b8:	58 29       	cp.w	r9,2
800046ba:	c0 40       	breq	800046c2 <udc_process_setup+0x10e>
800046bc:	58 09       	cp.w	r9,0
800046be:	c0 60       	breq	800046ca <udc_process_setup+0x116>
800046c0:	c3 18       	rjmp	80004722 <udc_process_setup+0x16e>
800046c2:	fe fc 03 ae 	ld.w	r12,pc[942]
800046c6:	30 fb       	mov	r11,15
800046c8:	c0 a8       	rjmp	800046dc <udc_process_setup+0x128>
	case 0:
		udd_set_setup_payload((uint8_t *) &udc_string_desc_languageid,
800046ca:	30 4b       	mov	r11,4
800046cc:	fe fc 03 a8 	ld.w	r12,pc[936]
800046d0:	f0 1f 00 e6 	mcall	80004a68 <udc_process_setup+0x4b4>
800046d4:	c1 78       	rjmp	80004702 <udc_process_setup+0x14e>
800046d6:	fe fc 03 a2 	ld.w	r12,pc[930]
800046da:	30 9b       	mov	r11,9
800046dc:	fe fa 03 a0 	ld.w	r10,pc[928]
800046e0:	2f ea       	sub	r10,-2
800046e2:	18 98       	mov	r8,r12
		return false;
	}

	if (str_length) {
		for(i = 0; i < str_length; i++) {
			udc_string_desc.string[i] = cpu_to_le16((le16_t)str[i]);
800046e4:	11 39       	ld.ub	r9,r8++
800046e6:	5c c9       	swap.bh	r9
800046e8:	14 b9       	st.h	r10++,r9
#endif
		return false;
	}

	if (str_length) {
		for(i = 0; i < str_length; i++) {
800046ea:	f0 0c 01 09 	sub	r9,r8,r12
800046ee:	f6 09 18 00 	cp.b	r9,r11
800046f2:	cf 93       	brcs	800046e4 <udc_process_setup+0x130>
			udc_string_desc.string[i] = cpu_to_le16((le16_t)str[i]);
		}

		udc_string_desc.header.bLength = 2 + (str_length) * 2;
800046f4:	a1 7b       	lsl	r11,0x1
800046f6:	2f eb       	sub	r11,-2
800046f8:	fe fc 03 84 	ld.w	r12,pc[900]
800046fc:	b8 8b       	st.b	r12[0x0],r11
		udd_set_setup_payload(
800046fe:	f0 1f 00 db 	mcall	80004a68 <udc_process_setup+0x4b4>
	default:
		// Unknown descriptor requested
		return false;
	}
	// if the descriptor is larger than length requested, then reduce it
	if (udd_g_ctrlreq.req.wLength < udd_g_ctrlreq.payload_size) {
80004702:	fe f8 03 5e 	ld.w	r8,pc[862]
80004706:	90 39       	ld.sh	r9,r8[0x6]
80004708:	90 68       	ld.sh	r8,r8[0xc]
8000470a:	f2 08 19 00 	cp.h	r8,r9
8000470e:	e0 8b 00 05 	brhi	80004718 <udc_process_setup+0x164>
80004712:	30 1c       	mov	r12,1
80004714:	e0 8f 01 48 	bral	800049a4 <udc_process_setup+0x3f0>
		udd_g_ctrlreq.payload_size = udd_g_ctrlreq.req.wLength;
80004718:	fe f8 03 48 	ld.w	r8,pc[840]
8000471c:	b0 69       	st.h	r8[0xc],r9
8000471e:	30 1c       	mov	r12,1
80004720:	c4 29       	rjmp	800049a4 <udc_process_setup+0x3f0>
80004722:	30 0c       	mov	r12,0
80004724:	c4 09       	rjmp	800049a4 <udc_process_setup+0x3f0>
 *
 * \return true if success
 */
static bool udc_req_std_dev_get_configuration(void)
{
	if (udd_g_ctrlreq.req.wLength != 1) {
80004726:	30 18       	mov	r8,1
80004728:	f0 09 19 00 	cp.h	r9,r8
8000472c:	c0 30       	breq	80004732 <udc_process_setup+0x17e>
8000472e:	30 0c       	mov	r12,0
80004730:	c3 a9       	rjmp	800049a4 <udc_process_setup+0x3f0>
		return false;
	}

	udd_set_setup_payload(&udc_num_configuration,1);
80004732:	30 1b       	mov	r11,1
80004734:	fe fc 03 4c 	ld.w	r12,pc[844]
80004738:	f0 1f 00 cc 	mcall	80004a68 <udc_process_setup+0x4b4>
8000473c:	30 1c       	mov	r12,1
8000473e:	c3 39       	rjmp	800049a4 <udc_process_setup+0x3f0>
			default:
				break;
			}
		}

		if (USB_REQ_RECIP_INTERFACE == Udd_setup_recipient()) {
80004740:	58 18       	cp.w	r8,1
80004742:	c3 61       	brne	800047ae <udc_process_setup+0x1fa>
			// Standard Get Interface request
			switch (udd_g_ctrlreq.req.bRequest) {
80004744:	fe fa 03 1c 	ld.w	r10,pc[796]
80004748:	15 9b       	ld.ub	r11,r10[0x1]
8000474a:	30 aa       	mov	r10,10
8000474c:	f4 0b 18 00 	cp.b	r11,r10
80004750:	c2 f1       	brne	800047ae <udc_process_setup+0x1fa>
{
	static uint8_t udc_iface_setting;
	uint8_t iface_num;
	udi_api_t UDC_DESC_STORAGE *udi_api;

	if (udd_g_ctrlreq.req.wLength != 1) {
80004752:	f0 09 19 00 	cp.h	r9,r8
80004756:	c2 a1       	brne	800047aa <udc_process_setup+0x1f6>
		return false; // Error in request
	}
	if (!udc_num_configuration) {
80004758:	fe f8 03 28 	ld.w	r8,pc[808]
8000475c:	11 89       	ld.ub	r9,r8[0x0]
8000475e:	30 08       	mov	r8,0
80004760:	f0 09 18 00 	cp.b	r9,r8
80004764:	c2 30       	breq	800047aa <udc_process_setup+0x1f6>
		return false; // The device is not is configured state yet
	}

	// Check the interface number included in the request
	iface_num = udd_g_ctrlreq.req.wIndex & 0xFF;
80004766:	fe f8 02 fa 	ld.w	r8,pc[762]
8000476a:	11 d7       	ld.ub	r7,r8[0x5]
	if (iface_num >= udc_ptr_conf->desc->bNumInterfaces) {
8000476c:	fe f8 03 18 	ld.w	r8,pc[792]
80004770:	70 08       	ld.w	r8,r8[0x0]
80004772:	70 08       	ld.w	r8,r8[0x0]
80004774:	11 c8       	ld.ub	r8,r8[0x4]
80004776:	ee 08 18 00 	cp.b	r8,r7
8000477a:	e0 88 00 18 	brls	800047aa <udc_process_setup+0x1f6>
		return false;
	}

	// Select first alternate setting of the interface to update udc_ptr_iface
	// before call iface->getsetting()
	if (!udc_update_iface_desc(iface_num, 0)) {
8000477e:	30 0b       	mov	r11,0
80004780:	0e 9c       	mov	r12,r7
80004782:	f0 1f 00 c2 	mcall	80004a88 <udc_process_setup+0x4d4>
80004786:	c1 20       	breq	800047aa <udc_process_setup+0x1f6>
		return false;
	}
	// Get alternate setting from UDI
	udi_api = udc_ptr_conf->udi_apis[iface_num];
	udc_iface_setting = udi_api->getsetting();
80004788:	fe f8 02 fc 	ld.w	r8,pc[764]
8000478c:	70 08       	ld.w	r8,r8[0x0]
8000478e:	70 18       	ld.w	r8,r8[0x4]
80004790:	f0 07 03 28 	ld.w	r8,r8[r7<<0x2]
80004794:	70 3c       	ld.w	r12,r8[0xc]
80004796:	5d 1c       	icall	r12
80004798:	fe f8 02 f4 	ld.w	r8,pc[756]
8000479c:	b0 8c       	st.b	r8[0x0],r12

	// Link value to payload pointer of request
	udd_set_setup_payload(&udc_iface_setting,1);
8000479e:	30 1b       	mov	r11,1
800047a0:	10 9c       	mov	r12,r8
800047a2:	f0 1f 00 b2 	mcall	80004a68 <udc_process_setup+0x4b4>
800047a6:	30 1c       	mov	r12,1
800047a8:	cf e8       	rjmp	800049a4 <udc_process_setup+0x3f0>
800047aa:	30 0c       	mov	r12,0
800047ac:	cf c8       	rjmp	800049a4 <udc_process_setup+0x3f0>
			default:
				break;
			}
		}
#if (0!=USB_DEVICE_MAX_EP)
		if (USB_REQ_RECIP_ENDPOINT == Udd_setup_recipient()) {
800047ae:	58 28       	cp.w	r8,2
800047b0:	e0 81 00 fc 	brne	800049a8 <udc_process_setup+0x3f4>
			// Standard Get Endpoint request
			switch (udd_g_ctrlreq.req.bRequest) {
800047b4:	fe f8 02 ac 	ld.w	r8,pc[684]
800047b8:	11 9a       	ld.ub	r10,r8[0x1]
800047ba:	30 08       	mov	r8,0
800047bc:	f0 0a 18 00 	cp.b	r10,r8
800047c0:	e0 81 00 f1 	brne	800049a2 <udc_process_setup+0x3ee>
 */
static bool udc_req_std_ep_get_status(void)
{
	static le16_t udc_ep_status;

	if (udd_g_ctrlreq.req.wLength != sizeof(udc_ep_status)) {
800047c4:	30 28       	mov	r8,2
800047c6:	f0 09 19 00 	cp.h	r9,r8
800047ca:	c0 30       	breq	800047d0 <udc_process_setup+0x21c>
800047cc:	30 0c       	mov	r12,0
800047ce:	ce b8       	rjmp	800049a4 <udc_process_setup+0x3f0>
		return false;
	}

	udc_ep_status = udd_ep_is_halted(udd_g_ctrlreq.req.
800047d0:	fe f8 02 90 	ld.w	r8,pc[656]
800047d4:	11 dc       	ld.ub	r12,r8[0x5]
800047d6:	f0 1f 00 af 	mcall	80004a90 <udc_process_setup+0x4dc>
800047da:	e0 68 01 00 	mov	r8,256
800047de:	f9 b8 00 00 	moveq	r8,0
800047e2:	fe fc 02 b2 	ld.w	r12,pc[690]
800047e6:	b8 08       	st.h	r12[0x0],r8
			wIndex & 0xFF) ? CPU_TO_LE16(USB_EP_STATUS_HALTED) : 0;

	udd_set_setup_payload( (uint8_t *) & udc_ep_status,
800047e8:	30 2b       	mov	r11,2
800047ea:	f0 1f 00 a0 	mcall	80004a68 <udc_process_setup+0x4b4>
800047ee:	30 1c       	mov	r12,1
800047f0:	cd a8       	rjmp	800049a4 <udc_process_setup+0x3f0>
			}
		}
#endif
	} else {
		// SET Standard Requests
		if (USB_REQ_RECIP_DEVICE == Udd_setup_recipient()) {
800047f2:	f1 d8 c0 05 	bfextu	r8,r8,0x0,0x5
800047f6:	c7 d1       	brne	800048f0 <udc_process_setup+0x33c>
			// Standard Set Device request
			switch (udd_g_ctrlreq.req.bRequest) {
800047f8:	fe f9 02 68 	ld.w	r9,pc[616]
800047fc:	13 99       	ld.ub	r9,r9[0x1]
800047fe:	30 3a       	mov	r10,3
80004800:	f4 09 18 00 	cp.b	r9,r10
80004804:	e0 80 00 cf 	breq	800049a2 <udc_process_setup+0x3ee>
80004808:	e0 8b 00 07 	brhi	80004816 <udc_process_setup+0x262>
8000480c:	30 1a       	mov	r10,1
8000480e:	f4 09 18 00 	cp.b	r9,r10
80004812:	c6 f1       	brne	800048f0 <udc_process_setup+0x33c>
80004814:	c1 a8       	rjmp	80004848 <udc_process_setup+0x294>
80004816:	30 5a       	mov	r10,5
80004818:	f4 09 18 00 	cp.b	r9,r10
8000481c:	c0 60       	breq	80004828 <udc_process_setup+0x274>
8000481e:	30 9a       	mov	r10,9
80004820:	f4 09 18 00 	cp.b	r9,r10
80004824:	c6 61       	brne	800048f0 <udc_process_setup+0x33c>
80004826:	c2 88       	rjmp	80004876 <udc_process_setup+0x2c2>
 *
 * \return true if success
 */
static bool udc_req_std_dev_set_address(void)
{
	if (udd_g_ctrlreq.req.wLength) {
80004828:	fe f8 02 38 	ld.w	r8,pc[568]
8000482c:	90 39       	ld.sh	r9,r8[0x6]
8000482e:	30 08       	mov	r8,0
80004830:	f0 09 19 00 	cp.h	r9,r8
80004834:	c0 30       	breq	8000483a <udc_process_setup+0x286>
80004836:	30 0c       	mov	r12,0
80004838:	cb 68       	rjmp	800049a4 <udc_process_setup+0x3f0>
		return false;
	}

	// The address must be changed at the end of setup request after the handshake
	// then we use a callback to change address
	udd_g_ctrlreq.callback = udc_valid_address;
8000483a:	fe f9 02 5e 	ld.w	r9,pc[606]
8000483e:	fe f8 02 22 	ld.w	r8,pc[546]
80004842:	91 49       	st.w	r8[0x10],r9
80004844:	30 1c       	mov	r12,1
80004846:	ca f8       	rjmp	800049a4 <udc_process_setup+0x3f0>
 *
 * \return true if success
 */
static bool udc_req_std_dev_clear_feature(void)
{
	if (udd_g_ctrlreq.req.wLength) {
80004848:	fe f8 02 18 	ld.w	r8,pc[536]
8000484c:	90 39       	ld.sh	r9,r8[0x6]
8000484e:	30 08       	mov	r8,0
80004850:	f0 09 19 00 	cp.h	r9,r8
80004854:	c0 f1       	brne	80004872 <udc_process_setup+0x2be>
		return false;
	}

	if (udd_g_ctrlreq.req.wValue == USB_DEV_FEATURE_REMOTE_WAKEUP) {
80004856:	fe f8 02 0a 	ld.w	r8,pc[522]
8000485a:	90 19       	ld.sh	r9,r8[0x2]
8000485c:	30 18       	mov	r8,1
8000485e:	f0 09 19 00 	cp.h	r9,r8
80004862:	c0 81       	brne	80004872 <udc_process_setup+0x2be>
		udc_device_status &= CPU_TO_LE16(~(uint32_t)USB_DEV_STATUS_REMOTEWAKEUP);
80004864:	fe f8 02 00 	ld.w	r8,pc[512]
80004868:	90 09       	ld.sh	r9,r8[0x0]
8000486a:	a9 d9       	cbr	r9,0x9
8000486c:	b0 09       	st.h	r8[0x0],r9
8000486e:	30 1c       	mov	r12,1
80004870:	c9 a8       	rjmp	800049a4 <udc_process_setup+0x3f0>
80004872:	30 0c       	mov	r12,0
80004874:	c9 88       	rjmp	800049a4 <udc_process_setup+0x3f0>
static bool udc_req_std_dev_set_configuration(void)
{
	uint8_t iface_num;

	// Check request length
	if (udd_g_ctrlreq.req.wLength) {
80004876:	4f b8       	lddpc	r8,80004a60 <udc_process_setup+0x4ac>
80004878:	90 39       	ld.sh	r9,r8[0x6]
8000487a:	30 08       	mov	r8,0
8000487c:	f0 09 19 00 	cp.h	r9,r8
80004880:	c3 41       	brne	800048e8 <udc_process_setup+0x334>
		return false;
	}
	// Authorize configuration only if the address is valid
	if (!udd_getaddress()) {
80004882:	f0 1f 00 87 	mcall	80004a9c <udc_process_setup+0x4e8>
80004886:	c3 10       	breq	800048e8 <udc_process_setup+0x334>
		}
	} else
#endif
	{
		// FS descriptor
		if ((udd_g_ctrlreq.req.wValue & 0xFF) >
80004888:	4f 68       	lddpc	r8,80004a60 <udc_process_setup+0x4ac>
8000488a:	11 b9       	ld.ub	r9,r8[0x3]
8000488c:	4f 88       	lddpc	r8,80004a6c <udc_process_setup+0x4b8>
8000488e:	70 08       	ld.w	r8,r8[0x0]
80004890:	f1 38 00 11 	ld.ub	r8,r8[17]
80004894:	10 39       	cp.w	r9,r8
80004896:	e0 89 00 29 	brgt	800048e8 <udc_process_setup+0x334>
			return false;
		}
	}

	// Reset current configuration
	udc_reset();
8000489a:	f0 1f 00 82 	mcall	80004aa0 <udc_process_setup+0x4ec>

	// Enable new configuration
	udc_num_configuration = udd_g_ctrlreq.req.wValue & 0xFF;
8000489e:	4f 18       	lddpc	r8,80004a60 <udc_process_setup+0x4ac>
800048a0:	11 b8       	ld.ub	r8,r8[0x3]
800048a2:	4f 89       	lddpc	r9,80004a80 <udc_process_setup+0x4cc>
800048a4:	b2 88       	st.b	r9[0x0],r8
	if (udc_num_configuration == 0) {
800048a6:	58 08       	cp.w	r8,0
800048a8:	c2 20       	breq	800048ec <udc_process_setup+0x338>
		udc_ptr_conf = &udc_config.conf_hs[udc_num_configuration - 1];
	} else
#endif
	{
		// FS descriptor
		udc_ptr_conf = &udc_config.conf_lsfs[udc_num_configuration - 1];
800048aa:	20 18       	sub	r8,1
800048ac:	4f 09       	lddpc	r9,80004a6c <udc_process_setup+0x4b8>
800048ae:	72 19       	ld.w	r9,r9[0x4]
800048b0:	f2 08 00 38 	add	r8,r9,r8<<0x3
800048b4:	4f 49       	lddpc	r9,80004a84 <udc_process_setup+0x4d0>
800048b6:	93 08       	st.w	r9[0x0],r8
	}
	// Enable all interfaces of the selected configuration
	for (iface_num = 0; iface_num < udc_ptr_conf->desc->bNumInterfaces;
800048b8:	70 08       	ld.w	r8,r8[0x0]
800048ba:	11 c9       	ld.ub	r9,r8[0x4]
800048bc:	30 08       	mov	r8,0
800048be:	f0 09 18 00 	cp.b	r9,r8
800048c2:	c1 50       	breq	800048ec <udc_process_setup+0x338>
800048c4:	30 07       	mov	r7,0
			iface_num++) {
		if (!udc_iface_enable(iface_num, 0)) {
800048c6:	0e 95       	mov	r5,r7
	{
		// FS descriptor
		udc_ptr_conf = &udc_config.conf_lsfs[udc_num_configuration - 1];
	}
	// Enable all interfaces of the selected configuration
	for (iface_num = 0; iface_num < udc_ptr_conf->desc->bNumInterfaces;
800048c8:	4e f6       	lddpc	r6,80004a84 <udc_process_setup+0x4d0>
			iface_num++) {
		if (!udc_iface_enable(iface_num, 0)) {
800048ca:	0a 9b       	mov	r11,r5
800048cc:	0e 9c       	mov	r12,r7
800048ce:	f0 1f 00 76 	mcall	80004aa4 <udc_process_setup+0x4f0>
800048d2:	c0 b0       	breq	800048e8 <udc_process_setup+0x334>
		// FS descriptor
		udc_ptr_conf = &udc_config.conf_lsfs[udc_num_configuration - 1];
	}
	// Enable all interfaces of the selected configuration
	for (iface_num = 0; iface_num < udc_ptr_conf->desc->bNumInterfaces;
			iface_num++) {
800048d4:	2f f7       	sub	r7,-1
800048d6:	5c 57       	castu.b	r7
	{
		// FS descriptor
		udc_ptr_conf = &udc_config.conf_lsfs[udc_num_configuration - 1];
	}
	// Enable all interfaces of the selected configuration
	for (iface_num = 0; iface_num < udc_ptr_conf->desc->bNumInterfaces;
800048d8:	6c 08       	ld.w	r8,r6[0x0]
800048da:	70 08       	ld.w	r8,r8[0x0]
800048dc:	11 c8       	ld.ub	r8,r8[0x4]
800048de:	ee 08 18 00 	cp.b	r8,r7
800048e2:	fe 9b ff f4 	brhi	800048ca <udc_process_setup+0x316>
800048e6:	c0 38       	rjmp	800048ec <udc_process_setup+0x338>
800048e8:	30 0c       	mov	r12,0
800048ea:	c5 d8       	rjmp	800049a4 <udc_process_setup+0x3f0>
800048ec:	30 1c       	mov	r12,1
800048ee:	c5 b8       	rjmp	800049a4 <udc_process_setup+0x3f0>
			default:
				break;
			}
		}

		if (USB_REQ_RECIP_INTERFACE == Udd_setup_recipient()) {
800048f0:	58 18       	cp.w	r8,1
800048f2:	c2 21       	brne	80004936 <udc_process_setup+0x382>
			// Standard Set Interface request
			switch (udd_g_ctrlreq.req.bRequest) {
800048f4:	4d b9       	lddpc	r9,80004a60 <udc_process_setup+0x4ac>
800048f6:	13 9a       	ld.ub	r10,r9[0x1]
800048f8:	30 b9       	mov	r9,11
800048fa:	f2 0a 18 00 	cp.b	r10,r9
800048fe:	c1 c1       	brne	80004936 <udc_process_setup+0x382>
 */
static bool udc_req_std_iface_set_setting(void)
{
	uint8_t iface_num, setting_num;

	if (udd_g_ctrlreq.req.wLength) {
80004900:	4d 88       	lddpc	r8,80004a60 <udc_process_setup+0x4ac>
80004902:	90 39       	ld.sh	r9,r8[0x6]
80004904:	30 08       	mov	r8,0
80004906:	f0 09 19 00 	cp.h	r9,r8
8000490a:	c1 41       	brne	80004932 <udc_process_setup+0x37e>
		return false; // Error in request
	}
	if (!udc_num_configuration) {
8000490c:	4d d8       	lddpc	r8,80004a80 <udc_process_setup+0x4cc>
8000490e:	11 89       	ld.ub	r9,r8[0x0]
80004910:	30 08       	mov	r8,0
80004912:	f0 09 18 00 	cp.b	r9,r8
80004916:	c0 e0       	breq	80004932 <udc_process_setup+0x37e>
		return false; // The device is not is configured state yet
	}

	iface_num = udd_g_ctrlreq.req.wIndex & 0xFF;
	setting_num = udd_g_ctrlreq.req.wValue & 0xFF;
80004918:	4d 28       	lddpc	r8,80004a60 <udc_process_setup+0x4ac>
8000491a:	90 16       	ld.sh	r6,r8[0x2]

	// Disable current setting
	if (!udc_iface_disable(iface_num)) {
8000491c:	11 d7       	ld.ub	r7,r8[0x5]
8000491e:	0e 9c       	mov	r12,r7
80004920:	f0 1f 00 62 	mcall	80004aa8 <udc_process_setup+0x4f4>
80004924:	c0 70       	breq	80004932 <udc_process_setup+0x37e>
		return false;
	}

	// Enable new setting
	return udc_iface_enable(iface_num, setting_num);
80004926:	f7 d6 c0 08 	bfextu	r11,r6,0x0,0x8
8000492a:	0e 9c       	mov	r12,r7
8000492c:	f0 1f 00 5e 	mcall	80004aa4 <udc_process_setup+0x4f0>
80004930:	c3 a8       	rjmp	800049a4 <udc_process_setup+0x3f0>
80004932:	30 0c       	mov	r12,0
80004934:	c3 88       	rjmp	800049a4 <udc_process_setup+0x3f0>
			default:
				break;
			}
		}
#if (0!=USB_DEVICE_MAX_EP)
		if (USB_REQ_RECIP_ENDPOINT == Udd_setup_recipient()) {
80004936:	58 28       	cp.w	r8,2
80004938:	c3 81       	brne	800049a8 <udc_process_setup+0x3f4>
			// Standard Set Endpoint request
			switch (udd_g_ctrlreq.req.bRequest) {
8000493a:	4c a8       	lddpc	r8,80004a60 <udc_process_setup+0x4ac>
8000493c:	11 98       	ld.ub	r8,r8[0x1]
8000493e:	30 19       	mov	r9,1
80004940:	f2 08 18 00 	cp.b	r8,r9
80004944:	c0 60       	breq	80004950 <udc_process_setup+0x39c>
80004946:	30 39       	mov	r9,3
80004948:	f2 08 18 00 	cp.b	r8,r9
8000494c:	c2 b1       	brne	800049a2 <udc_process_setup+0x3ee>
8000494e:	c1 48       	rjmp	80004976 <udc_process_setup+0x3c2>
 *
 * \return true if success
 */
static bool udc_req_std_ep_clear_feature(void)
{
	if (udd_g_ctrlreq.req.wLength) {
80004950:	4c 48       	lddpc	r8,80004a60 <udc_process_setup+0x4ac>
80004952:	90 39       	ld.sh	r9,r8[0x6]
80004954:	30 08       	mov	r8,0
80004956:	f0 09 19 00 	cp.h	r9,r8
8000495a:	c0 c1       	brne	80004972 <udc_process_setup+0x3be>
		return false;
	}

	if (udd_g_ctrlreq.req.wValue == USB_EP_FEATURE_HALT) {
8000495c:	4c 18       	lddpc	r8,80004a60 <udc_process_setup+0x4ac>
8000495e:	90 19       	ld.sh	r9,r8[0x2]
80004960:	30 08       	mov	r8,0
80004962:	f0 09 19 00 	cp.h	r9,r8
80004966:	c0 61       	brne	80004972 <udc_process_setup+0x3be>
		return udd_ep_clear_halt(udd_g_ctrlreq.req.wIndex & 0xFF);
80004968:	4b e8       	lddpc	r8,80004a60 <udc_process_setup+0x4ac>
8000496a:	11 dc       	ld.ub	r12,r8[0x5]
8000496c:	f0 1f 00 50 	mcall	80004aac <udc_process_setup+0x4f8>
80004970:	c1 a8       	rjmp	800049a4 <udc_process_setup+0x3f0>
80004972:	30 0c       	mov	r12,0
80004974:	c1 88       	rjmp	800049a4 <udc_process_setup+0x3f0>
 * \return true if success
 */
#if (0!=USB_DEVICE_MAX_EP)
static bool udc_req_std_ep_set_feature(void)
{
	if (udd_g_ctrlreq.req.wLength) {
80004976:	4b b8       	lddpc	r8,80004a60 <udc_process_setup+0x4ac>
80004978:	90 39       	ld.sh	r9,r8[0x6]
8000497a:	30 08       	mov	r8,0
8000497c:	f0 09 19 00 	cp.h	r9,r8
80004980:	c0 f1       	brne	8000499e <udc_process_setup+0x3ea>
		return false;
	}
	if (udd_g_ctrlreq.req.wValue == USB_EP_FEATURE_HALT) {
80004982:	4b 88       	lddpc	r8,80004a60 <udc_process_setup+0x4ac>
80004984:	90 19       	ld.sh	r9,r8[0x2]
80004986:	30 08       	mov	r8,0
80004988:	f0 09 19 00 	cp.h	r9,r8
8000498c:	c0 91       	brne	8000499e <udc_process_setup+0x3ea>
		udd_ep_abort(udd_g_ctrlreq.req.wIndex & 0xFF);
8000498e:	4b 57       	lddpc	r7,80004a60 <udc_process_setup+0x4ac>
80004990:	0f dc       	ld.ub	r12,r7[0x5]
80004992:	f0 1f 00 48 	mcall	80004ab0 <udc_process_setup+0x4fc>
		return udd_ep_set_halt(udd_g_ctrlreq.req.wIndex & 0xFF);
80004996:	0f dc       	ld.ub	r12,r7[0x5]
80004998:	f0 1f 00 47 	mcall	80004ab4 <udc_process_setup+0x500>
8000499c:	c0 48       	rjmp	800049a4 <udc_process_setup+0x3f0>
8000499e:	30 0c       	mov	r12,0
800049a0:	c0 28       	rjmp	800049a4 <udc_process_setup+0x3f0>
800049a2:	30 0c       	mov	r12,0
		}
	}

	// If standard request then try to decode it in UDC
	if (Udd_setup_type() == USB_REQ_TYPE_STANDARD) {
		if (udc_reqstd()) {
800049a4:	58 0c       	cp.w	r12,0
800049a6:	c5 a1       	brne	80004a5a <udc_process_setup+0x4a6>
			return true;
		}
	}

	// If interface request then try to decode it in UDI
	if (Udd_setup_recipient() == USB_REQ_RECIP_INTERFACE) {
800049a8:	4a e8       	lddpc	r8,80004a60 <udc_process_setup+0x4ac>
800049aa:	11 88       	ld.ub	r8,r8[0x0]
800049ac:	f1 d8 c0 05 	bfextu	r8,r8,0x0,0x5
800049b0:	58 18       	cp.w	r8,1
800049b2:	c2 61       	brne	800049fe <udc_process_setup+0x44a>
static bool udc_req_iface(void)
{
	uint8_t iface_num;
	udi_api_t UDC_DESC_STORAGE *udi_api;

	if (0 == udc_num_configuration) {
800049b4:	4b 38       	lddpc	r8,80004a80 <udc_process_setup+0x4cc>
800049b6:	11 89       	ld.ub	r9,r8[0x0]
800049b8:	30 08       	mov	r8,0
800049ba:	f0 09 18 00 	cp.b	r9,r8
800049be:	c2 00       	breq	800049fe <udc_process_setup+0x44a>
		return false; // The device is not is configured state yet
	}
	// Check interface number
	iface_num = udd_g_ctrlreq.req.wIndex & 0xFF;
800049c0:	4a 88       	lddpc	r8,80004a60 <udc_process_setup+0x4ac>
800049c2:	11 d7       	ld.ub	r7,r8[0x5]
	if (iface_num >= udc_ptr_conf->desc->bNumInterfaces) {
800049c4:	4b 08       	lddpc	r8,80004a84 <udc_process_setup+0x4d0>
800049c6:	70 08       	ld.w	r8,r8[0x0]
800049c8:	70 08       	ld.w	r8,r8[0x0]
800049ca:	11 c8       	ld.ub	r8,r8[0x4]
800049cc:	ee 08 18 00 	cp.b	r8,r7
800049d0:	e0 88 00 17 	brls	800049fe <udc_process_setup+0x44a>
	}

	//* To update udc_ptr_iface with the selected interface in request
	// Select first alternate setting of interface to update udc_ptr_iface
	// before calling udi_api->getsetting()
	if (!udc_update_iface_desc(iface_num, 0)) {
800049d4:	0e 96       	mov	r6,r7
800049d6:	30 0b       	mov	r11,0
800049d8:	0e 9c       	mov	r12,r7
800049da:	f0 1f 00 2c 	mcall	80004a88 <udc_process_setup+0x4d4>
800049de:	c1 00       	breq	800049fe <udc_process_setup+0x44a>
		return false;
	}
	// Select the interface with the current alternate setting
	udi_api = udc_ptr_conf->udi_apis[iface_num];
800049e0:	4a 98       	lddpc	r8,80004a84 <udc_process_setup+0x4d0>
800049e2:	70 08       	ld.w	r8,r8[0x0]
800049e4:	70 18       	ld.w	r8,r8[0x4]
800049e6:	f0 07 03 27 	ld.w	r7,r8[r7<<0x2]
	if (!udc_update_iface_desc(iface_num, udi_api->getsetting())) {
800049ea:	6e 3c       	ld.w	r12,r7[0xc]
800049ec:	5d 1c       	icall	r12
800049ee:	18 9b       	mov	r11,r12
800049f0:	0c 9c       	mov	r12,r6
800049f2:	f0 1f 00 26 	mcall	80004a88 <udc_process_setup+0x4d4>
800049f6:	c0 40       	breq	800049fe <udc_process_setup+0x44a>
		return false;
	}

	// Send the SETUP request to the UDI corresponding to the interface number
	return udi_api->setup();
800049f8:	6e 2c       	ld.w	r12,r7[0x8]
800049fa:	5d 1c       	icall	r12
		}
	}

	// If interface request then try to decode it in UDI
	if (Udd_setup_recipient() == USB_REQ_RECIP_INTERFACE) {
		if (udc_req_iface()) {
800049fc:	c2 f1       	brne	80004a5a <udc_process_setup+0x4a6>
			return true;
		}
	}

	// If endpoint request then try to decode it in UDI
	if (Udd_setup_recipient() == USB_REQ_RECIP_ENDPOINT) {
800049fe:	49 98       	lddpc	r8,80004a60 <udc_process_setup+0x4ac>
80004a00:	11 88       	ld.ub	r8,r8[0x0]
80004a02:	f1 d8 c0 05 	bfextu	r8,r8,0x0,0x5
80004a06:	58 28       	cp.w	r8,2
80004a08:	c2 71       	brne	80004a56 <udc_process_setup+0x4a2>
static bool udc_req_ep(void)
{
	uint8_t iface_num;
	udi_api_t UDC_DESC_STORAGE *udi_api;

	if (0 == udc_num_configuration) {
80004a0a:	49 e8       	lddpc	r8,80004a80 <udc_process_setup+0x4cc>
80004a0c:	11 89       	ld.ub	r9,r8[0x0]
80004a0e:	30 08       	mov	r8,0
80004a10:	f0 09 18 00 	cp.b	r9,r8
80004a14:	c2 10       	breq	80004a56 <udc_process_setup+0x4a2>
		return false; // The device is not is configured state yet
	}
	// Send this request on all enabled interfaces
	iface_num = udd_g_ctrlreq.req.wIndex & 0xFF;
	for (iface_num = 0; iface_num < udc_ptr_conf->desc->bNumInterfaces;
80004a16:	49 c8       	lddpc	r8,80004a84 <udc_process_setup+0x4d0>
80004a18:	70 08       	ld.w	r8,r8[0x0]
80004a1a:	70 09       	ld.w	r9,r8[0x0]
80004a1c:	13 ca       	ld.ub	r10,r9[0x4]
80004a1e:	30 09       	mov	r9,0
80004a20:	f2 0a 18 00 	cp.b	r10,r9
80004a24:	c1 90       	breq	80004a56 <udc_process_setup+0x4a2>
80004a26:	30 07       	mov	r7,0
80004a28:	49 75       	lddpc	r5,80004a84 <udc_process_setup+0x4d0>
			iface_num++) {
		// Select the interface with the current alternate setting
		udi_api = udc_ptr_conf->udi_apis[iface_num];
80004a2a:	70 18       	ld.w	r8,r8[0x4]
80004a2c:	f0 07 03 26 	ld.w	r6,r8[r7<<0x2]
		if (!udc_update_iface_desc(iface_num, udi_api->getsetting())) {
80004a30:	6c 3c       	ld.w	r12,r6[0xc]
80004a32:	5d 1c       	icall	r12
80004a34:	18 9b       	mov	r11,r12
80004a36:	0e 9c       	mov	r12,r7
80004a38:	f0 1f 00 14 	mcall	80004a88 <udc_process_setup+0x4d4>
80004a3c:	c0 d0       	breq	80004a56 <udc_process_setup+0x4a2>
			return false;
		}

		// Send the SETUP request to the UDI
		if (udi_api->setup()) {
80004a3e:	6c 2c       	ld.w	r12,r6[0x8]
80004a40:	5d 1c       	icall	r12
80004a42:	c0 c1       	brne	80004a5a <udc_process_setup+0x4a6>
		return false; // The device is not is configured state yet
	}
	// Send this request on all enabled interfaces
	iface_num = udd_g_ctrlreq.req.wIndex & 0xFF;
	for (iface_num = 0; iface_num < udc_ptr_conf->desc->bNumInterfaces;
			iface_num++) {
80004a44:	2f f7       	sub	r7,-1
80004a46:	5c 57       	castu.b	r7
	if (0 == udc_num_configuration) {
		return false; // The device is not is configured state yet
	}
	// Send this request on all enabled interfaces
	iface_num = udd_g_ctrlreq.req.wIndex & 0xFF;
	for (iface_num = 0; iface_num < udc_ptr_conf->desc->bNumInterfaces;
80004a48:	6a 08       	ld.w	r8,r5[0x0]
80004a4a:	70 09       	ld.w	r9,r8[0x0]
80004a4c:	13 c9       	ld.ub	r9,r9[0x4]
80004a4e:	ee 09 18 00 	cp.b	r9,r7
80004a52:	fe 9b ff ec 	brhi	80004a2a <udc_process_setup+0x476>
80004a56:	e3 cf 80 e0 	ldm	sp++,r5-r7,pc,r12=0
80004a5a:	e3 cf 90 e0 	ldm	sp++,r5-r7,pc,r12=1
80004a5e:	00 00       	add	r0,r0
80004a60:	00 00       	add	r0,r0
80004a62:	0f 64       	ld.uh	r4,--r7
80004a64:	00 00       	add	r0,r0
80004a66:	0c 4c       	or	r12,r6
80004a68:	80 00       	ld.sh	r0,r0[0x0]
80004a6a:	2b c8       	sub	r8,-68
80004a6c:	00 00       	add	r0,r0
80004a6e:	00 3c       	cp.w	r12,r0
80004a70:	00 00       	add	r0,r0
80004a72:	00 a4       	st.w	r0++,r4
80004a74:	00 00       	add	r0,r0
80004a76:	00 e0       	st.h	--r0,r0
80004a78:	00 00       	add	r0,r0
80004a7a:	00 b4       	st.h	r0++,r4
80004a7c:	00 00       	add	r0,r0
80004a7e:	00 c0       	st.b	r0++,r0
80004a80:	00 00       	add	r0,r0
80004a82:	0c 4e       	or	lr,r6
80004a84:	00 00       	add	r0,r0
80004a86:	0c 44       	or	r4,r6
80004a88:	80 00       	ld.sh	r0,r0[0x0]
80004a8a:	43 a4       	lddsp	r4,sp[0xe8]
80004a8c:	00 00       	add	r0,r0
80004a8e:	0c 48       	or	r8,r6
80004a90:	80 00       	ld.sh	r0,r0[0x0]
80004a92:	2b d4       	sub	r4,-67
80004a94:	00 00       	add	r0,r0
80004a96:	0c 4a       	or	r10,r6
80004a98:	80 00       	ld.sh	r0,r0[0x0]
80004a9a:	44 78       	lddsp	r8,sp[0x11c]
80004a9c:	80 00       	ld.sh	r0,r0[0x0]
80004a9e:	2b a4       	sub	r4,-70
80004aa0:	80 00       	ld.sh	r0,r0[0x0]
80004aa2:	45 54       	lddsp	r4,sp[0x154]
80004aa4:	80 00       	ld.sh	r0,r0[0x0]
80004aa6:	44 90       	lddsp	r0,sp[0x124]
80004aa8:	80 00       	ld.sh	r0,r0[0x0]
80004aaa:	44 f0       	lddsp	r0,sp[0x13c]
80004aac:	80 00       	ld.sh	r0,r0[0x0]
80004aae:	2c 90       	sub	r0,-55
80004ab0:	80 00       	ld.sh	r0,r0[0x0]
80004ab2:	2d e4       	sub	r4,-34
80004ab4:	80 00       	ld.sh	r0,r0[0x0]
80004ab6:	2b e8       	sub	r8,-66

80004ab8 <udc_start>:
}

/*! \brief Start the USB Device stack
 */
void udc_start(void)
{
80004ab8:	d4 01       	pushm	lr
	udd_enable();
80004aba:	f0 1f 00 02 	mcall	80004ac0 <udc_start+0x8>
}
80004abe:	d8 02       	popm	pc
80004ac0:	80 00       	ld.sh	r0,r0[0x0]
80004ac2:	34 28       	mov	r8,66

80004ac4 <main_cdc_enable>:
	ui_process(udd_get_frame_number());
}

bool main_cdc_enable(uint8_t port)
{
	main_b_cdc_enable = true;
80004ac4:	30 19       	mov	r9,1
80004ac6:	48 28       	lddpc	r8,80004acc <main_cdc_enable+0x8>
80004ac8:	b0 89       	st.b	r8[0x0],r9
	return true;
}
80004aca:	5e ff       	retal	1
80004acc:	00 00       	add	r0,r0
80004ace:	0d 19       	ld.sh	r9,r6++

80004ad0 <main_cdc_disable>:

void main_cdc_disable(uint8_t port)
{
	main_b_cdc_enable = false;
80004ad0:	30 09       	mov	r9,0
80004ad2:	48 28       	lddpc	r8,80004ad8 <main_cdc_disable+0x8>
80004ad4:	b0 89       	st.b	r8[0x0],r9
}
80004ad6:	5e fc       	retal	r12
80004ad8:	00 00       	add	r0,r0
80004ada:	0d 19       	ld.sh	r9,r6++

80004adc <wifi_buffer_update_check>:
	}
}


void wifi_buffer_update_check(void)
{
80004adc:	eb cd 40 fe 	pushm	r1-r7,lr
	uint16_t i;
	
	if(wifi_opr_mode!=WIFI_UDP_START)
80004ae0:	4b f8       	lddpc	r8,80004bdc <wifi_buffer_update_check+0x100>
80004ae2:	11 89       	ld.ub	r9,r8[0x0]
80004ae4:	30 e8       	mov	r8,14
80004ae6:	f0 09 18 00 	cp.b	r9,r8
80004aea:	c0 c1       	brne	80004b02 <wifi_buffer_update_check+0x26>
80004aec:	3f fb       	mov	r11,-1
	else
	{
		//UDP Start
		for(i=0;i<WIFI_BUF_MAX-1;i++)
		{
			if((wifi_buffer[i]=='\e') && (wifi_buffer[i+1]=='u') && (nIPStartIndex==0))//Client Send Message start
80004aee:	4b d9       	lddpc	r9,80004be0 <wifi_buffer_update_check+0x104>
80004af0:	31 bc       	mov	r12,27
80004af2:	37 53       	mov	r3,117
80004af4:	4b c5       	lddpc	r5,80004be4 <wifi_buffer_update_check+0x108>
			{
				nIPStartIndex=i+3;
			}
					
			if((wifi_buffer[i]=='\x020') && (nPortIndex==0) && (nIPStartIndex!=0))//space 
80004af6:	32 07       	mov	r7,32
80004af8:	4b c4       	lddpc	r4,80004be8 <wifi_buffer_update_check+0x10c>
			{
				nPortIndex=i+1;//Port Index info.
				nIPEndIndex=i-1;
80004afa:	4b d2       	lddpc	r2,80004bec <wifi_buffer_update_check+0x110>
			}
							   
			if((wifi_buffer[i]=='\t') && (nMsgDataStartIndex==0) &&(nIPStartIndex!=0))//Tap
80004afc:	30 9e       	mov	lr,9
80004afe:	4b d6       	lddpc	r6,80004bf0 <wifi_buffer_update_check+0x114>
80004b00:	c1 b8       	rjmp	80004b36 <wifi_buffer_update_check+0x5a>

void wifi_buffer_update_check(void)
{
	uint16_t i;
	
	if(wifi_opr_mode!=WIFI_UDP_START)
80004b02:	30 08       	mov	r8,0
	{
		for(i=0;i<WIFI_BUF_MAX-1;i++)
		{
			if((wifi_buffer[i]=='\r') && (wifi_buffer[i+1]=='\n'))// Wifi module message
80004b04:	4b 7a       	lddpc	r10,80004be0 <wifi_buffer_update_check+0x104>
80004b06:	30 db       	mov	r11,13
80004b08:	30 ac       	mov	r12,10
			{
				wifi_msg_updated=true;
80004b0a:	4b b7       	lddpc	r7,80004bf4 <wifi_buffer_update_check+0x118>
80004b0c:	30 1e       	mov	lr,1
	
	if(wifi_opr_mode!=WIFI_UDP_START)
	{
		for(i=0;i<WIFI_BUF_MAX-1;i++)
		{
			if((wifi_buffer[i]=='\r') && (wifi_buffer[i+1]=='\n'))// Wifi module message
80004b0e:	f4 08 07 09 	ld.ub	r9,r10[r8]
80004b12:	f6 09 18 00 	cp.b	r9,r11
80004b16:	c0 91       	brne	80004b28 <wifi_buffer_update_check+0x4c>
80004b18:	f0 c9 ff ff 	sub	r9,r8,-1
80004b1c:	f4 09 07 09 	ld.ub	r9,r10[r9]
80004b20:	f8 09 18 00 	cp.b	r9,r12
80004b24:	c0 21       	brne	80004b28 <wifi_buffer_update_check+0x4c>
			{
				wifi_msg_updated=true;
80004b26:	ae 8e       	st.b	r7[0x0],lr
80004b28:	2f f8       	sub	r8,-1
{
	uint16_t i;
	
	if(wifi_opr_mode!=WIFI_UDP_START)
	{
		for(i=0;i<WIFI_BUF_MAX-1;i++)
80004b2a:	e0 48 00 7f 	cp.w	r8,127
80004b2e:	cf 01       	brne	80004b0e <wifi_buffer_update_check+0x32>
80004b30:	e3 cd 80 fe 	ldm	sp++,r1-r7,pc
80004b34:	10 9b       	mov	r11,r8
	{
	}
}


void wifi_buffer_update_check(void)
80004b36:	f6 c8 ff ff 	sub	r8,r11,-1
80004b3a:	10 9a       	mov	r10,r8
	else
	{
		//UDP Start
		for(i=0;i<WIFI_BUF_MAX-1;i++)
		{
			if((wifi_buffer[i]=='\e') && (wifi_buffer[i+1]=='u') && (nIPStartIndex==0))//Client Send Message start
80004b3c:	f2 08 07 01 	ld.ub	r1,r9[r8]
80004b40:	f8 01 18 00 	cp.b	r1,r12
80004b44:	c0 e1       	brne	80004b60 <wifi_buffer_update_check+0x84>
80004b46:	f6 c1 ff fe 	sub	r1,r11,-2
80004b4a:	f2 01 07 01 	ld.ub	r1,r9[r1]
80004b4e:	e6 01 18 00 	cp.b	r1,r3
80004b52:	c0 71       	brne	80004b60 <wifi_buffer_update_check+0x84>
80004b54:	6a 01       	ld.w	r1,r5[0x0]
80004b56:	58 01       	cp.w	r1,0
80004b58:	c0 41       	brne	80004b60 <wifi_buffer_update_check+0x84>
80004b5a:	f6 c1 ff fc 	sub	r1,r11,-4
			{
				nIPStartIndex=i+3;
80004b5e:	8b 01       	st.w	r5[0x0],r1
			}
					
			if((wifi_buffer[i]=='\x020') && (nPortIndex==0) && (nIPStartIndex!=0))//space 
80004b60:	f2 0a 07 01 	ld.ub	r1,r9[r10]
80004b64:	ee 01 18 00 	cp.b	r1,r7
80004b68:	c0 b1       	brne	80004b7e <wifi_buffer_update_check+0xa2>
80004b6a:	68 01       	ld.w	r1,r4[0x0]
80004b6c:	58 01       	cp.w	r1,0
80004b6e:	c0 81       	brne	80004b7e <wifi_buffer_update_check+0xa2>
80004b70:	6a 01       	ld.w	r1,r5[0x0]
80004b72:	58 01       	cp.w	r1,0
80004b74:	c0 50       	breq	80004b7e <wifi_buffer_update_check+0xa2>
80004b76:	f6 c1 ff fe 	sub	r1,r11,-2
			{
				nPortIndex=i+1;//Port Index info.
80004b7a:	89 01       	st.w	r4[0x0],r1
				nIPEndIndex=i-1;
80004b7c:	85 0b       	st.w	r2[0x0],r11
			}
							   
			if((wifi_buffer[i]=='\t') && (nMsgDataStartIndex==0) &&(nIPStartIndex!=0))//Tap
80004b7e:	f2 0a 07 01 	ld.ub	r1,r9[r10]
80004b82:	fc 01 18 00 	cp.b	r1,lr
80004b86:	c0 a1       	brne	80004b9a <wifi_buffer_update_check+0xbe>
80004b88:	6c 01       	ld.w	r1,r6[0x0]
80004b8a:	58 01       	cp.w	r1,0
80004b8c:	c0 71       	brne	80004b9a <wifi_buffer_update_check+0xbe>
80004b8e:	6a 01       	ld.w	r1,r5[0x0]
80004b90:	58 01       	cp.w	r1,0
80004b92:	c0 40       	breq	80004b9a <wifi_buffer_update_check+0xbe>
80004b94:	f6 c1 ff fe 	sub	r1,r11,-2
			{
				nMsgDataStartIndex=i+1;
80004b98:	8d 01       	st.w	r6[0x0],r1
			}
							   
			if((wifi_buffer[i]=='\e') && (wifi_buffer[i+1]=='E') && (nMsgDataStartIndex!=0) && (nMsgDataEndIndex==0) &&(nIPStartIndex!=0))//client Send Message End
80004b9a:	f2 0a 07 0a 	ld.ub	r10,r9[r10]
80004b9e:	f8 0a 18 00 	cp.b	r10,r12
80004ba2:	c1 81       	brne	80004bd2 <wifi_buffer_update_check+0xf6>
80004ba4:	f6 ca ff fe 	sub	r10,r11,-2
80004ba8:	f2 0a 07 01 	ld.ub	r1,r9[r10]
80004bac:	34 5a       	mov	r10,69
80004bae:	f4 01 18 00 	cp.b	r1,r10
80004bb2:	c1 01       	brne	80004bd2 <wifi_buffer_update_check+0xf6>
80004bb4:	6c 0a       	ld.w	r10,r6[0x0]
80004bb6:	58 0a       	cp.w	r10,0
80004bb8:	c0 d0       	breq	80004bd2 <wifi_buffer_update_check+0xf6>
80004bba:	49 0a       	lddpc	r10,80004bf8 <wifi_buffer_update_check+0x11c>
80004bbc:	74 0a       	ld.w	r10,r10[0x0]
80004bbe:	58 0a       	cp.w	r10,0
80004bc0:	c0 91       	brne	80004bd2 <wifi_buffer_update_check+0xf6>
80004bc2:	6a 0a       	ld.w	r10,r5[0x0]
80004bc4:	58 0a       	cp.w	r10,0
80004bc6:	c0 60       	breq	80004bd2 <wifi_buffer_update_check+0xf6>
			{
				nMsgDataEndIndex=i-1;		 		
80004bc8:	48 ca       	lddpc	r10,80004bf8 <wifi_buffer_update_check+0x11c>
80004bca:	95 0b       	st.w	r10[0x0],r11
				wifi_Client_msg_updated=true;
80004bcc:	30 1b       	mov	r11,1
80004bce:	48 ca       	lddpc	r10,80004bfc <wifi_buffer_update_check+0x120>
80004bd0:	b4 8b       	st.b	r10[0x0],r11
		}
	}
	else
	{
		//UDP Start
		for(i=0;i<WIFI_BUF_MAX-1;i++)
80004bd2:	e0 48 00 7e 	cp.w	r8,126
80004bd6:	ca f1       	brne	80004b34 <wifi_buffer_update_check+0x58>
80004bd8:	e3 cd 80 fe 	ldm	sp++,r1-r7,pc
80004bdc:	00 00       	add	r0,r0
80004bde:	0d 11       	ld.sh	r1,r6++
80004be0:	00 00       	add	r0,r0
80004be2:	0c 58       	eor	r8,r6
80004be4:	00 00       	add	r0,r0
80004be6:	0c d8       	st.w	--r6,r8
80004be8:	00 00       	add	r0,r0
80004bea:	0f 28       	ld.uh	r8,r7++
80004bec:	00 00       	add	r0,r0
80004bee:	0c e0       	st.h	--r6,r0
80004bf0:	00 00       	add	r0,r0
80004bf2:	0c e8       	st.h	--r6,r8
80004bf4:	00 00       	add	r0,r0
80004bf6:	0c e6       	st.h	--r6,r6
80004bf8:	00 00       	add	r0,r0
80004bfa:	0c ec       	st.h	--r6,r12
80004bfc:	00 00       	add	r0,r0
80004bfe:	0d 10       	ld.sh	r0,r6++

80004c00 <wifi_buffer_clear>:
	}	
}


void wifi_buffer_clear(void)
{
80004c00:	d4 01       	pushm	lr
	memset(wifi_buffer,0,sizeof(char)*WIFI_BUF_MAX);
80004c02:	e0 6a 00 80 	mov	r10,128
80004c06:	30 0b       	mov	r11,0
80004c08:	48 4c       	lddpc	r12,80004c18 <wifi_buffer_clear+0x18>
80004c0a:	f0 1f 00 05 	mcall	80004c1c <wifi_buffer_clear+0x1c>

	buffer_index=0;
80004c0e:	30 09       	mov	r9,0
80004c10:	48 48       	lddpc	r8,80004c20 <wifi_buffer_clear+0x20>
80004c12:	b0 09       	st.h	r8[0x0],r9
}
80004c14:	d8 02       	popm	pc
80004c16:	00 00       	add	r0,r0
80004c18:	00 00       	add	r0,r0
80004c1a:	0c 58       	eor	r8,r6
80004c1c:	80 00       	ld.sh	r0,r0[0x0]
80004c1e:	5a 64       	cp.w	r4,-26
80004c20:	00 00       	add	r0,r0
80004c22:	0c 54       	eor	r4,r6

80004c24 <wifi_module_status_check>:
		ui_com_close(port);
	}
}

void wifi_module_status_check(void)
{	
80004c24:	d4 01       	pushm	lr
	wifi_buffer_update_check();
80004c26:	f0 1f 00 91 	mcall	80004e68 <wifi_module_status_check+0x244>

	if(wifi_opr_mode==WIFI_NO_OPR) 
80004c2a:	fe f8 02 42 	ld.w	r8,pc[578]
80004c2e:	11 88       	ld.ub	r8,r8[0x0]
80004c30:	58 08       	cp.w	r8,0
80004c32:	c0 b1       	brne	80004c48 <wifi_module_status_check+0x24>
	{
		wifi_opr_mode = WIFI_CFG_START;
80004c34:	30 29       	mov	r9,2
80004c36:	fe f8 02 36 	ld.w	r8,pc[566]
80004c3a:	b0 89       	st.b	r8[0x0],r9
	    udi_cdc_putc(48);
80004c3c:	33 0c       	mov	r12,48
80004c3e:	f0 1f 00 8d 	mcall	80004e70 <wifi_module_status_check+0x24c>
		wifi_buffer_clear();
80004c42:	f0 1f 00 8d 	mcall	80004e74 <wifi_module_status_check+0x250>
80004c46:	d8 02       	popm	pc
	}
	else if(wifi_opr_mode==WIFI_CFG_START)
80004c48:	fe f8 02 24 	ld.w	r8,pc[548]
80004c4c:	11 89       	ld.ub	r9,r8[0x0]
80004c4e:	30 28       	mov	r8,2
80004c50:	f0 09 18 00 	cp.b	r9,r8
80004c54:	c0 c1       	brne	80004c6c <wifi_module_status_check+0x48>
	{
		usart_write_line(USART, "AT+WRXACTIVE=1\r\n");
80004c56:	fe fb 02 22 	ld.w	r11,pc[546]
80004c5a:	fe 7c 18 00 	mov	r12,-59392
80004c5e:	f0 1f 00 88 	mcall	80004e7c <wifi_module_status_check+0x258>
		wifi_opr_mode = WIFI_CFG_END;
80004c62:	30 39       	mov	r9,3
80004c64:	fe f8 02 08 	ld.w	r8,pc[520]
80004c68:	b0 89       	st.b	r8[0x0],r9
80004c6a:	d8 02       	popm	pc
	}
	else if(wifi_opr_mode==WIFI_CFG_END)
80004c6c:	fe f8 02 00 	ld.w	r8,pc[512]
80004c70:	11 89       	ld.ub	r9,r8[0x0]
80004c72:	30 38       	mov	r8,3
80004c74:	f0 09 18 00 	cp.b	r9,r8
80004c78:	c1 31       	brne	80004c9e <wifi_module_status_check+0x7a>
	{
		if(wifi_msg_updated)
80004c7a:	fe f8 02 06 	ld.w	r8,pc[518]
80004c7e:	11 88       	ld.ub	r8,r8[0x0]
80004c80:	58 08       	cp.w	r8,0
80004c82:	e0 80 00 f2 	breq	80004e66 <wifi_module_status_check+0x242>
		{
			wifi_msg_updated=false;
80004c86:	30 09       	mov	r9,0
80004c88:	4f e8       	lddpc	r8,80004e80 <wifi_module_status_check+0x25c>
80004c8a:	b0 89       	st.b	r8[0x0],r9
			wifi_opr_mode = WIFI_CFG_NEWTWORK_START;
80004c8c:	30 49       	mov	r9,4
80004c8e:	4f 88       	lddpc	r8,80004e6c <wifi_module_status_check+0x248>
80004c90:	b0 89       	st.b	r8[0x0],r9
			udi_cdc_putc(49);
80004c92:	33 1c       	mov	r12,49
80004c94:	f0 1f 00 77 	mcall	80004e70 <wifi_module_status_check+0x24c>
			wifi_buffer_clear();
80004c98:	f0 1f 00 77 	mcall	80004e74 <wifi_module_status_check+0x250>
80004c9c:	d8 02       	popm	pc
		}		
	}
	else if(wifi_opr_mode==WIFI_CFG_NEWTWORK_START)
80004c9e:	4f 48       	lddpc	r8,80004e6c <wifi_module_status_check+0x248>
80004ca0:	11 89       	ld.ub	r9,r8[0x0]
80004ca2:	30 48       	mov	r8,4
80004ca4:	f0 09 18 00 	cp.b	r9,r8
80004ca8:	c0 a1       	brne	80004cbc <wifi_module_status_check+0x98>
	{
		usart_write_line(USART, "AT+NSET=192.168.1.31,255.255.255.0,192.168.1.31\r\n");
80004caa:	4f 7b       	lddpc	r11,80004e84 <wifi_module_status_check+0x260>
80004cac:	fe 7c 18 00 	mov	r12,-59392
80004cb0:	f0 1f 00 73 	mcall	80004e7c <wifi_module_status_check+0x258>
		wifi_opr_mode = WIFI_CFG_NEWTWORK_END;
80004cb4:	30 59       	mov	r9,5
80004cb6:	4e e8       	lddpc	r8,80004e6c <wifi_module_status_check+0x248>
80004cb8:	b0 89       	st.b	r8[0x0],r9
80004cba:	d8 02       	popm	pc
	}
	else if(wifi_opr_mode==WIFI_CFG_NEWTWORK_END)
80004cbc:	4e c8       	lddpc	r8,80004e6c <wifi_module_status_check+0x248>
80004cbe:	11 89       	ld.ub	r9,r8[0x0]
80004cc0:	30 58       	mov	r8,5
80004cc2:	f0 09 18 00 	cp.b	r9,r8
80004cc6:	c1 21       	brne	80004cea <wifi_module_status_check+0xc6>
	{
		if(wifi_msg_updated)
80004cc8:	4e e8       	lddpc	r8,80004e80 <wifi_module_status_check+0x25c>
80004cca:	11 88       	ld.ub	r8,r8[0x0]
80004ccc:	58 08       	cp.w	r8,0
80004cce:	e0 80 00 cc 	breq	80004e66 <wifi_module_status_check+0x242>
		{		
			wifi_msg_updated=false;
80004cd2:	30 09       	mov	r9,0
80004cd4:	4e b8       	lddpc	r8,80004e80 <wifi_module_status_check+0x25c>
80004cd6:	b0 89       	st.b	r8[0x0],r9
			wifi_opr_mode = WIFI_CFG_WMODE_START;
80004cd8:	30 69       	mov	r9,6
80004cda:	4e 58       	lddpc	r8,80004e6c <wifi_module_status_check+0x248>
80004cdc:	b0 89       	st.b	r8[0x0],r9
			udi_cdc_putc(50);
80004cde:	33 2c       	mov	r12,50
80004ce0:	f0 1f 00 64 	mcall	80004e70 <wifi_module_status_check+0x24c>
			wifi_buffer_clear();
80004ce4:	f0 1f 00 64 	mcall	80004e74 <wifi_module_status_check+0x250>
80004ce8:	d8 02       	popm	pc
		}		
	}
	else if(wifi_opr_mode==WIFI_CFG_WMODE_START)
80004cea:	4e 18       	lddpc	r8,80004e6c <wifi_module_status_check+0x248>
80004cec:	11 89       	ld.ub	r9,r8[0x0]
80004cee:	30 68       	mov	r8,6
80004cf0:	f0 09 18 00 	cp.b	r9,r8
80004cf4:	c0 a1       	brne	80004d08 <wifi_module_status_check+0xe4>
	{
		usart_write_line(USART, "AT+WM=2\r\n");
80004cf6:	4e 5b       	lddpc	r11,80004e88 <wifi_module_status_check+0x264>
80004cf8:	fe 7c 18 00 	mov	r12,-59392
80004cfc:	f0 1f 00 60 	mcall	80004e7c <wifi_module_status_check+0x258>
		wifi_opr_mode = WIFI_CFG_WMODE_END;	
80004d00:	30 79       	mov	r9,7
80004d02:	4d b8       	lddpc	r8,80004e6c <wifi_module_status_check+0x248>
80004d04:	b0 89       	st.b	r8[0x0],r9
80004d06:	d8 02       	popm	pc
	}
	else if(wifi_opr_mode==WIFI_CFG_WMODE_END)
80004d08:	4d 98       	lddpc	r8,80004e6c <wifi_module_status_check+0x248>
80004d0a:	11 89       	ld.ub	r9,r8[0x0]
80004d0c:	30 78       	mov	r8,7
80004d0e:	f0 09 18 00 	cp.b	r9,r8
80004d12:	c1 21       	brne	80004d36 <wifi_module_status_check+0x112>
	{
		if(wifi_msg_updated)
80004d14:	4d b8       	lddpc	r8,80004e80 <wifi_module_status_check+0x25c>
80004d16:	11 88       	ld.ub	r8,r8[0x0]
80004d18:	58 08       	cp.w	r8,0
80004d1a:	e0 80 00 a6 	breq	80004e66 <wifi_module_status_check+0x242>
		{
			wifi_msg_updated=false;
80004d1e:	30 09       	mov	r9,0
80004d20:	4d 88       	lddpc	r8,80004e80 <wifi_module_status_check+0x25c>
80004d22:	b0 89       	st.b	r8[0x0],r9
			wifi_opr_mode = WIFI_CREATE_LIMITEDAP_START;
80004d24:	30 89       	mov	r9,8
80004d26:	4d 28       	lddpc	r8,80004e6c <wifi_module_status_check+0x248>
80004d28:	b0 89       	st.b	r8[0x0],r9
			udi_cdc_putc(51);
80004d2a:	33 3c       	mov	r12,51
80004d2c:	f0 1f 00 51 	mcall	80004e70 <wifi_module_status_check+0x24c>
			wifi_buffer_clear();
80004d30:	f0 1f 00 51 	mcall	80004e74 <wifi_module_status_check+0x250>
80004d34:	d8 02       	popm	pc
		}		
	}
	else if(wifi_opr_mode==WIFI_CREATE_LIMITEDAP_START)
80004d36:	4c e8       	lddpc	r8,80004e6c <wifi_module_status_check+0x248>
80004d38:	11 89       	ld.ub	r9,r8[0x0]
80004d3a:	30 88       	mov	r8,8
80004d3c:	f0 09 18 00 	cp.b	r9,r8
80004d40:	c0 a1       	brne	80004d54 <wifi_module_status_check+0x130>
	{
		usart_write_line(USART, "AT+WA=SE31_AP,,11\r\n");
80004d42:	4d 3b       	lddpc	r11,80004e8c <wifi_module_status_check+0x268>
80004d44:	fe 7c 18 00 	mov	r12,-59392
80004d48:	f0 1f 00 4d 	mcall	80004e7c <wifi_module_status_check+0x258>
		wifi_opr_mode = WIFI_CREATE_LIMITEDAP_END;		
80004d4c:	30 99       	mov	r9,9
80004d4e:	4c 88       	lddpc	r8,80004e6c <wifi_module_status_check+0x248>
80004d50:	b0 89       	st.b	r8[0x0],r9
80004d52:	d8 02       	popm	pc
	}
	else if(wifi_opr_mode==WIFI_CREATE_LIMITEDAP_END)
80004d54:	4c 68       	lddpc	r8,80004e6c <wifi_module_status_check+0x248>
80004d56:	11 89       	ld.ub	r9,r8[0x0]
80004d58:	30 98       	mov	r8,9
80004d5a:	f0 09 18 00 	cp.b	r9,r8
80004d5e:	c1 21       	brne	80004d82 <wifi_module_status_check+0x15e>
	{
		if(wifi_msg_updated)
80004d60:	4c 88       	lddpc	r8,80004e80 <wifi_module_status_check+0x25c>
80004d62:	11 88       	ld.ub	r8,r8[0x0]
80004d64:	58 08       	cp.w	r8,0
80004d66:	e0 80 00 80 	breq	80004e66 <wifi_module_status_check+0x242>
		{
			wifi_msg_updated=false;
80004d6a:	30 09       	mov	r9,0
80004d6c:	4c 58       	lddpc	r8,80004e80 <wifi_module_status_check+0x25c>
80004d6e:	b0 89       	st.b	r8[0x0],r9
			wifi_opr_mode = WIFI_ENABLE_DHCP_SER_START;
80004d70:	30 a9       	mov	r9,10
80004d72:	4b f8       	lddpc	r8,80004e6c <wifi_module_status_check+0x248>
80004d74:	b0 89       	st.b	r8[0x0],r9
			udi_cdc_putc(52);
80004d76:	33 4c       	mov	r12,52
80004d78:	f0 1f 00 3e 	mcall	80004e70 <wifi_module_status_check+0x24c>
			wifi_buffer_clear();
80004d7c:	f0 1f 00 3e 	mcall	80004e74 <wifi_module_status_check+0x250>
80004d80:	d8 02       	popm	pc
		}		
	}
	else if(wifi_opr_mode==WIFI_ENABLE_DHCP_SER_START)
80004d82:	4b b8       	lddpc	r8,80004e6c <wifi_module_status_check+0x248>
80004d84:	11 89       	ld.ub	r9,r8[0x0]
80004d86:	30 a8       	mov	r8,10
80004d88:	f0 09 18 00 	cp.b	r9,r8
80004d8c:	c0 a1       	brne	80004da0 <wifi_module_status_check+0x17c>
	{
		usart_write_line(USART, "AT+DHCPSRVR=1\r\n");
80004d8e:	4c 1b       	lddpc	r11,80004e90 <wifi_module_status_check+0x26c>
80004d90:	fe 7c 18 00 	mov	r12,-59392
80004d94:	f0 1f 00 3a 	mcall	80004e7c <wifi_module_status_check+0x258>
		wifi_opr_mode = WIFI_ENABLE_DHCP_SER_END;		
80004d98:	30 b9       	mov	r9,11
80004d9a:	4b 58       	lddpc	r8,80004e6c <wifi_module_status_check+0x248>
80004d9c:	b0 89       	st.b	r8[0x0],r9
80004d9e:	d8 02       	popm	pc
	}
	else if(wifi_opr_mode==WIFI_ENABLE_DHCP_SER_END)
80004da0:	4b 38       	lddpc	r8,80004e6c <wifi_module_status_check+0x248>
80004da2:	11 89       	ld.ub	r9,r8[0x0]
80004da4:	30 b8       	mov	r8,11
80004da6:	f0 09 18 00 	cp.b	r9,r8
80004daa:	c1 11       	brne	80004dcc <wifi_module_status_check+0x1a8>
	{
		if(wifi_msg_updated)
80004dac:	4b 58       	lddpc	r8,80004e80 <wifi_module_status_check+0x25c>
80004dae:	11 88       	ld.ub	r8,r8[0x0]
80004db0:	58 08       	cp.w	r8,0
80004db2:	c5 a0       	breq	80004e66 <wifi_module_status_check+0x242>
		{
			wifi_msg_updated=false;
80004db4:	30 09       	mov	r9,0
80004db6:	4b 38       	lddpc	r8,80004e80 <wifi_module_status_check+0x25c>
80004db8:	b0 89       	st.b	r8[0x0],r9
			wifi_opr_mode = WIFI_UDP_LP_SET_START;
80004dba:	30 c9       	mov	r9,12
80004dbc:	4a c8       	lddpc	r8,80004e6c <wifi_module_status_check+0x248>
80004dbe:	b0 89       	st.b	r8[0x0],r9
			udi_cdc_putc(53);
80004dc0:	33 5c       	mov	r12,53
80004dc2:	f0 1f 00 2c 	mcall	80004e70 <wifi_module_status_check+0x24c>
			wifi_buffer_clear();
80004dc6:	f0 1f 00 2c 	mcall	80004e74 <wifi_module_status_check+0x250>
80004dca:	d8 02       	popm	pc
		}		
	}
	else if(wifi_opr_mode==WIFI_UDP_LP_SET_START)
80004dcc:	4a 88       	lddpc	r8,80004e6c <wifi_module_status_check+0x248>
80004dce:	11 89       	ld.ub	r9,r8[0x0]
80004dd0:	30 c8       	mov	r8,12
80004dd2:	f0 09 18 00 	cp.b	r9,r8
80004dd6:	c2 b1       	brne	80004e2c <wifi_module_status_check+0x208>
	{
		usart_write_line(USART, "AT+NSUDP=48601\r\n");
80004dd8:	4a fb       	lddpc	r11,80004e94 <wifi_module_status_check+0x270>
80004dda:	fe 7c 18 00 	mov	r12,-59392
80004dde:	f0 1f 00 28 	mcall	80004e7c <wifi_module_status_check+0x258>
		wifi_opr_mode = WIFI_UDP_LP_SET_END;
80004de2:	30 d9       	mov	r9,13
80004de4:	4a 28       	lddpc	r8,80004e6c <wifi_module_status_check+0x248>
80004de6:	b0 89       	st.b	r8[0x0],r9
		udi_cdc_putc(54);
80004de8:	33 6c       	mov	r12,54
80004dea:	f0 1f 00 22 	mcall	80004e70 <wifi_module_status_check+0x24c>
 *
 * \return the converted number of CPU cycles.
 */
__always_inline static uint32_t cpu_ms_2_cy(unsigned long ms, unsigned long fcpu_hz)
{
  return ((unsigned long long)ms * fcpu_hz + 999) / 1000;
80004dee:	e0 68 03 e8 	mov	r8,1000
80004df2:	30 09       	mov	r9,0
80004df4:	e0 6a e3 e7 	mov	r10,58343
80004df8:	ea 1a 2d 05 	orh	r10,0x2d05
80004dfc:	30 bb       	mov	r11,11
80004dfe:	f0 1f 00 27 	mcall	80004e98 <wifi_module_status_check+0x274>
 * \param  delay:   (input) delay in CPU cycles before timeout.
 * \param  cpu_time: (output) internal information used by the timer API.
 */
__always_inline static void cpu_set_timeout(unsigned long delay, t_cpu_time *cpu_time)
{
  cpu_time->delay_start_cycle = Get_system_register(AVR32_COUNT);
80004e02:	e1 b8 00 42 	mfsr	r8,0x108
  cpu_time->delay_end_cycle   = cpu_time->delay_start_cycle + delay;
80004e06:	f0 0a 00 0a 	add	r10,r8,r10
 *
 * \return true if timeout occurred, otherwise false.
 */
__always_inline static unsigned long cpu_is_timeout(t_cpu_time *cpu_time)
{
  unsigned long current_cycle_count = Get_system_register(AVR32_COUNT);
80004e0a:	e1 b9 00 42 	mfsr	r9,0x108
  // Test if the timeout as already occurred.
  else if (cpu_time->timer_state == CPU_TIMER_STATE_REACHED)
    return true;

  // If the ending cycle count of this timeout is wrapped, ...
  else if (cpu_time->delay_start_cycle > cpu_time->delay_end_cycle)
80004e0e:	14 38       	cp.w	r8,r10
80004e10:	e0 88 00 08 	brls	80004e20 <wifi_module_status_check+0x1fc>
  {
    if (current_cycle_count < cpu_time->delay_start_cycle && current_cycle_count > cpu_time->delay_end_cycle)
80004e14:	12 38       	cp.w	r8,r9
80004e16:	fe 98 ff fa 	brls	80004e0a <wifi_module_status_check+0x1e6>
80004e1a:	12 3a       	cp.w	r10,r9
80004e1c:	c2 03       	brcs	80004e5c <wifi_module_status_check+0x238>
80004e1e:	cf 6b       	rjmp	80004e0a <wifi_module_status_check+0x1e6>
    }
    return false;
  }
  else
  {
    if (current_cycle_count < cpu_time->delay_start_cycle || current_cycle_count > cpu_time->delay_end_cycle)
80004e20:	12 38       	cp.w	r8,r9
80004e22:	e0 8b 00 1d 	brhi	80004e5c <wifi_module_status_check+0x238>
80004e26:	12 3a       	cp.w	r10,r9
80004e28:	c1 a3       	brcs	80004e5c <wifi_module_status_check+0x238>
80004e2a:	cf 0b       	rjmp	80004e0a <wifi_module_status_check+0x1e6>
		delay_ms(1000);
		usart_write_line(USART, "ATE0\r\n"); //by Bulk data
	}	
	else if(wifi_opr_mode==WIFI_UDP_LP_SET_END)
80004e2c:	49 08       	lddpc	r8,80004e6c <wifi_module_status_check+0x248>
80004e2e:	11 89       	ld.ub	r9,r8[0x0]
80004e30:	30 d8       	mov	r8,13
80004e32:	f0 09 18 00 	cp.b	r9,r8
80004e36:	c1 81       	brne	80004e66 <wifi_module_status_check+0x242>
	{
		if(wifi_msg_updated)
80004e38:	49 28       	lddpc	r8,80004e80 <wifi_module_status_check+0x25c>
80004e3a:	11 88       	ld.ub	r8,r8[0x0]
80004e3c:	58 08       	cp.w	r8,0
80004e3e:	c1 40       	breq	80004e66 <wifi_module_status_check+0x242>
		{
			wifi_msg_updated=false;
80004e40:	30 08       	mov	r8,0
80004e42:	49 09       	lddpc	r9,80004e80 <wifi_module_status_check+0x25c>
80004e44:	b2 88       	st.b	r9[0x0],r8
			wifi_Client_msg_updated=false;
80004e46:	49 69       	lddpc	r9,80004e9c <wifi_module_status_check+0x278>
80004e48:	b2 88       	st.b	r9[0x0],r8
			wifi_opr_mode = WIFI_UDP_START;
80004e4a:	30 e9       	mov	r9,14
80004e4c:	48 88       	lddpc	r8,80004e6c <wifi_module_status_check+0x248>
80004e4e:	b0 89       	st.b	r8[0x0],r9
			udi_cdc_putc(55);
80004e50:	33 7c       	mov	r12,55
80004e52:	f0 1f 00 08 	mcall	80004e70 <wifi_module_status_check+0x24c>
			wifi_buffer_clear();
80004e56:	f0 1f 00 08 	mcall	80004e74 <wifi_module_status_check+0x250>
80004e5a:	d8 02       	popm	pc
	{
		usart_write_line(USART, "AT+NSUDP=48601\r\n");
		wifi_opr_mode = WIFI_UDP_LP_SET_END;
		udi_cdc_putc(54);
		delay_ms(1000);
		usart_write_line(USART, "ATE0\r\n"); //by Bulk data
80004e5c:	49 1b       	lddpc	r11,80004ea0 <wifi_module_status_check+0x27c>
80004e5e:	fe 7c 18 00 	mov	r12,-59392
80004e62:	f0 1f 00 07 	mcall	80004e7c <wifi_module_status_check+0x258>
80004e66:	d8 02       	popm	pc
80004e68:	80 00       	ld.sh	r0,r0[0x0]
80004e6a:	4a dc       	lddpc	r12,80004f1c <tc_irq+0x20>
80004e6c:	00 00       	add	r0,r0
80004e6e:	0d 11       	ld.sh	r1,r6++
80004e70:	80 00       	ld.sh	r0,r0[0x0]
80004e72:	3e 48       	mov	r8,-28
80004e74:	80 00       	ld.sh	r0,r0[0x0]
80004e76:	4c 00       	lddpc	r0,80004f74 <tc_irq+0x78>
80004e78:	80 00       	ld.sh	r0,r0[0x0]
80004e7a:	b4 f8       	st.b	r10[0x7],r8
80004e7c:	80 00       	ld.sh	r0,r0[0x0]
80004e7e:	2a 30       	sub	r0,-93
80004e80:	00 00       	add	r0,r0
80004e82:	0c e6       	st.h	--r6,r6
80004e84:	80 00       	ld.sh	r0,r0[0x0]
80004e86:	b5 0c       	ld.d	r12,r10
80004e88:	80 00       	ld.sh	r0,r0[0x0]
80004e8a:	b5 40       	asr	r0,0x14
80004e8c:	80 00       	ld.sh	r0,r0[0x0]
80004e8e:	b5 4c       	asr	r12,0x14
80004e90:	80 00       	ld.sh	r0,r0[0x0]
80004e92:	b5 60       	lsl	r0,0x14
80004e94:	80 00       	ld.sh	r0,r0[0x0]
80004e96:	b5 70       	lsl	r0,0x15
80004e98:	80 00       	ld.sh	r0,r0[0x0]
80004e9a:	56 88       	stdsp	sp[0x1a0],r8
80004e9c:	00 00       	add	r0,r0
80004e9e:	0d 10       	ld.sh	r0,r6++
80004ea0:	80 00       	ld.sh	r0,r0[0x0]
80004ea2:	b5 84       	lsr	r4,0x14

80004ea4 <main_cdc_set_dtr>:
{
	main_b_cdc_enable = false;
}

void main_cdc_set_dtr(uint8_t port, bool b_enable)
{
80004ea4:	d4 01       	pushm	lr
	if (b_enable) {
80004ea6:	58 0b       	cp.w	r11,0
80004ea8:	c0 40       	breq	80004eb0 <main_cdc_set_dtr+0xc>
		// Host terminal has open COM
		ui_com_open(port);
80004eaa:	f0 1f 00 04 	mcall	80004eb8 <main_cdc_set_dtr+0x14>
80004eae:	d8 02       	popm	pc
	}else{
		// Host terminal has close COMF
		ui_com_close(port);
80004eb0:	f0 1f 00 03 	mcall	80004ebc <main_cdc_set_dtr+0x18>
80004eb4:	d8 02       	popm	pc
80004eb6:	00 00       	add	r0,r0
80004eb8:	80 00       	ld.sh	r0,r0[0x0]
80004eba:	24 e8       	sub	r8,78
80004ebc:	80 00       	ld.sh	r0,r0[0x0]
80004ebe:	25 4c       	sub	r12,84

80004ec0 <main_sof_action>:
{
	ui_wakeup();
}

void main_sof_action(void)
{
80004ec0:	d4 01       	pushm	lr
	if (!main_b_cdc_enable)
80004ec2:	48 68       	lddpc	r8,80004ed8 <main_sof_action+0x18>
80004ec4:	11 88       	ld.ub	r8,r8[0x0]
80004ec6:	58 08       	cp.w	r8,0
80004ec8:	c0 60       	breq	80004ed4 <main_sof_action+0x14>
		return;
	ui_process(udd_get_frame_number());
80004eca:	f0 1f 00 05 	mcall	80004edc <main_sof_action+0x1c>
80004ece:	5c 7c       	castu.h	r12
80004ed0:	f0 1f 00 04 	mcall	80004ee0 <main_sof_action+0x20>
80004ed4:	d8 02       	popm	pc
80004ed6:	00 00       	add	r0,r0
80004ed8:	00 00       	add	r0,r0
80004eda:	0d 19       	ld.sh	r9,r6++
80004edc:	80 00       	ld.sh	r0,r0[0x0]
80004ede:	2b b0       	sub	r0,-69
80004ee0:	80 00       	ld.sh	r0,r0[0x0]
80004ee2:	25 08       	sub	r8,80

80004ee4 <main_resume_action>:
{
	ui_powerdown();
}

void main_resume_action(void)
{
80004ee4:	d4 01       	pushm	lr
	ui_wakeup();
80004ee6:	f0 1f 00 02 	mcall	80004eec <main_resume_action+0x8>
}
80004eea:	d8 02       	popm	pc
80004eec:	80 00       	ld.sh	r0,r0[0x0]
80004eee:	24 f8       	sub	r8,79

80004ef0 <main_suspend_action>:
		}
	}
}

void main_suspend_action(void)
{
80004ef0:	d4 01       	pushm	lr
	ui_powerdown();
80004ef2:	f0 1f 00 02 	mcall	80004ef8 <main_suspend_action+0x8>
}
80004ef6:	d8 02       	popm	pc
80004ef8:	80 00       	ld.sh	r0,r0[0x0]
80004efa:	25 5c       	sub	r12,85

80004efc <tc_irq>:
#elif defined (__ICCAVR32__)
#pragma handler = EXAMPLE_TC_IRQ_GROUP, 1
__interrupt
#endif
static void tc_irq(void)
{
80004efc:	d4 01       	pushm	lr
	// specify that an interrupt has been raised
	if(tc_tick>=TC_TICK_20MS)
80004efe:	49 98       	lddpc	r8,80004f60 <tc_irq+0x64>
80004f00:	70 08       	ld.w	r8,r8[0x0]
80004f02:	59 38       	cp.w	r8,19
80004f04:	e0 88 00 06 	brls	80004f10 <tc_irq+0x14>
	{
		update_timer = true;
80004f08:	30 19       	mov	r9,1
80004f0a:	49 78       	lddpc	r8,80004f64 <tc_irq+0x68>
80004f0c:	b0 89       	st.b	r8[0x0],r9
80004f0e:	c0 58       	rjmp	80004f18 <tc_irq+0x1c>
	}
	else
	{
		// Increment the ms seconds counter
		tc_tick++;		
80004f10:	49 48       	lddpc	r8,80004f60 <tc_irq+0x64>
80004f12:	70 09       	ld.w	r9,r8[0x0]
80004f14:	2f f9       	sub	r9,-1
80004f16:	91 09       	st.w	r8[0x0],r9
	}
	
	if(tc_tick_1>=TC_TICK_80MS)
80004f18:	49 48       	lddpc	r8,80004f68 <tc_irq+0x6c>
80004f1a:	70 08       	ld.w	r8,r8[0x0]
80004f1c:	e0 48 00 4f 	cp.w	r8,79
80004f20:	e0 88 00 06 	brls	80004f2c <tc_irq+0x30>
	{
		update_timer_1 = true;
80004f24:	30 19       	mov	r9,1
80004f26:	49 28       	lddpc	r8,80004f6c <tc_irq+0x70>
80004f28:	b0 89       	st.b	r8[0x0],r9
80004f2a:	c0 58       	rjmp	80004f34 <tc_irq+0x38>
	}
	else
	{
		// Increment the ms seconds counter
		tc_tick_1++;
80004f2c:	48 f8       	lddpc	r8,80004f68 <tc_irq+0x6c>
80004f2e:	70 09       	ld.w	r9,r8[0x0]
80004f30:	2f f9       	sub	r9,-1
80004f32:	91 09       	st.w	r8[0x0],r9
	}


	if(tc_tick_2>=TC_TICK_1S)
80004f34:	48 f8       	lddpc	r8,80004f70 <tc_irq+0x74>
80004f36:	70 08       	ld.w	r8,r8[0x0]
80004f38:	e0 48 03 e7 	cp.w	r8,999
80004f3c:	e0 88 00 06 	brls	80004f48 <tc_irq+0x4c>
	{
		update_timer_2 = true;
80004f40:	30 19       	mov	r9,1
80004f42:	48 d8       	lddpc	r8,80004f74 <tc_irq+0x78>
80004f44:	b0 89       	st.b	r8[0x0],r9
80004f46:	c0 58       	rjmp	80004f50 <tc_irq+0x54>
	}
	else
	{
		// Increment the ms seconds counter
		tc_tick_2++;
80004f48:	48 a8       	lddpc	r8,80004f70 <tc_irq+0x74>
80004f4a:	70 09       	ld.w	r9,r8[0x0]
80004f4c:	2f f9       	sub	r9,-1
80004f4e:	91 09       	st.w	r8[0x0],r9
	}
		
	// Clear the interrupt flag. This is a side effect of reading the TC SR.
	tc_read_sr(EXAMPLE_TC, EXAMPLE_TC_CHANNEL);
80004f50:	30 0b       	mov	r11,0
80004f52:	fe 7c 38 00 	mov	r12,-51200
80004f56:	f0 1f 00 09 	mcall	80004f78 <tc_irq+0x7c>
}
80004f5a:	d4 02       	popm	lr
80004f5c:	d6 03       	rete
80004f5e:	00 00       	add	r0,r0
80004f60:	00 00       	add	r0,r0
80004f62:	0d 14       	ld.sh	r4,r6++
80004f64:	00 00       	add	r0,r0
80004f66:	00 e4       	st.h	--r0,r4
80004f68:	00 00       	add	r0,r0
80004f6a:	0f 1c       	ld.sh	r12,r7++
80004f6c:	00 00       	add	r0,r0
80004f6e:	00 e5       	st.h	--r0,r5
80004f70:	00 00       	add	r0,r0
80004f72:	0f 20       	ld.uh	r0,r7++
80004f74:	00 00       	add	r0,r0
80004f76:	00 e6       	st.h	--r0,r6
80004f78:	80 00       	ld.sh	r0,r0[0x0]
80004f7a:	20 b6       	sub	r6,11

80004f7c <usart_interrupt>:


ISR(usart_interrupt, USART_IRQ_GROUP, 3)
{
80004f7c:	d4 01       	pushm	lr
80004f7e:	20 1d       	sub	sp,4
	int value;
	
	usart_read_char(USART, &value);
80004f80:	1a 9b       	mov	r11,sp
80004f82:	fe 7c 18 00 	mov	r12,-59392
80004f86:	f0 1f 00 0d 	mcall	80004fb8 <usart_interrupt+0x3c>
	
	if(buffer_index<WIFI_BUF_MAX-1)
80004f8a:	48 d8       	lddpc	r8,80004fbc <usart_interrupt+0x40>
80004f8c:	90 09       	ld.sh	r9,r8[0x0]
80004f8e:	37 e8       	mov	r8,126
80004f90:	f0 09 19 00 	cp.h	r9,r8
80004f94:	e0 8b 00 0d 	brhi	80004fae <usart_interrupt+0x32>
	{
		wifi_buffer[buffer_index]=value;
80004f98:	48 98       	lddpc	r8,80004fbc <usart_interrupt+0x40>
80004f9a:	90 09       	ld.sh	r9,r8[0x0]
80004f9c:	5c 79       	castu.h	r9
80004f9e:	1b bb       	ld.ub	r11,sp[0x3]
80004fa0:	48 8a       	lddpc	r10,80004fc0 <usart_interrupt+0x44>
80004fa2:	f4 09 0b 0b 	st.b	r10[r9],r11
		buffer_index++;
80004fa6:	90 09       	ld.sh	r9,r8[0x0]
80004fa8:	2f f9       	sub	r9,-1
80004faa:	b0 09       	st.h	r8[0x0],r9
80004fac:	c0 38       	rjmp	80004fb2 <usart_interrupt+0x36>
	}
	else
	{
		wifi_buffer_clear();		
80004fae:	f0 1f 00 06 	mcall	80004fc4 <usart_interrupt+0x48>
	}

	//udi_cdc_putc(value);
}
80004fb2:	2f fd       	sub	sp,-4
80004fb4:	d4 02       	popm	lr
80004fb6:	d6 03       	rete
80004fb8:	80 00       	ld.sh	r0,r0[0x0]
80004fba:	2a 0c       	sub	r12,-96
80004fbc:	00 00       	add	r0,r0
80004fbe:	0c 54       	eor	r4,r6
80004fc0:	00 00       	add	r0,r0
80004fc2:	0c 58       	eor	r8,r6
80004fc4:	80 00       	ld.sh	r0,r0[0x0]
80004fc6:	4c 00       	lddpc	r0,800050c4 <itg3200_init+0x18>

80004fc8 <tc_init>:
 * - fPBA/8 is used as clock source for TC
 * - Enables RC compare match interrupt
 * \param tc Base address of the TC module
 */
void tc_init(volatile avr32_tc_t *tc)
{
80004fc8:	eb cd 40 80 	pushm	r7,lr
80004fcc:	18 97       	mov	r7,r12
		.cpas  = 0,
		.lovrs = 0,
		.covfs = 0
	};
	// Initialize the timer/counter.
	tc_init_waveform(tc, &waveform_opt);
80004fce:	48 bb       	lddpc	r11,80004ff8 <tc_init+0x30>
80004fd0:	f0 1f 00 0b 	mcall	80004ffc <tc_init+0x34>
	 * Set the compare triggers.
	 * We configure it to count every 1 milliseconds.
	 * We want: (1 / (fPBA / 8)) * RC = 1 ms, hence RC = (fPBA / 8) / 1000
	 * to get an interrupt every 10 ms.
	 */
	tc_write_rc(tc, EXAMPLE_TC_CHANNEL, (sysclk_get_pba_hz() / 8 / 1000));
80004fd4:	e0 6a 17 70 	mov	r10,6000
80004fd8:	30 0b       	mov	r11,0
80004fda:	0e 9c       	mov	r12,r7
80004fdc:	f0 1f 00 09 	mcall	80005000 <tc_init+0x38>
	// configure the timer interrupt
	tc_configure_interrupts(tc, EXAMPLE_TC_CHANNEL, &tc_interrupt);
80004fe0:	48 9a       	lddpc	r10,80005004 <tc_init+0x3c>
80004fe2:	30 0b       	mov	r11,0
80004fe4:	0e 9c       	mov	r12,r7
80004fe6:	f0 1f 00 09 	mcall	80005008 <tc_init+0x40>
	// Start the timer/counter.
	tc_start(tc, EXAMPLE_TC_CHANNEL);
80004fea:	30 0b       	mov	r11,0
80004fec:	0e 9c       	mov	r12,r7
80004fee:	f0 1f 00 08 	mcall	8000500c <tc_init+0x44>
}
80004ff2:	e3 cd 80 80 	ldm	sp++,r7,pc
80004ff6:	00 00       	add	r0,r0
80004ff8:	80 00       	ld.sh	r0,r0[0x0]
80004ffa:	b4 f0       	st.b	r10[0x7],r0
80004ffc:	80 00       	ld.sh	r0,r0[0x0]
80004ffe:	20 08       	sub	r8,0
80005000:	80 00       	ld.sh	r0,r0[0x0]
80005002:	20 c8       	sub	r8,12
80005004:	80 00       	ld.sh	r0,r0[0x0]
80005006:	b6 44       	st.h	r11[0x8],r4
80005008:	80 00       	ld.sh	r0,r0[0x0]
8000500a:	20 fc       	sub	r12,15
8000500c:	80 00       	ld.sh	r0,r0[0x0]
8000500e:	20 a4       	sub	r4,10

80005010 <twi_bus_read>:
	status = twi_master_write(&AVR32_TWI, &pkg);
	return (STATUS_OK == status) ? count : 0;
}

size_t twi_bus_read(uint8_t dev_addr, uint8_t addr, void *data, size_t count)
{
80005010:	eb cd 40 80 	pushm	r7,lr
80005014:	20 4d       	sub	sp,16
80005016:	12 97       	mov	r7,r9
		.chip        = dev_addr,
		.addr        = {addr},
		.addr_length = sizeof(addr),
		.buffer      = data,
		.length      = count,
	};
80005018:	30 08       	mov	r8,0
8000501a:	30 09       	mov	r9,0
8000501c:	fa e9 00 00 	st.d	sp[0],r8
80005020:	ba 8c       	st.b	sp[0x0],r12
80005022:	ba 9b       	st.b	sp[0x1],r11
80005024:	30 18       	mov	r8,1
80005026:	50 18       	stdsp	sp[0x4],r8
80005028:	50 2a       	stdsp	sp[0x8],r10
8000502a:	50 37       	stdsp	sp[0xc],r7

	status = twi_master_read(&AVR32_TWI, &pkg);
8000502c:	1a 9b       	mov	r11,sp
8000502e:	fe 7c 2c 00 	mov	r12,-54272
80005032:	f0 1f 00 05 	mcall	80005044 <twi_bus_read+0x34>
	return (STATUS_OK == status) ? count : 0;
}
80005036:	ee 0c 17 00 	moveq	r12,r7
8000503a:	f9 bc 01 00 	movne	r12,0
8000503e:	2f cd       	sub	sp,-16
80005040:	e3 cd 80 80 	ldm	sp++,r7,pc
80005044:	80 00       	ld.sh	r0,r0[0x0]
80005046:	23 9c       	sub	r12,57

80005048 <twi_bus_write>:
	
	status = twi_bus_write(dev_addr, addr, &data, sizeof(uint8_t));
}

size_t twi_bus_write(uint8_t dev_addr, uint8_t addr, const void *data, size_t count)
{
80005048:	eb cd 40 80 	pushm	r7,lr
8000504c:	20 4d       	sub	sp,16
8000504e:	12 97       	mov	r7,r9
		.chip        = dev_addr,
		.addr        = {addr},
		.addr_length = sizeof(addr),
		.buffer      = (void *)data,
		.length      = count,
	};
80005050:	30 08       	mov	r8,0
80005052:	30 09       	mov	r9,0
80005054:	fa e9 00 00 	st.d	sp[0],r8
80005058:	ba 8c       	st.b	sp[0x0],r12
8000505a:	ba 9b       	st.b	sp[0x1],r11
8000505c:	30 18       	mov	r8,1
8000505e:	50 18       	stdsp	sp[0x4],r8
80005060:	50 2a       	stdsp	sp[0x8],r10
80005062:	50 37       	stdsp	sp[0xc],r7

	status = twi_master_write(&AVR32_TWI, &pkg);
80005064:	1a 9b       	mov	r11,sp
80005066:	fe 7c 2c 00 	mov	r12,-54272
8000506a:	f0 1f 00 05 	mcall	8000507c <twi_bus_write+0x34>
	return (STATUS_OK == status) ? count : 0;
}
8000506e:	ee 0c 17 00 	moveq	r12,r7
80005072:	f9 bc 01 00 	movne	r12,0
80005076:	2f cd       	sub	sp,-16
80005078:	e3 cd 80 80 	ldm	sp++,r7,pc
8000507c:	80 00       	ld.sh	r0,r0[0x0]
8000507e:	22 ec       	sub	r12,46

80005080 <twi_bus_put>:
	
	return(status);
}

void twi_bus_put(uint8_t dev_addr, uint8_t addr, uint8_t data)
{
80005080:	d4 01       	pushm	lr
80005082:	20 1d       	sub	sp,4
80005084:	ba 8a       	st.b	sp[0x0],r10
	int status;
	
	status = twi_bus_write(dev_addr, addr, &data, sizeof(uint8_t));
80005086:	30 19       	mov	r9,1
80005088:	1a 9a       	mov	r10,sp
8000508a:	f0 1f 00 03 	mcall	80005094 <twi_bus_put+0x14>
}
8000508e:	2f fd       	sub	sp,-4
80005090:	d8 02       	popm	pc
80005092:	00 00       	add	r0,r0
80005094:	80 00       	ld.sh	r0,r0[0x0]
80005096:	50 48       	stdsp	sp[0x10],r8

80005098 <sga100_init>:
	/* Initialize the control registers. */
	//twi_bus_put(AK8975_BUS_ADDR, AK8975_REG_CNTL1, 0);
}

void sga100_init(void)
{
80005098:	d4 01       	pushm	lr
	/* Initialize the control registers. */
	//twi_bus_put(SGA100_BUS_ADDR, SGA100_CTRL1, 0);
	//twi_bus_put(SGA100_BUS_ADDR, SGA100_CTRL2, 0);
	//twi_bus_put(SGA100_BUS_ADDR, SGA100_CTRL3, 0);
	
	twi_bus_put(SGA100_BUS_ADDR, SGA100_CTRL1, 0x62);
8000509a:	36 2a       	mov	r10,98
8000509c:	30 3b       	mov	r11,3
8000509e:	36 4c       	mov	r12,100
800050a0:	f0 1f 00 02 	mcall	800050a8 <sga100_init+0x10>
}
800050a4:	d8 02       	popm	pc
800050a6:	00 00       	add	r0,r0
800050a8:	80 00       	ld.sh	r0,r0[0x0]
800050aa:	50 80       	stdsp	sp[0x20],r0

800050ac <itg3200_init>:
	twi_bus_put(BMA150_BUS_ADDR, BMA150_CTRL4, get_data);
	*/
}

void itg3200_init(void)
{
800050ac:	d4 01       	pushm	lr
	//twi_bus_put(ITG3200_BUS_ADDR, ITG3200_INT_CFG, 0);
	//twi_bus_put(ITG3200_BUS_ADDR, ITG3200_PWR_MGM, 0);
	
	uint8_t const dlpf_fs = FS_SEL_2000 | DLPF_CFG_42HZ;

	twi_bus_put(ITG3200_BUS_ADDR,ITG3200_WHOAMI, ITG3200_ID_VAL);
800050ae:	36 8a       	mov	r10,104
800050b0:	30 0b       	mov	r11,0
800050b2:	14 9c       	mov	r12,r10
800050b4:	f0 1f 00 0f 	mcall	800050f0 <itg3200_init+0x44>
	twi_bus_put(ITG3200_BUS_ADDR, ITG3200_PWR_MGM, PWR_MGM_H_RESET);
800050b8:	e0 6a 00 80 	mov	r10,128
800050bc:	33 eb       	mov	r11,62
800050be:	36 8c       	mov	r12,104
800050c0:	f0 1f 00 0c 	mcall	800050f0 <itg3200_init+0x44>
	twi_bus_put(ITG3200_BUS_ADDR, ITG3200_WHOAMI, ITG3200_ID_VAL);
800050c4:	36 8a       	mov	r10,104
800050c6:	30 0b       	mov	r11,0
800050c8:	14 9c       	mov	r12,r10
800050ca:	f0 1f 00 0a 	mcall	800050f0 <itg3200_init+0x44>
	twi_bus_put(ITG3200_BUS_ADDR, ITG3200_PWR_MGM, PWR_MGM_CLK_SEL_Z);
800050ce:	30 3a       	mov	r10,3
800050d0:	33 eb       	mov	r11,62
800050d2:	36 8c       	mov	r12,104
800050d4:	f0 1f 00 07 	mcall	800050f0 <itg3200_init+0x44>
		 *
		 * On reset the FS_SEL field is 00h and must be set to the
		 * full-scale range setting of 03h (+/-2000 deg/sec) for proper
		 * operation.
		 */
	twi_bus_put(ITG3200_BUS_ADDR, ITG3200_SMPLRT_DIV, 9); /* 100Hz sample rate  **/
800050d8:	30 9a       	mov	r10,9
800050da:	31 5b       	mov	r11,21
800050dc:	36 8c       	mov	r12,104
800050de:	f0 1f 00 05 	mcall	800050f0 <itg3200_init+0x44>
	twi_bus_put(ITG3200_BUS_ADDR, ITG3200_DLPF_FS, dlpf_fs);	
800050e2:	31 ba       	mov	r10,27
800050e4:	31 6b       	mov	r11,22
800050e6:	36 8c       	mov	r12,104
800050e8:	f0 1f 00 02 	mcall	800050f0 <itg3200_init+0x44>
}
800050ec:	d8 02       	popm	pc
800050ee:	00 00       	add	r0,r0
800050f0:	80 00       	ld.sh	r0,r0[0x0]
800050f2:	50 80       	stdsp	sp[0x20],r0

800050f4 <twi_master_setup>:
volatile bool g_bDataSendRepeat=false;
volatile char szClientIP[32]={0};
volatile uint8_t connect_cid;

int twi_master_setup(void)
{
800050f4:	d4 01       	pushm	lr
800050f6:	20 3d       	sub	sp,12
	twi_options_t opt;
	int status;
	
	// twi options settings
	opt.pba_hz = sysclk_get_pba_hz();
800050f8:	e0 68 6c 00 	mov	r8,27648
800050fc:	ea 18 02 dc 	orh	r8,0x2dc
80005100:	50 08       	stdsp	sp[0x0],r8
	opt.speed = TWI_SPEED;
80005102:	e6 68 1a 80 	mov	r8,400000
80005106:	50 18       	stdsp	sp[0x4],r8
	opt.chip = 0;
80005108:	30 08       	mov	r8,0
8000510a:	fb 68 00 08 	st.b	sp[8],r8
 * \brief Enable a module clock derived from the PBA clock
 * \param index Index of the module clock in the PBAMASK register
 */
static inline void sysclk_enable_pba_module(unsigned int index)
{
	sysclk_priv_enable_module(AVR32_PM_CLK_GRP_PBA, index);
8000510e:	30 6b       	mov	r11,6
80005110:	30 2c       	mov	r12,2
80005112:	f0 1f 00 05 	mcall	80005124 <twi_master_setup+0x30>

	sysclk_enable_pba_module(SYSCLK_TWI);

	// initialize TWI driver with options
	status = twi_master_init(&AVR32_TWI, &opt);
80005116:	1a 9b       	mov	r11,sp
80005118:	fe 7c 2c 00 	mov	r12,-54272
8000511c:	f0 1f 00 03 	mcall	80005128 <twi_master_setup+0x34>
	
	return(status);
}
80005120:	2f dd       	sub	sp,-12
80005122:	d8 02       	popm	pc
80005124:	80 00       	ld.sh	r0,r0[0x0]
80005126:	3b 90       	mov	r0,-71
80005128:	80 00       	ld.sh	r0,r0[0x0]
8000512a:	24 54       	sub	r4,69

8000512c <uart_open>:
	tc_start(tc, EXAMPLE_TC_CHANNEL);
}


void uart_open(uint8_t port)
{
8000512c:	d4 01       	pushm	lr
		.stopbits     = USART_1_STOPBIT,
		.channelmode  = USART_NORMAL_CHMODE
	};
	
	// Enable interrupt with priority higher than USB
	irq_register_handler(usart_interrupt, USART_IRQ, 3);
8000512e:	30 3a       	mov	r10,3
80005130:	e0 6b 00 c0 	mov	r11,192
80005134:	48 bc       	lddpc	r12,80005160 <uart_open+0x34>
80005136:	f0 1f 00 0c 	mcall	80005164 <uart_open+0x38>
8000513a:	30 8b       	mov	r11,8
8000513c:	30 2c       	mov	r12,2
8000513e:	f0 1f 00 0b 	mcall	80005168 <uart_open+0x3c>

	// Initialize it in RS232 mode.
	sysclk_enable_pba_module(USART_SYSCLK);
	
	usart_init_rs232(USART, &USART_OPTIONS,sysclk_get_pba_hz());
80005142:	e0 6a 6c 00 	mov	r10,27648
80005146:	ea 1a 02 dc 	orh	r10,0x2dc
8000514a:	48 9b       	lddpc	r11,8000516c <uart_open+0x40>
8000514c:	fe 7c 18 00 	mov	r12,-59392
80005150:	f0 1f 00 08 	mcall	80005170 <uart_open+0x44>

	// Enable both RX
	USART->ier = AVR32_USART_IER_RXRDY_MASK;
80005154:	30 19       	mov	r9,1
80005156:	fe 78 18 00 	mov	r8,-59392
8000515a:	91 29       	st.w	r8[0x8],r9
}
8000515c:	d8 02       	popm	pc
8000515e:	00 00       	add	r0,r0
80005160:	80 00       	ld.sh	r0,r0[0x0]
80005162:	4f 7c       	lddpc	r12,8000533c <main+0x1c8>
80005164:	80 00       	ld.sh	r0,r0[0x0]
80005166:	28 64       	sub	r4,-122
80005168:	80 00       	ld.sh	r0,r0[0x0]
8000516a:	3b 90       	mov	r0,-71
8000516c:	80 00       	ld.sh	r0,r0[0x0]
8000516e:	b6 48       	st.h	r11[0x8],r8
80005170:	80 00       	ld.sh	r0,r0[0x0]
80005172:	2a 80       	sub	r0,-88

80005174 <main>:
 */

/*! \brief Main function. Execution starts here.
 */
int main(void)
{
80005174:	d4 31       	pushm	r0-r7,lr
80005176:	fa cd 00 90 	sub	sp,sp,144
	volatile avr32_tc_t *tc = EXAMPLE_TC;
	char szBuffer[128]={0};
8000517a:	e0 6a 00 80 	mov	r10,128
8000517e:	30 0b       	mov	r11,0
80005180:	fa cc ff f0 	sub	r12,sp,-16
80005184:	f0 1f 01 06 	mcall	8000559c <main+0x428>
	uint8_t cal_temp_z;
	
	uint8_t bit_cal_temp=0xfc;


	irq_initialize_vectors();
80005188:	f0 1f 01 06 	mcall	800055a0 <main+0x42c>
	cpu_irq_enable();
8000518c:	d5 03       	csrf	0x10

	sysclk_init();
8000518e:	f0 1f 01 06 	mcall	800055a4 <main+0x430>
	board_init();
80005192:	f0 1f 01 06 	mcall	800055a8 <main+0x434>
80005196:	30 cb       	mov	r11,12
80005198:	30 2c       	mov	r12,2
8000519a:	f0 1f 01 05 	mcall	800055ac <main+0x438>
	
	// Enable the clock to the selected example Timer/counter peripheral module.
	sysclk_enable_peripheral_clock(EXAMPLE_TC);

	ui_init();
8000519e:	f0 1f 01 05 	mcall	800055b0 <main+0x43c>
	ui_powerdown();
800051a2:	f0 1f 01 05 	mcall	800055b4 <main+0x440>

	// Start USB stack to authorize VBus monitoring
	udc_start();
800051a6:	f0 1f 01 05 	mcall	800055b8 <main+0x444>
	
	INTC_register_interrupt(&tc_irq, EXAMPLE_TC_IRQ, EXAMPLE_TC_IRQ_PRIORITY);
800051aa:	30 0a       	mov	r10,0
800051ac:	e0 6b 01 c0 	mov	r11,448
800051b0:	fe fc 04 0c 	ld.w	r12,pc[1036]
800051b4:	f0 1f 01 03 	mcall	800055c0 <main+0x44c>

	// Initialize the timer module
	tc_init(tc);
800051b8:	fe 7c 38 00 	mov	r12,-51200
800051bc:	f0 1f 01 02 	mcall	800055c4 <main+0x450>
		
	//initialize the twi(I2C)
	status = twi_master_setup();
800051c0:	f0 1f 01 02 	mcall	800055c8 <main+0x454>
	
	//initialize the uart to communicate with WiFi chip set
	uart_open(0);
800051c4:	30 0c       	mov	r12,0
800051c6:	f0 1f 01 02 	mcall	800055cc <main+0x458>

	//sensor control register init
	bma150_init();
	itg3200_init();
800051ca:	f0 1f 01 02 	mcall	800055d0 <main+0x45c>
	ak8975_init();
	sga100_init();
800051ce:	f0 1f 01 02 	mcall	800055d4 <main+0x460>
	
	wifi_opr_mode=WIFI_NO_OPR;
800051d2:	30 09       	mov	r9,0
800051d4:	fe f8 04 04 	ld.w	r8,pc[1028]
800051d8:	b0 89       	st.b	r8[0x0],r9
 *
 * \return the converted number of CPU cycles.
 */
__always_inline static uint32_t cpu_ms_2_cy(unsigned long ms, unsigned long fcpu_hz)
{
  return ((unsigned long long)ms * fcpu_hz + 999) / 1000;
800051da:	e0 68 03 e8 	mov	r8,1000
800051de:	30 09       	mov	r9,0
800051e0:	e0 6a c3 e7 	mov	r10,50151
800051e4:	ea 1a 5a 0b 	orh	r10,0x5a0b
800051e8:	31 6b       	mov	r11,22
800051ea:	f0 1f 00 fd 	mcall	800055dc <main+0x468>
 * \param  delay:   (input) delay in CPU cycles before timeout.
 * \param  cpu_time: (output) internal information used by the timer API.
 */
__always_inline static void cpu_set_timeout(unsigned long delay, t_cpu_time *cpu_time)
{
  cpu_time->delay_start_cycle = Get_system_register(AVR32_COUNT);
800051ee:	e1 b8 00 42 	mfsr	r8,0x108
  cpu_time->delay_end_cycle   = cpu_time->delay_start_cycle + delay;
800051f2:	f0 0a 00 0a 	add	r10,r8,r10
 *
 * \return true if timeout occurred, otherwise false.
 */
__always_inline static unsigned long cpu_is_timeout(t_cpu_time *cpu_time)
{
  unsigned long current_cycle_count = Get_system_register(AVR32_COUNT);
800051f6:	e1 b9 00 42 	mfsr	r9,0x108
  // Test if the timeout as already occurred.
  else if (cpu_time->timer_state == CPU_TIMER_STATE_REACHED)
    return true;

  // If the ending cycle count of this timeout is wrapped, ...
  else if (cpu_time->delay_start_cycle > cpu_time->delay_end_cycle)
800051fa:	14 38       	cp.w	r8,r10
800051fc:	e0 88 00 08 	brls	8000520c <main+0x98>
  {
    if (current_cycle_count < cpu_time->delay_start_cycle && current_cycle_count > cpu_time->delay_end_cycle)
80005200:	12 38       	cp.w	r8,r9
80005202:	fe 98 ff fa 	brls	800051f6 <main+0x82>
80005206:	12 3a       	cp.w	r10,r9
80005208:	c0 73       	brcs	80005216 <main+0xa2>
8000520a:	cf 6b       	rjmp	800051f6 <main+0x82>
    }
    return false;
  }
  else
  {
    if (current_cycle_count < cpu_time->delay_start_cycle || current_cycle_count > cpu_time->delay_end_cycle)
8000520c:	12 38       	cp.w	r8,r9
8000520e:	e0 8b 00 04 	brhi	80005216 <main+0xa2>
80005212:	12 3a       	cp.w	r10,r9
80005214:	cf 12       	brcc	800051f6 <main+0x82>
	
	delay_ms(2000);
	
	while (true) {

		if(update_timer_2)
80005216:	fe f5 03 ca 	ld.w	r5,pc[970]
		{
			update_timer_2 =  false;
8000521a:	30 06       	mov	r6,0
			tc_tick_2=0;
8000521c:	fe f3 03 c8 	ld.w	r3,pc[968]
80005220:	30 07       	mov	r7,0
			LED_Toggle(LED3);
80005222:	30 82       	mov	r2,8
			wifi_Client_msg_updated=false;
				
			if(nPortIndex<WIFI_BUF_MAX)
			{
				//Port Check.	
				memset(szClientIP,0,sizeof(char)*32);
80005224:	fe f1 03 c4 	ld.w	r1,pc[964]
80005228:	e2 02 00 00 	add	r0,r1,r2
8000522c:	e0 02 00 0a 	add	r10,r0,r2
80005230:	50 0a       	stdsp	sp[0x0],r10
80005232:	04 0a       	add	r10,r2
80005234:	50 1a       	stdsp	sp[0x4],r10
	
	delay_ms(2000);
	
	while (true) {

		if(update_timer_2)
80005236:	0b 88       	ld.ub	r8,r5[0x0]
80005238:	58 08       	cp.w	r8,0
8000523a:	c0 60       	breq	80005246 <main+0xd2>
		{
			update_timer_2 =  false;
8000523c:	aa 86       	st.b	r5[0x0],r6
			tc_tick_2=0;
8000523e:	87 07       	st.w	r3[0x0],r7
			LED_Toggle(LED3);
80005240:	04 9c       	mov	r12,r2
80005242:	f0 1f 00 eb 	mcall	800055ec <main+0x478>
		}
				
		wifi_module_status_check();
80005246:	f0 1f 00 eb 	mcall	800055f0 <main+0x47c>
			
		memset(szBuffer,0,sizeof(char)*128);
8000524a:	e0 6a 00 80 	mov	r10,128
8000524e:	0e 9b       	mov	r11,r7
80005250:	fa cc ff f0 	sub	r12,sp,-16
80005254:	f0 1f 00 d2 	mcall	8000559c <main+0x428>
			
		if(wifi_Client_msg_updated )	//Received  client msg(receive ip/port)
80005258:	fe f8 03 9c 	ld.w	r8,pc[924]
8000525c:	11 88       	ld.ub	r8,r8[0x0]
8000525e:	58 08       	cp.w	r8,0
80005260:	e0 80 00 f7 	breq	8000544e <main+0x2da>
		{
			wifi_Client_msg_updated=false;
80005264:	fe f8 03 90 	ld.w	r8,pc[912]
80005268:	b0 86       	st.b	r8[0x0],r6
				
			if(nPortIndex<WIFI_BUF_MAX)
8000526a:	fe f8 03 8e 	ld.w	r8,pc[910]
8000526e:	70 08       	ld.w	r8,r8[0x0]
80005270:	e0 48 00 7f 	cp.w	r8,127
80005274:	e0 89 00 3a 	brgt	800052e8 <main+0x174>
			{
				//Port Check.	
				memset(szClientIP,0,sizeof(char)*32);
80005278:	30 08       	mov	r8,0
8000527a:	30 09       	mov	r9,0
8000527c:	e2 e9 00 00 	st.d	r1[0],r8
80005280:	e0 e9 00 00 	st.d	r0[0],r8
80005284:	40 0a       	lddsp	r10,sp[0x0]
80005286:	f4 e9 00 00 	st.d	r10[0],r8
8000528a:	40 1a       	lddsp	r10,sp[0x4]
8000528c:	f4 e9 00 00 	st.d	r10[0],r8
				memcpy(&nOutIndex[0],&wifi_buffer[nPortIndex],5);
80005290:	fe f8 03 68 	ld.w	r8,pc[872]
80005294:	70 08       	ld.w	r8,r8[0x0]
80005296:	fa c4 ff f8 	sub	r4,sp,-8
8000529a:	30 5a       	mov	r10,5
8000529c:	fe fb 03 60 	ld.w	r11,pc[864]
800052a0:	10 0b       	add	r11,r8
800052a2:	08 9c       	mov	r12,r4
800052a4:	f0 1f 00 d7 	mcall	80005600 <main+0x48c>
				nClientPort=atoi(nOutIndex);
800052a8:	08 9c       	mov	r12,r4
800052aa:	f0 1f 00 d7 	mcall	80005604 <main+0x490>
800052ae:	fe f8 03 5a 	ld.w	r8,pc[858]
800052b2:	91 0c       	st.w	r8[0x0],r12
						
				if(nIPEndIndex-nIPStartIndex>0)
800052b4:	fe f8 03 58 	ld.w	r8,pc[856]
800052b8:	70 09       	ld.w	r9,r8[0x0]
800052ba:	fe f8 03 56 	ld.w	r8,pc[854]
800052be:	70 08       	ld.w	r8,r8[0x0]
800052c0:	f2 08 01 08 	sub	r8,r9,r8
800052c4:	58 08       	cp.w	r8,0
800052c6:	e0 8a 00 11 	brle	800052e8 <main+0x174>
				{
					memcpy(&szClientIP[0],&wifi_buffer[nIPStartIndex],(nIPEndIndex-nIPStartIndex+1));
800052ca:	fe f8 03 42 	ld.w	r8,pc[834]
800052ce:	70 0a       	ld.w	r10,r8[0x0]
800052d0:	fe f8 03 40 	ld.w	r8,pc[832]
800052d4:	70 09       	ld.w	r9,r8[0x0]
800052d6:	70 08       	ld.w	r8,r8[0x0]
800052d8:	2f fa       	sub	r10,-1
800052da:	12 1a       	sub	r10,r9
800052dc:	fe fb 03 20 	ld.w	r11,pc[800]
800052e0:	10 0b       	add	r11,r8
800052e2:	02 9c       	mov	r12,r1
800052e4:	f0 1f 00 c7 	mcall	80005600 <main+0x48c>
				}
			}
					
			nMsgSize=nMsgDataEndIndex-nMsgDataStartIndex;
800052e8:	fe f8 03 2c 	ld.w	r8,pc[812]
800052ec:	70 0a       	ld.w	r10,r8[0x0]
800052ee:	fe f8 03 2a 	ld.w	r8,pc[810]
800052f2:	70 09       	ld.w	r9,r8[0x0]
				
			if((nMsgDataStartIndex!=0) && (nMsgDataEndIndex!=0) && (nMsgSize>0))
800052f4:	70 08       	ld.w	r8,r8[0x0]
800052f6:	58 08       	cp.w	r8,0
800052f8:	e0 80 00 9f 	breq	80005436 <main+0x2c2>
800052fc:	fe f8 03 18 	ld.w	r8,pc[792]
80005300:	70 08       	ld.w	r8,r8[0x0]
80005302:	58 08       	cp.w	r8,0
80005304:	e0 80 00 99 	breq	80005436 <main+0x2c2>
				{
					memcpy(&szClientIP[0],&wifi_buffer[nIPStartIndex],(nIPEndIndex-nIPStartIndex+1));
				}
			}
					
			nMsgSize=nMsgDataEndIndex-nMsgDataStartIndex;
80005308:	f4 09 01 09 	sub	r9,r10,r9
				
			if((nMsgDataStartIndex!=0) && (nMsgDataEndIndex!=0) && (nMsgSize>0))
8000530c:	58 09       	cp.w	r9,0
8000530e:	e0 8a 00 94 	brle	80005436 <main+0x2c2>
			{
				//Message Command Check
				if((nMsgSize+1)==(CMD_BYTE_SIZE))	//target 4Byte//dest byte count
80005312:	58 39       	cp.w	r9,3
80005314:	e0 81 00 82 	brne	80005418 <main+0x2a4>
				{
					//Command .
					PacketInfo.nID=wifi_buffer[nMsgDataStartIndex+0];
80005318:	fe fa 03 00 	ld.w	r10,pc[768]
8000531c:	74 08       	ld.w	r8,r10[0x0]
8000531e:	fe f9 02 de 	ld.w	r9,pc[734]
80005322:	f2 08 07 0b 	ld.ub	r11,r9[r8]
80005326:	fe f8 02 f6 	ld.w	r8,pc[758]
8000532a:	b0 8b       	st.b	r8[0x0],r11
					PacketInfo.nDeviceCommand=wifi_buffer[nMsgDataStartIndex+1];
8000532c:	74 0b       	ld.w	r11,r10[0x0]
8000532e:	2f fb       	sub	r11,-1
80005330:	f2 0b 07 0b 	ld.ub	r11,r9[r11]
80005334:	b0 9b       	st.b	r8[0x1],r11
					PacketInfo.nAddr=wifi_buffer[nMsgDataStartIndex+2];
80005336:	74 0b       	ld.w	r11,r10[0x0]
80005338:	2f eb       	sub	r11,-2
8000533a:	f2 0b 07 0b 	ld.ub	r11,r9[r11]
8000533e:	b0 ab       	st.b	r8[0x2],r11
					PacketInfo.nData=wifi_buffer[nMsgDataStartIndex+3];
80005340:	74 0a       	ld.w	r10,r10[0x0]
80005342:	2f da       	sub	r10,-3
80005344:	f2 0a 07 09 	ld.ub	r9,r9[r10]
80005348:	b0 b9       	st.b	r8[0x3],r9
									
					g_bDataSendRepeat=true;		//repeatly send
8000534a:	30 1a       	mov	r10,1
8000534c:	fe f9 02 d4 	ld.w	r9,pc[724]
80005350:	b2 8a       	st.b	r9[0x0],r10
									
					switch(PacketInfo.nID)
80005352:	11 89       	ld.ub	r9,r8[0x0]
80005354:	3f e8       	mov	r8,-2
80005356:	f0 09 18 00 	cp.b	r9,r8
8000535a:	c6 e1       	brne	80005436 <main+0x2c2>
					{
						case 0xFE://BT->WIFI Command  //BT Application command  change
						{
							if(PacketInfo.nDeviceCommand & DEVICE_TOTAL_READ_CMD)//All Read
8000535c:	fe f8 02 c0 	ld.w	r8,pc[704]
80005360:	11 98       	ld.ub	r8,r8[0x1]
80005362:	e2 18 00 10 	andl	r8,0x10,COH
80005366:	c0 d0       	breq	80005380 <main+0x20c>
							{
								bSelectMagnetic=bSelectGyro=bSelectAccel=true;
80005368:	fe f8 02 bc 	ld.w	r8,pc[700]
8000536c:	b0 8a       	st.b	r8[0x0],r10
8000536e:	11 89       	ld.ub	r9,r8[0x0]
80005370:	fe f8 02 b8 	ld.w	r8,pc[696]
80005374:	b0 89       	st.b	r8[0x0],r9
80005376:	11 89       	ld.ub	r9,r8[0x0]
80005378:	fe f8 02 b4 	ld.w	r8,pc[692]
8000537c:	b0 89       	st.b	r8[0x0],r9
8000537e:	c1 f8       	rjmp	800053bc <main+0x248>
							}
							else
							{
								//Individual Read			
								if(PacketInfo.nDeviceCommand & DEVICE_ACCEL_CMD)
80005380:	fe f8 02 9c 	ld.w	r8,pc[668]
80005384:	11 98       	ld.ub	r8,r8[0x1]
80005386:	ec 08 18 00 	cp.b	r8,r6
8000538a:	c0 54       	brge	80005394 <main+0x220>
								{
									//Accelerometer
									bSelectAccel=true;
8000538c:	30 19       	mov	r9,1
8000538e:	fe f8 02 96 	ld.w	r8,pc[662]
80005392:	b0 89       	st.b	r8[0x0],r9
								}
								if(PacketInfo.nDeviceCommand & DEVICE_GYRO_CMD)
80005394:	fe f8 02 88 	ld.w	r8,pc[648]
80005398:	11 98       	ld.ub	r8,r8[0x1]
8000539a:	e2 18 00 40 	andl	r8,0x40,COH
8000539e:	c0 50       	breq	800053a8 <main+0x234>
								{
									//Gyro
									bSelectGyro=true;
800053a0:	30 19       	mov	r9,1
800053a2:	fe f8 02 86 	ld.w	r8,pc[646]
800053a6:	b0 89       	st.b	r8[0x0],r9
								}
								if(PacketInfo.nDeviceCommand & DEVICE_MAG_CMD)
800053a8:	fe f8 02 74 	ld.w	r8,pc[628]
800053ac:	11 98       	ld.ub	r8,r8[0x1]
800053ae:	e2 18 00 20 	andl	r8,0x20,COH
800053b2:	c0 50       	breq	800053bc <main+0x248>
								{
									//Magneto
									bSelectMagnetic=true;
800053b4:	30 19       	mov	r9,1
800053b6:	fe f8 02 76 	ld.w	r8,pc[630]
800053ba:	b0 89       	st.b	r8[0x0],r9
								}
							}
											
							if(PacketInfo.nDeviceCommand & ACCES_TYPE_READ_CMD)
800053bc:	fe f8 02 60 	ld.w	r8,pc[608]
800053c0:	11 98       	ld.ub	r8,r8[0x1]
800053c2:	e2 18 00 02 	andl	r8,0x2,COH
800053c6:	c0 60       	breq	800053d2 <main+0x25e>
							{
								//Server Send start
								bServerSend=true;
800053c8:	30 19       	mov	r9,1
800053ca:	fe f8 02 66 	ld.w	r8,pc[614]
800053ce:	b0 89       	st.b	r8[0x0],r9
800053d0:	c3 38       	rjmp	80005436 <main+0x2c2>
							}
							else if(PacketInfo.nDeviceCommand & ACCES_TYPE_STREAM_READ_STOP)
800053d2:	fe f8 02 4a 	ld.w	r8,pc[586]
800053d6:	11 98       	ld.ub	r8,r8[0x1]
800053d8:	e2 18 00 08 	andl	r8,0x8,COH
800053dc:	c0 50       	breq	800053e6 <main+0x272>
							{
								//Server send stop
								bServerSend=false;
800053de:	fe f8 02 52 	ld.w	r8,pc[594]
800053e2:	b0 86       	st.b	r8[0x0],r6
800053e4:	c2 98       	rjmp	80005436 <main+0x2c2>
							}
							else if(PacketInfo.nDeviceCommand & ACCES_TYPE_WRITE_CMD)
800053e6:	fe f8 02 36 	ld.w	r8,pc[566]
800053ea:	11 98       	ld.ub	r8,r8[0x1]
800053ec:	f1 d8 c0 01 	bfextu	r8,r8,0x0,0x1
800053f0:	c2 30       	breq	80005436 <main+0x2c2>
							{
								//Other
								if(bSelectAccel)
800053f2:	fe f8 02 32 	ld.w	r8,pc[562]
800053f6:	11 88       	ld.ub	r8,r8[0x0]
800053f8:	58 08       	cp.w	r8,0
800053fa:	c1 e0       	breq	80005436 <main+0x2c2>
								{
									//SGA100B Register Write.
									sprintf(szBuffer,"Write Addr:%x Data:%x\r\n",PacketInfo.nAddr,PacketInfo.nData);//
800053fc:	fe f8 02 20 	ld.w	r8,pc[544]
80005400:	11 b9       	ld.ub	r9,r8[0x3]
80005402:	11 a8       	ld.ub	r8,r8[0x2]
80005404:	1a d9       	st.w	--sp,r9
80005406:	1a d8       	st.w	--sp,r8
80005408:	fe fb 02 2c 	ld.w	r11,pc[556]
8000540c:	fa cc ff e8 	sub	r12,sp,-24
80005410:	f0 1f 00 8a 	mcall	80005638 <main+0x4c4>
80005414:	2f ed       	sub	sp,-8
80005416:	c1 08       	rjmp	80005436 <main+0x2c2>
					}		
				}//4Byte is need to cmd check 
				else
				{
					//Once send
					bServerSend=true;	
80005418:	30 18       	mov	r8,1
8000541a:	fe f9 02 16 	ld.w	r9,pc[534]
8000541e:	b2 88       	st.b	r9[0x0],r8
					bSelectAccel=true;
80005420:	fe f9 02 04 	ld.w	r9,pc[516]
80005424:	b2 88       	st.b	r9[0x0],r8
					//20150609 bSelectGyro=true;
					bSelectGyro=false;
80005426:	fe f9 02 02 	ld.w	r9,pc[514]
8000542a:	b2 86       	st.b	r9[0x0],r6
					//20150609 bSelectMagnetic=true;
					bSelectMagnetic=false;
8000542c:	fe f9 02 00 	ld.w	r9,pc[512]
80005430:	b2 86       	st.b	r9[0x0],r6
								
					//20150609 g_bDataSendRepeat=false; 
					g_bDataSendRepeat=true; 
80005432:	4f c9       	lddpc	r9,80005620 <main+0x4ac>
80005434:	b2 88       	st.b	r9[0x0],r8
				}//No Command	
			}//is exist msg start index //Message Command Check
					
			nPortIndex=0;
80005436:	4f 18       	lddpc	r8,800055f8 <main+0x484>
80005438:	91 07       	st.w	r8[0x0],r7
			nMsgDataStartIndex=0;
8000543a:	4f 88       	lddpc	r8,80005618 <main+0x4a4>
8000543c:	91 07       	st.w	r8[0x0],r7
			nMsgDataEndIndex=0;
8000543e:	4f 68       	lddpc	r8,80005614 <main+0x4a0>
80005440:	91 07       	st.w	r8[0x0],r7
			nIPStartIndex=0;
80005442:	4f 48       	lddpc	r8,80005610 <main+0x49c>
80005444:	91 07       	st.w	r8[0x0],r7
			nIPEndIndex=0;
80005446:	4f 28       	lddpc	r8,8000560c <main+0x498>
80005448:	91 07       	st.w	r8[0x0],r7
			wifi_buffer_clear();
8000544a:	f0 1f 00 7d 	mcall	8000563c <main+0x4c8>
		}	
		
		if (update_timer)
8000544e:	4f d8       	lddpc	r8,80005640 <main+0x4cc>
80005450:	11 88       	ld.ub	r8,r8[0x0]
80005452:	58 08       	cp.w	r8,0
80005454:	fe 90 fe f1 	breq	80005236 <main+0xc2>
		{
#ifdef BMA150_USED
			status = twi_bus_read(BMA150_BUS_ADDR, BMA150_ACC_X_LSB, &bma150_data, sizeof(bma150_data));
#endif
			status = twi_bus_read(ITG3200_BUS_ADDR, ITG3200_GYRO_XOUT_H, &itg3200_data, sizeof(itg3200_data));
80005458:	30 69       	mov	r9,6
8000545a:	4f ba       	lddpc	r10,80005644 <main+0x4d0>
8000545c:	31 db       	mov	r11,29
8000545e:	36 8c       	mov	r12,104
80005460:	f0 1f 00 7a 	mcall	80005648 <main+0x4d4>
#ifdef SGA100_USED	
			status = twi_bus_read(SGA100_BUS_ADDR, SGA100_ACC_OUT_X_H, &sga100_data, sizeof(sga100_data));
80005464:	30 69       	mov	r9,6
80005466:	4f aa       	lddpc	r10,8000564c <main+0x4d8>
80005468:	31 2b       	mov	r11,18
8000546a:	36 4c       	mov	r12,100
8000546c:	f0 1f 00 77 	mcall	80005648 <main+0x4d4>
					}			
				}
			}
#endif

			update_timer=false;
80005470:	4f 48       	lddpc	r8,80005640 <main+0x4cc>
80005472:	b0 86       	st.b	r8[0x0],r6
			tc_tick=0;
80005474:	4f 78       	lddpc	r8,80005650 <main+0x4dc>
80005476:	91 07       	st.w	r8[0x0],r7
			
			/* magnetometer data read */
			if(update_timer_1)
80005478:	4f 78       	lddpc	r8,80005654 <main+0x4e0>
8000547a:	11 88       	ld.ub	r8,r8[0x0]
8000547c:	58 08       	cp.w	r8,0
8000547e:	c0 50       	breq	80005488 <main+0x314>
			{
				update_timer_1=false;
80005480:	4f 58       	lddpc	r8,80005654 <main+0x4e0>
80005482:	b0 86       	st.b	r8[0x0],r6
				tc_tick_1=0;
80005484:	4f 58       	lddpc	r8,80005658 <main+0x4e4>
80005486:	91 07       	st.w	r8[0x0],r7
				//if ((ak8975_get_data()) && (!ak8975_check_overflow(ak8975_data)))
				//{
				//}
			}

			if(bServerSend!=false)
80005488:	4e a8       	lddpc	r8,80005630 <main+0x4bc>
8000548a:	11 88       	ld.ub	r8,r8[0x0]
8000548c:	58 08       	cp.w	r8,0
8000548e:	fe 90 fe d4 	breq	80005236 <main+0xc2>
			{
				//Server send
				sprintf(g_szServerSendMsg,"\eU0%s:%d:",szClientIP,nClientPort);
80005492:	4d e8       	lddpc	r8,80005608 <main+0x494>
80005494:	70 08       	ld.w	r8,r8[0x0]
80005496:	4f 24       	lddpc	r4,8000565c <main+0x4e8>
80005498:	1a d8       	st.w	--sp,r8
8000549a:	1a d1       	st.w	--sp,r1
8000549c:	4f 1b       	lddpc	r11,80005660 <main+0x4ec>
8000549e:	08 9c       	mov	r12,r4
800054a0:	f0 1f 00 66 	mcall	80005638 <main+0x4c4>

				//send data to Client
				usart_write_line(USART,g_szServerSendMsg);
800054a4:	08 9b       	mov	r11,r4
800054a6:	fe 7c 18 00 	mov	r12,-59392
800054aa:	f0 1f 00 6f 	mcall	80005664 <main+0x4f0>
				usart_write_line(USART,szPacketHeader);
800054ae:	4e fb       	lddpc	r11,80005668 <main+0x4f4>
800054b0:	fe 7c 18 00 	mov	r12,-59392
800054b4:	f0 1f 00 6c 	mcall	80005664 <main+0x4f0>
			
				if(bSelectAccel) 
800054b8:	4d b8       	lddpc	r8,80005624 <main+0x4b0>
800054ba:	11 88       	ld.ub	r8,r8[0x0]
800054bc:	2f ed       	sub	sp,-8
800054be:	58 08       	cp.w	r8,0
800054c0:	c1 a0       	breq	800054f4 <main+0x380>
				{
#ifdef SGA100_USED
					//make accel string
					//20150609 sprintf(szBuffer,"[AXH]%02x[AXL]%02x[AYH]%02x[AYL]%02x[AZH]%02x[AZL]%02x",sga100_data.x1,sga100_data.x2,sga100_data.y1,sga100_data.y2,sga100_data.z1,sga100_data.z2
					sprintf(szBuffer,"%02x%02x%02x%02x%02x%02x",sga100_data.x2,sga100_data.x1,sga100_data.y2,sga100_data.y1,sga100_data.z2,sga100_data.z1);
800054c2:	fa c4 ff f0 	sub	r4,sp,-16
800054c6:	4e 28       	lddpc	r8,8000564c <main+0x4d8>
800054c8:	11 c9       	ld.ub	r9,r8[0x4]
800054ca:	1a d9       	st.w	--sp,r9
800054cc:	11 d9       	ld.ub	r9,r8[0x5]
800054ce:	1a d9       	st.w	--sp,r9
800054d0:	11 a9       	ld.ub	r9,r8[0x2]
800054d2:	1a d9       	st.w	--sp,r9
800054d4:	11 b9       	ld.ub	r9,r8[0x3]
800054d6:	1a d9       	st.w	--sp,r9
800054d8:	11 89       	ld.ub	r9,r8[0x0]
800054da:	1a d9       	st.w	--sp,r9
800054dc:	11 98       	ld.ub	r8,r8[0x1]
800054de:	1a d8       	st.w	--sp,r8
800054e0:	4e 3b       	lddpc	r11,8000566c <main+0x4f8>
800054e2:	08 9c       	mov	r12,r4
800054e4:	f0 1f 00 55 	mcall	80005638 <main+0x4c4>
#endif
#ifdef BMA150_USED
					sprintf(szBuffer,"[AXH]%02x[AXL]%02x[AYH]%02x[AYL]%02x[AZH]%02x[AZL]%02x",bma150_data.x2,bma150_data.x1,bma150_data.y2,bma150_data.y1,bma150_data.z2,bma150_data.z1);
#endif
					usart_write_line(USART,szBuffer);
800054e8:	08 9b       	mov	r11,r4
800054ea:	fe 7c 18 00 	mov	r12,-59392
800054ee:	f0 1f 00 5e 	mcall	80005664 <main+0x4f0>
800054f2:	2f ad       	sub	sp,-24
				}
			
				if(bSelectGyro) 
800054f4:	4c d8       	lddpc	r8,80005628 <main+0x4b4>
800054f6:	11 88       	ld.ub	r8,r8[0x0]
800054f8:	58 08       	cp.w	r8,0
800054fa:	c1 a0       	breq	8000552e <main+0x3ba>
				{
					//make Gyro string
					sprintf(szBuffer,"[GXH]%02x[GXL]%02x[GYH]%02x[GYL]%02x[GZH]%02x[GZL]%02x",itg3200_data.x1,itg3200_data.x2,itg3200_data.y1,itg3200_data.y2,itg3200_data.z1,itg3200_data.z2);
800054fc:	fa c4 ff f0 	sub	r4,sp,-16
80005500:	4d 18       	lddpc	r8,80005644 <main+0x4d0>
80005502:	11 d9       	ld.ub	r9,r8[0x5]
80005504:	1a d9       	st.w	--sp,r9
80005506:	11 c9       	ld.ub	r9,r8[0x4]
80005508:	1a d9       	st.w	--sp,r9
8000550a:	11 b9       	ld.ub	r9,r8[0x3]
8000550c:	1a d9       	st.w	--sp,r9
8000550e:	11 a9       	ld.ub	r9,r8[0x2]
80005510:	1a d9       	st.w	--sp,r9
80005512:	11 99       	ld.ub	r9,r8[0x1]
80005514:	1a d9       	st.w	--sp,r9
80005516:	11 88       	ld.ub	r8,r8[0x0]
80005518:	1a d8       	st.w	--sp,r8
8000551a:	4d 6b       	lddpc	r11,80005670 <main+0x4fc>
8000551c:	08 9c       	mov	r12,r4
8000551e:	f0 1f 00 47 	mcall	80005638 <main+0x4c4>
					usart_write_line(USART,szBuffer);
80005522:	08 9b       	mov	r11,r4
80005524:	fe 7c 18 00 	mov	r12,-59392
80005528:	f0 1f 00 4f 	mcall	80005664 <main+0x4f0>
8000552c:	2f ad       	sub	sp,-24
				}
			
				if(bSelectMagnetic)
8000552e:	4c 08       	lddpc	r8,8000562c <main+0x4b8>
80005530:	11 88       	ld.ub	r8,r8[0x0]
80005532:	58 08       	cp.w	r8,0
80005534:	c1 a0       	breq	80005568 <main+0x3f4>
				{
					//make Magnetic string
					sprintf(szBuffer,"[MXH]%02x[MXL]%02x[MYH]%02x[MYL]%02x[MZH]%02x[MZL]%02x",ak8975_data.x2,ak8975_data.x1,ak8975_data.y2,ak8975_data.y1,ak8975_data.z2,ak8975_data.z1);
80005536:	fa c4 ff f0 	sub	r4,sp,-16
8000553a:	4c f8       	lddpc	r8,80005674 <main+0x500>
8000553c:	11 c9       	ld.ub	r9,r8[0x4]
8000553e:	1a d9       	st.w	--sp,r9
80005540:	11 d9       	ld.ub	r9,r8[0x5]
80005542:	1a d9       	st.w	--sp,r9
80005544:	11 a9       	ld.ub	r9,r8[0x2]
80005546:	1a d9       	st.w	--sp,r9
80005548:	11 b9       	ld.ub	r9,r8[0x3]
8000554a:	1a d9       	st.w	--sp,r9
8000554c:	11 89       	ld.ub	r9,r8[0x0]
8000554e:	1a d9       	st.w	--sp,r9
80005550:	11 98       	ld.ub	r8,r8[0x1]
80005552:	1a d8       	st.w	--sp,r8
80005554:	4c 9b       	lddpc	r11,80005678 <main+0x504>
80005556:	08 9c       	mov	r12,r4
80005558:	f0 1f 00 38 	mcall	80005638 <main+0x4c4>
					usart_write_line(USART,szBuffer);
8000555c:	08 9b       	mov	r11,r4
8000555e:	fe 7c 18 00 	mov	r12,-59392
80005562:	f0 1f 00 41 	mcall	80005664 <main+0x4f0>
80005566:	2f ad       	sub	sp,-24
				}
				
				usart_write_line(USART,"\r\n");
80005568:	4c 5b       	lddpc	r11,8000567c <main+0x508>
8000556a:	fe 7c 18 00 	mov	r12,-59392
8000556e:	f0 1f 00 3e 	mcall	80005664 <main+0x4f0>
				usart_write_line(USART,"\eE\r\n");
80005572:	4c 4b       	lddpc	r11,80005680 <main+0x50c>
80005574:	fe 7c 18 00 	mov	r12,-59392
80005578:	f0 1f 00 3b 	mcall	80005664 <main+0x4f0>
			

				if(!g_bDataSendRepeat)
8000557c:	4a 98       	lddpc	r8,80005620 <main+0x4ac>
8000557e:	11 88       	ld.ub	r8,r8[0x0]
80005580:	58 08       	cp.w	r8,0
80005582:	fe 91 fe 5a 	brne	80005236 <main+0xc2>
				{
					//is Repeat Send?
					bServerSend=false;
80005586:	4a b8       	lddpc	r8,80005630 <main+0x4bc>
80005588:	b0 86       	st.b	r8[0x0],r6
					bSelectAccel=false;
8000558a:	4a 78       	lddpc	r8,80005624 <main+0x4b0>
8000558c:	b0 86       	st.b	r8[0x0],r6
					bSelectGyro=false;
8000558e:	4a 78       	lddpc	r8,80005628 <main+0x4b4>
80005590:	b0 86       	st.b	r8[0x0],r6
					bSelectMagnetic=false;
80005592:	4a 78       	lddpc	r8,8000562c <main+0x4b8>
80005594:	b0 86       	st.b	r8[0x0],r6
80005596:	fe 9f fe 50 	bral	80005236 <main+0xc2>
8000559a:	00 00       	add	r0,r0
8000559c:	80 00       	ld.sh	r0,r0[0x0]
8000559e:	5a 64       	cp.w	r4,-26
800055a0:	80 00       	ld.sh	r0,r0[0x0]
800055a2:	28 e4       	sub	r4,-114
800055a4:	80 00       	ld.sh	r0,r0[0x0]
800055a6:	3c 90       	mov	r0,-55
800055a8:	80 00       	ld.sh	r0,r0[0x0]
800055aa:	25 98       	sub	r8,89
800055ac:	80 00       	ld.sh	r0,r0[0x0]
800055ae:	3b 90       	mov	r0,-71
800055b0:	80 00       	ld.sh	r0,r0[0x0]
800055b2:	25 78       	sub	r8,87
800055b4:	80 00       	ld.sh	r0,r0[0x0]
800055b6:	25 5c       	sub	r12,85
800055b8:	80 00       	ld.sh	r0,r0[0x0]
800055ba:	4a b8       	lddpc	r8,80005664 <main+0x4f0>
800055bc:	80 00       	ld.sh	r0,r0[0x0]
800055be:	4e fc       	lddpc	r12,80005778 <__avr32_udiv64+0xf0>
800055c0:	80 00       	ld.sh	r0,r0[0x0]
800055c2:	28 64       	sub	r4,-122
800055c4:	80 00       	ld.sh	r0,r0[0x0]
800055c6:	4f c8       	lddpc	r8,800057b4 <__avr32_udiv64+0x12c>
800055c8:	80 00       	ld.sh	r0,r0[0x0]
800055ca:	50 f4       	stdsp	sp[0x3c],r4
800055cc:	80 00       	ld.sh	r0,r0[0x0]
800055ce:	51 2c       	stdsp	sp[0x48],r12
800055d0:	80 00       	ld.sh	r0,r0[0x0]
800055d2:	50 ac       	stdsp	sp[0x28],r12
800055d4:	80 00       	ld.sh	r0,r0[0x0]
800055d6:	50 98       	stdsp	sp[0x24],r8
800055d8:	00 00       	add	r0,r0
800055da:	0d 11       	ld.sh	r1,r6++
800055dc:	80 00       	ld.sh	r0,r0[0x0]
800055de:	56 88       	stdsp	sp[0x1a0],r8
800055e0:	00 00       	add	r0,r0
800055e2:	00 e6       	st.h	--r0,r6
800055e4:	00 00       	add	r0,r0
800055e6:	0f 20       	ld.uh	r0,r7++
800055e8:	00 00       	add	r0,r0
800055ea:	0c f0       	st.b	--r6,r0
800055ec:	80 00       	ld.sh	r0,r0[0x0]
800055ee:	25 fc       	sub	r12,95
800055f0:	80 00       	ld.sh	r0,r0[0x0]
800055f2:	4c 24       	lddpc	r4,800056f8 <__avr32_udiv64+0x70>
800055f4:	00 00       	add	r0,r0
800055f6:	0d 10       	ld.sh	r0,r6++
800055f8:	00 00       	add	r0,r0
800055fa:	0f 28       	ld.uh	r8,r7++
800055fc:	00 00       	add	r0,r0
800055fe:	0c 58       	eor	r8,r6
80005600:	80 00       	ld.sh	r0,r0[0x0]
80005602:	59 1c       	cp.w	r12,17
80005604:	80 00       	ld.sh	r0,r0[0x0]
80005606:	59 10       	cp.w	r0,17
80005608:	00 00       	add	r0,r0
8000560a:	0f 24       	ld.uh	r4,r7++
8000560c:	00 00       	add	r0,r0
8000560e:	0c e0       	st.h	--r6,r0
80005610:	00 00       	add	r0,r0
80005612:	0c d8       	st.w	--r6,r8
80005614:	00 00       	add	r0,r0
80005616:	0c ec       	st.h	--r6,r12
80005618:	00 00       	add	r0,r0
8000561a:	0c e8       	st.h	--r6,r8
8000561c:	00 00       	add	r0,r0
8000561e:	0f 8e       	ld.ub	lr,r7[0x0]
80005620:	00 00       	add	r0,r0
80005622:	0c e5       	st.h	--r6,r5
80005624:	00 00       	add	r0,r0
80005626:	0c e4       	st.h	--r6,r4
80005628:	00 00       	add	r0,r0
8000562a:	0c dc       	st.w	--r6,r12
8000562c:	00 00       	add	r0,r0
8000562e:	0c 56       	eor	r6,r6
80005630:	00 00       	add	r0,r0
80005632:	0d 18       	ld.sh	r8,r6++
80005634:	80 00       	ld.sh	r0,r0[0x0]
80005636:	b5 8c       	lsr	r12,0x14
80005638:	80 00       	ld.sh	r0,r0[0x0]
8000563a:	5a 74       	cp.w	r4,-25
8000563c:	80 00       	ld.sh	r0,r0[0x0]
8000563e:	4c 00       	lddpc	r0,8000573c <__avr32_udiv64+0xb4>
80005640:	00 00       	add	r0,r0
80005642:	00 e4       	st.h	--r0,r4
80005644:	00 00       	add	r0,r0
80005646:	0f 88       	ld.ub	r8,r7[0x0]
80005648:	80 00       	ld.sh	r0,r0[0x0]
8000564a:	50 10       	stdsp	sp[0x4],r0
8000564c:	00 00       	add	r0,r0
8000564e:	0f 92       	ld.ub	r2,r7[0x1]
80005650:	00 00       	add	r0,r0
80005652:	0d 14       	ld.sh	r4,r6++
80005654:	00 00       	add	r0,r0
80005656:	00 e5       	st.h	--r0,r5
80005658:	00 00       	add	r0,r0
8000565a:	0f 1c       	ld.sh	r12,r7++
8000565c:	00 00       	add	r0,r0
8000565e:	0d 1c       	ld.sh	r12,r6++
80005660:	80 00       	ld.sh	r0,r0[0x0]
80005662:	b5 a4       	sbr	r4,0x14
80005664:	80 00       	ld.sh	r0,r0[0x0]
80005666:	2a 30       	sub	r0,-93
80005668:	00 00       	add	r0,r0
8000566a:	00 e8       	st.h	--r0,r8
8000566c:	80 00       	ld.sh	r0,r0[0x0]
8000566e:	b5 b0       	sbr	r0,0x15
80005670:	80 00       	ld.sh	r0,r0[0x0]
80005672:	b5 cc       	cbr	r12,0x14
80005674:	00 00       	add	r0,r0
80005676:	0f 7c       	ld.ub	r12,--r7
80005678:	80 00       	ld.sh	r0,r0[0x0]
8000567a:	b6 04       	st.h	r11[0x0],r4
8000567c:	80 00       	ld.sh	r0,r0[0x0]
8000567e:	b5 88       	lsr	r8,0x14
80005680:	80 00       	ld.sh	r0,r0[0x0]
80005682:	b6 3c       	st.h	r11[0x6],r12

80005684 <uart_rx_notify>:
	if (USART->imr & AVR32_USART_IER_RXRDY_MASK) {
		// Enable UART TX interrupt to send a new value
		USART->ier = AVR32_USART_IER_TXRDY_MASK;
	}
#endif
}
80005684:	5e fc       	retal	r12

80005686 <uart_config>:
	USART->idr = 0xFFFFFFFF;
	usart_init_rs232(USART, &usart_options, sysclk_get_pba_hz());
	// Restore both RX and TX
	USART->ier = imr;
#endif
}
80005686:	5e fc       	retal	r12

80005688 <__avr32_udiv64>:
80005688:	d4 31       	pushm	r0-r7,lr
8000568a:	1a 97       	mov	r7,sp
8000568c:	20 2d       	sub	sp,8
8000568e:	10 9c       	mov	r12,r8
80005690:	12 9e       	mov	lr,r9
80005692:	14 93       	mov	r3,r10
80005694:	58 09       	cp.w	r9,0
80005696:	e0 81 00 cd 	brne	80005830 <__avr32_udiv64+0x1a8>
8000569a:	16 38       	cp.w	r8,r11
8000569c:	e0 88 00 45 	brls	80005726 <__avr32_udiv64+0x9e>
800056a0:	f0 08 12 00 	clz	r8,r8
800056a4:	c0 d0       	breq	800056be <__avr32_udiv64+0x36>
800056a6:	f6 08 09 4b 	lsl	r11,r11,r8
800056aa:	f0 09 11 20 	rsub	r9,r8,32
800056ae:	f8 08 09 4c 	lsl	r12,r12,r8
800056b2:	f4 09 0a 49 	lsr	r9,r10,r9
800056b6:	f4 08 09 43 	lsl	r3,r10,r8
800056ba:	f3 eb 10 0b 	or	r11,r9,r11
800056be:	f8 0e 16 10 	lsr	lr,r12,0x10
800056c2:	f5 dc c0 10 	bfextu	r10,r12,0x0,0x10
800056c6:	f6 0e 0d 00 	divu	r0,r11,lr
800056ca:	e6 0b 16 10 	lsr	r11,r3,0x10
800056ce:	00 99       	mov	r9,r0
800056d0:	f7 e1 11 0b 	or	r11,r11,r1<<0x10
800056d4:	e0 0a 02 48 	mul	r8,r0,r10
800056d8:	10 3b       	cp.w	r11,r8
800056da:	c0 d2       	brcc	800056f4 <__avr32_udiv64+0x6c>
800056dc:	20 19       	sub	r9,1
800056de:	18 0b       	add	r11,r12
800056e0:	18 3b       	cp.w	r11,r12
800056e2:	c0 93       	brcs	800056f4 <__avr32_udiv64+0x6c>
800056e4:	f2 c5 00 01 	sub	r5,r9,1
800056e8:	f6 0c 00 06 	add	r6,r11,r12
800056ec:	10 3b       	cp.w	r11,r8
800056ee:	c0 32       	brcc	800056f4 <__avr32_udiv64+0x6c>
800056f0:	0a 99       	mov	r9,r5
800056f2:	0c 9b       	mov	r11,r6
800056f4:	f6 08 01 01 	sub	r1,r11,r8
800056f8:	e7 d3 c0 10 	bfextu	r3,r3,0x0,0x10
800056fc:	e2 0e 0d 00 	divu	r0,r1,lr
80005700:	e7 e1 11 03 	or	r3,r3,r1<<0x10
80005704:	00 98       	mov	r8,r0
80005706:	e0 0a 02 4a 	mul	r10,r0,r10
8000570a:	14 33       	cp.w	r3,r10
8000570c:	c0 a2       	brcc	80005720 <__avr32_udiv64+0x98>
8000570e:	20 18       	sub	r8,1
80005710:	18 03       	add	r3,r12
80005712:	18 33       	cp.w	r3,r12
80005714:	c0 63       	brcs	80005720 <__avr32_udiv64+0x98>
80005716:	f0 cb 00 01 	sub	r11,r8,1
8000571a:	14 33       	cp.w	r3,r10
8000571c:	f6 08 17 30 	movlo	r8,r11
80005720:	f1 e9 11 08 	or	r8,r8,r9<<0x10
80005724:	ce c8       	rjmp	800058fc <__avr32_udiv64+0x274>
80005726:	58 08       	cp.w	r8,0
80005728:	c0 51       	brne	80005732 <__avr32_udiv64+0xaa>
8000572a:	30 19       	mov	r9,1
8000572c:	f2 08 0d 08 	divu	r8,r9,r8
80005730:	10 9c       	mov	r12,r8
80005732:	f8 06 12 00 	clz	r6,r12
80005736:	c0 41       	brne	8000573e <__avr32_udiv64+0xb6>
80005738:	18 1b       	sub	r11,r12
8000573a:	30 19       	mov	r9,1
8000573c:	c4 68       	rjmp	800057c8 <__avr32_udiv64+0x140>
8000573e:	ec 01 11 20 	rsub	r1,r6,32
80005742:	f4 01 0a 49 	lsr	r9,r10,r1
80005746:	f8 06 09 4c 	lsl	r12,r12,r6
8000574a:	f6 06 09 48 	lsl	r8,r11,r6
8000574e:	f6 01 0a 41 	lsr	r1,r11,r1
80005752:	f3 e8 10 08 	or	r8,r9,r8
80005756:	f8 03 16 10 	lsr	r3,r12,0x10
8000575a:	eb dc c0 10 	bfextu	r5,r12,0x0,0x10
8000575e:	e2 03 0d 00 	divu	r0,r1,r3
80005762:	f0 0b 16 10 	lsr	r11,r8,0x10
80005766:	00 9e       	mov	lr,r0
80005768:	f7 e1 11 0b 	or	r11,r11,r1<<0x10
8000576c:	e0 05 02 49 	mul	r9,r0,r5
80005770:	12 3b       	cp.w	r11,r9
80005772:	c0 d2       	brcc	8000578c <__avr32_udiv64+0x104>
80005774:	20 1e       	sub	lr,1
80005776:	18 0b       	add	r11,r12
80005778:	18 3b       	cp.w	r11,r12
8000577a:	c0 93       	brcs	8000578c <__avr32_udiv64+0x104>
8000577c:	fc c1 00 01 	sub	r1,lr,1
80005780:	f6 0c 00 02 	add	r2,r11,r12
80005784:	12 3b       	cp.w	r11,r9
80005786:	c0 32       	brcc	8000578c <__avr32_udiv64+0x104>
80005788:	02 9e       	mov	lr,r1
8000578a:	04 9b       	mov	r11,r2
8000578c:	12 1b       	sub	r11,r9
8000578e:	f1 d8 c0 10 	bfextu	r8,r8,0x0,0x10
80005792:	f6 03 0d 02 	divu	r2,r11,r3
80005796:	f1 e3 11 08 	or	r8,r8,r3<<0x10
8000579a:	04 99       	mov	r9,r2
8000579c:	e4 05 02 4b 	mul	r11,r2,r5
800057a0:	16 38       	cp.w	r8,r11
800057a2:	c0 d2       	brcc	800057bc <__avr32_udiv64+0x134>
800057a4:	20 19       	sub	r9,1
800057a6:	18 08       	add	r8,r12
800057a8:	18 38       	cp.w	r8,r12
800057aa:	c0 93       	brcs	800057bc <__avr32_udiv64+0x134>
800057ac:	f2 c3 00 01 	sub	r3,r9,1
800057b0:	f0 0c 00 05 	add	r5,r8,r12
800057b4:	16 38       	cp.w	r8,r11
800057b6:	c0 32       	brcc	800057bc <__avr32_udiv64+0x134>
800057b8:	06 99       	mov	r9,r3
800057ba:	0a 98       	mov	r8,r5
800057bc:	f4 06 09 43 	lsl	r3,r10,r6
800057c0:	f0 0b 01 0b 	sub	r11,r8,r11
800057c4:	f3 ee 11 09 	or	r9,r9,lr<<0x10
800057c8:	f8 06 16 10 	lsr	r6,r12,0x10
800057cc:	fd dc c0 10 	bfextu	lr,r12,0x0,0x10
800057d0:	f6 06 0d 00 	divu	r0,r11,r6
800057d4:	e6 0b 16 10 	lsr	r11,r3,0x10
800057d8:	00 9a       	mov	r10,r0
800057da:	f7 e1 11 0b 	or	r11,r11,r1<<0x10
800057de:	e0 0e 02 48 	mul	r8,r0,lr
800057e2:	10 3b       	cp.w	r11,r8
800057e4:	c0 d2       	brcc	800057fe <__avr32_udiv64+0x176>
800057e6:	20 1a       	sub	r10,1
800057e8:	18 0b       	add	r11,r12
800057ea:	18 3b       	cp.w	r11,r12
800057ec:	c0 93       	brcs	800057fe <__avr32_udiv64+0x176>
800057ee:	f4 c2 00 01 	sub	r2,r10,1
800057f2:	f6 0c 00 05 	add	r5,r11,r12
800057f6:	10 3b       	cp.w	r11,r8
800057f8:	c0 32       	brcc	800057fe <__avr32_udiv64+0x176>
800057fa:	04 9a       	mov	r10,r2
800057fc:	0a 9b       	mov	r11,r5
800057fe:	f6 08 01 01 	sub	r1,r11,r8
80005802:	e7 d3 c0 10 	bfextu	r3,r3,0x0,0x10
80005806:	e2 06 0d 00 	divu	r0,r1,r6
8000580a:	e7 e1 11 03 	or	r3,r3,r1<<0x10
8000580e:	00 98       	mov	r8,r0
80005810:	e0 0e 02 4b 	mul	r11,r0,lr
80005814:	16 33       	cp.w	r3,r11
80005816:	c0 a2       	brcc	8000582a <__avr32_udiv64+0x1a2>
80005818:	20 18       	sub	r8,1
8000581a:	18 03       	add	r3,r12
8000581c:	18 33       	cp.w	r3,r12
8000581e:	c0 63       	brcs	8000582a <__avr32_udiv64+0x1a2>
80005820:	f0 cc 00 01 	sub	r12,r8,1
80005824:	16 33       	cp.w	r3,r11
80005826:	f8 08 17 30 	movlo	r8,r12
8000582a:	f1 ea 11 08 	or	r8,r8,r10<<0x10
8000582e:	c6 b8       	rjmp	80005904 <__avr32_udiv64+0x27c>
80005830:	16 39       	cp.w	r9,r11
80005832:	e0 8b 00 67 	brhi	80005900 <__avr32_udiv64+0x278>
80005836:	f2 09 12 00 	clz	r9,r9
8000583a:	c0 b1       	brne	80005850 <__avr32_udiv64+0x1c8>
8000583c:	10 3a       	cp.w	r10,r8
8000583e:	5f 2a       	srhs	r10
80005840:	1c 3b       	cp.w	r11,lr
80005842:	5f b8       	srhi	r8
80005844:	10 4a       	or	r10,r8
80005846:	f2 0a 18 00 	cp.b	r10,r9
8000584a:	c5 b0       	breq	80005900 <__avr32_udiv64+0x278>
8000584c:	30 18       	mov	r8,1
8000584e:	c5 b8       	rjmp	80005904 <__avr32_udiv64+0x27c>
80005850:	f2 03 11 20 	rsub	r3,r9,32
80005854:	fc 09 09 4e 	lsl	lr,lr,r9
80005858:	f6 09 09 4c 	lsl	r12,r11,r9
8000585c:	f4 03 0a 42 	lsr	r2,r10,r3
80005860:	f0 09 09 46 	lsl	r6,r8,r9
80005864:	f0 03 0a 48 	lsr	r8,r8,r3
80005868:	f6 03 0a 43 	lsr	r3,r11,r3
8000586c:	18 42       	or	r2,r12
8000586e:	f1 ee 10 0c 	or	r12,r8,lr
80005872:	f8 01 16 10 	lsr	r1,r12,0x10
80005876:	fd dc c0 10 	bfextu	lr,r12,0x0,0x10
8000587a:	e6 01 0d 04 	divu	r4,r3,r1
8000587e:	e4 03 16 10 	lsr	r3,r2,0x10
80005882:	08 98       	mov	r8,r4
80005884:	e7 e5 11 03 	or	r3,r3,r5<<0x10
80005888:	e8 0e 02 45 	mul	r5,r4,lr
8000588c:	0a 33       	cp.w	r3,r5
8000588e:	c0 d2       	brcc	800058a8 <__avr32_udiv64+0x220>
80005890:	20 18       	sub	r8,1
80005892:	18 03       	add	r3,r12
80005894:	18 33       	cp.w	r3,r12
80005896:	c0 93       	brcs	800058a8 <__avr32_udiv64+0x220>
80005898:	f0 c0 00 01 	sub	r0,r8,1
8000589c:	e6 0c 00 0b 	add	r11,r3,r12
800058a0:	0a 33       	cp.w	r3,r5
800058a2:	c0 32       	brcc	800058a8 <__avr32_udiv64+0x220>
800058a4:	00 98       	mov	r8,r0
800058a6:	16 93       	mov	r3,r11
800058a8:	0a 13       	sub	r3,r5
800058aa:	f7 d2 c0 10 	bfextu	r11,r2,0x0,0x10
800058ae:	e6 01 0d 00 	divu	r0,r3,r1
800058b2:	f7 e1 11 0b 	or	r11,r11,r1<<0x10
800058b6:	00 93       	mov	r3,r0
800058b8:	e0 0e 02 4e 	mul	lr,r0,lr
800058bc:	1c 3b       	cp.w	r11,lr
800058be:	c0 d2       	brcc	800058d8 <__avr32_udiv64+0x250>
800058c0:	20 13       	sub	r3,1
800058c2:	18 0b       	add	r11,r12
800058c4:	18 3b       	cp.w	r11,r12
800058c6:	c0 93       	brcs	800058d8 <__avr32_udiv64+0x250>
800058c8:	f6 0c 00 0c 	add	r12,r11,r12
800058cc:	e6 c5 00 01 	sub	r5,r3,1
800058d0:	1c 3b       	cp.w	r11,lr
800058d2:	c0 32       	brcc	800058d8 <__avr32_udiv64+0x250>
800058d4:	0a 93       	mov	r3,r5
800058d6:	18 9b       	mov	r11,r12
800058d8:	e7 e8 11 08 	or	r8,r3,r8<<0x10
800058dc:	1c 1b       	sub	r11,lr
800058de:	f0 06 06 42 	mulu.d	r2,r8,r6
800058e2:	06 96       	mov	r6,r3
800058e4:	16 36       	cp.w	r6,r11
800058e6:	e0 8b 00 0a 	brhi	800058fa <__avr32_udiv64+0x272>
800058ea:	5f 0b       	sreq	r11
800058ec:	f4 09 09 49 	lsl	r9,r10,r9
800058f0:	12 32       	cp.w	r2,r9
800058f2:	5f b9       	srhi	r9
800058f4:	f7 e9 00 09 	and	r9,r11,r9
800058f8:	c0 60       	breq	80005904 <__avr32_udiv64+0x27c>
800058fa:	20 18       	sub	r8,1
800058fc:	30 09       	mov	r9,0
800058fe:	c0 38       	rjmp	80005904 <__avr32_udiv64+0x27c>
80005900:	30 09       	mov	r9,0
80005902:	12 98       	mov	r8,r9
80005904:	10 9a       	mov	r10,r8
80005906:	12 93       	mov	r3,r9
80005908:	10 92       	mov	r2,r8
8000590a:	12 9b       	mov	r11,r9
8000590c:	2f ed       	sub	sp,-8
8000590e:	d8 32       	popm	r0-r7,pc

80005910 <atoi>:
80005910:	d4 01       	pushm	lr
80005912:	30 aa       	mov	r10,10
80005914:	30 0b       	mov	r11,0
80005916:	c6 bd       	rcall	80005bec <strtol>
80005918:	d8 02       	popm	pc
8000591a:	d7 03       	nop

8000591c <memcpy>:
8000591c:	58 8a       	cp.w	r10,8
8000591e:	c2 f5       	brlt	8000597c <memcpy+0x60>
80005920:	f9 eb 10 09 	or	r9,r12,r11
80005924:	e2 19 00 03 	andl	r9,0x3,COH
80005928:	e0 81 00 97 	brne	80005a56 <memcpy+0x13a>
8000592c:	e0 4a 00 20 	cp.w	r10,32
80005930:	c3 b4       	brge	800059a6 <memcpy+0x8a>
80005932:	f4 08 14 02 	asr	r8,r10,0x2
80005936:	f0 09 11 08 	rsub	r9,r8,8
8000593a:	fe 09 00 2f 	add	pc,pc,r9<<0x2
8000593e:	76 69       	ld.w	r9,r11[0x18]
80005940:	99 69       	st.w	r12[0x18],r9
80005942:	76 59       	ld.w	r9,r11[0x14]
80005944:	99 59       	st.w	r12[0x14],r9
80005946:	76 49       	ld.w	r9,r11[0x10]
80005948:	99 49       	st.w	r12[0x10],r9
8000594a:	76 39       	ld.w	r9,r11[0xc]
8000594c:	99 39       	st.w	r12[0xc],r9
8000594e:	76 29       	ld.w	r9,r11[0x8]
80005950:	99 29       	st.w	r12[0x8],r9
80005952:	76 19       	ld.w	r9,r11[0x4]
80005954:	99 19       	st.w	r12[0x4],r9
80005956:	76 09       	ld.w	r9,r11[0x0]
80005958:	99 09       	st.w	r12[0x0],r9
8000595a:	f6 08 00 2b 	add	r11,r11,r8<<0x2
8000595e:	f8 08 00 28 	add	r8,r12,r8<<0x2
80005962:	e0 1a 00 03 	andl	r10,0x3
80005966:	f4 0a 11 04 	rsub	r10,r10,4
8000596a:	fe 0a 00 2f 	add	pc,pc,r10<<0x2
8000596e:	17 a9       	ld.ub	r9,r11[0x2]
80005970:	b0 a9       	st.b	r8[0x2],r9
80005972:	17 99       	ld.ub	r9,r11[0x1]
80005974:	b0 99       	st.b	r8[0x1],r9
80005976:	17 89       	ld.ub	r9,r11[0x0]
80005978:	b0 89       	st.b	r8[0x0],r9
8000597a:	5e fc       	retal	r12
8000597c:	f4 0a 11 09 	rsub	r10,r10,9
80005980:	fe 0a 00 2f 	add	pc,pc,r10<<0x2
80005984:	17 f9       	ld.ub	r9,r11[0x7]
80005986:	b8 f9       	st.b	r12[0x7],r9
80005988:	17 e9       	ld.ub	r9,r11[0x6]
8000598a:	b8 e9       	st.b	r12[0x6],r9
8000598c:	17 d9       	ld.ub	r9,r11[0x5]
8000598e:	b8 d9       	st.b	r12[0x5],r9
80005990:	17 c9       	ld.ub	r9,r11[0x4]
80005992:	b8 c9       	st.b	r12[0x4],r9
80005994:	17 b9       	ld.ub	r9,r11[0x3]
80005996:	b8 b9       	st.b	r12[0x3],r9
80005998:	17 a9       	ld.ub	r9,r11[0x2]
8000599a:	b8 a9       	st.b	r12[0x2],r9
8000599c:	17 99       	ld.ub	r9,r11[0x1]
8000599e:	b8 99       	st.b	r12[0x1],r9
800059a0:	17 89       	ld.ub	r9,r11[0x0]
800059a2:	b8 89       	st.b	r12[0x0],r9
800059a4:	5e fc       	retal	r12
800059a6:	eb cd 40 c0 	pushm	r6-r7,lr
800059aa:	18 99       	mov	r9,r12
800059ac:	22 0a       	sub	r10,32
800059ae:	b7 07       	ld.d	r6,r11++
800059b0:	b3 26       	st.d	r9++,r6
800059b2:	b7 07       	ld.d	r6,r11++
800059b4:	b3 26       	st.d	r9++,r6
800059b6:	b7 07       	ld.d	r6,r11++
800059b8:	b3 26       	st.d	r9++,r6
800059ba:	b7 07       	ld.d	r6,r11++
800059bc:	b3 26       	st.d	r9++,r6
800059be:	22 0a       	sub	r10,32
800059c0:	cf 74       	brge	800059ae <memcpy+0x92>
800059c2:	2f 0a       	sub	r10,-16
800059c4:	c0 65       	brlt	800059d0 <memcpy+0xb4>
800059c6:	b7 07       	ld.d	r6,r11++
800059c8:	b3 26       	st.d	r9++,r6
800059ca:	b7 07       	ld.d	r6,r11++
800059cc:	b3 26       	st.d	r9++,r6
800059ce:	21 0a       	sub	r10,16
800059d0:	5c 3a       	neg	r10
800059d2:	fe 0a 00 3f 	add	pc,pc,r10<<0x3
800059d6:	d7 03       	nop
800059d8:	d7 03       	nop
800059da:	f7 36 00 0e 	ld.ub	r6,r11[14]
800059de:	f3 66 00 0e 	st.b	r9[14],r6
800059e2:	f7 36 00 0d 	ld.ub	r6,r11[13]
800059e6:	f3 66 00 0d 	st.b	r9[13],r6
800059ea:	f7 36 00 0c 	ld.ub	r6,r11[12]
800059ee:	f3 66 00 0c 	st.b	r9[12],r6
800059f2:	f7 36 00 0b 	ld.ub	r6,r11[11]
800059f6:	f3 66 00 0b 	st.b	r9[11],r6
800059fa:	f7 36 00 0a 	ld.ub	r6,r11[10]
800059fe:	f3 66 00 0a 	st.b	r9[10],r6
80005a02:	f7 36 00 09 	ld.ub	r6,r11[9]
80005a06:	f3 66 00 09 	st.b	r9[9],r6
80005a0a:	f7 36 00 08 	ld.ub	r6,r11[8]
80005a0e:	f3 66 00 08 	st.b	r9[8],r6
80005a12:	f7 36 00 07 	ld.ub	r6,r11[7]
80005a16:	f3 66 00 07 	st.b	r9[7],r6
80005a1a:	f7 36 00 06 	ld.ub	r6,r11[6]
80005a1e:	f3 66 00 06 	st.b	r9[6],r6
80005a22:	f7 36 00 05 	ld.ub	r6,r11[5]
80005a26:	f3 66 00 05 	st.b	r9[5],r6
80005a2a:	f7 36 00 04 	ld.ub	r6,r11[4]
80005a2e:	f3 66 00 04 	st.b	r9[4],r6
80005a32:	f7 36 00 03 	ld.ub	r6,r11[3]
80005a36:	f3 66 00 03 	st.b	r9[3],r6
80005a3a:	f7 36 00 02 	ld.ub	r6,r11[2]
80005a3e:	f3 66 00 02 	st.b	r9[2],r6
80005a42:	f7 36 00 01 	ld.ub	r6,r11[1]
80005a46:	f3 66 00 01 	st.b	r9[1],r6
80005a4a:	f7 36 00 00 	ld.ub	r6,r11[0]
80005a4e:	f3 66 00 00 	st.b	r9[0],r6
80005a52:	e3 cd 80 c0 	ldm	sp++,r6-r7,pc
80005a56:	20 1a       	sub	r10,1
80005a58:	f6 0a 07 09 	ld.ub	r9,r11[r10]
80005a5c:	f8 0a 0b 09 	st.b	r12[r10],r9
80005a60:	cf b1       	brne	80005a56 <memcpy+0x13a>
80005a62:	5e fc       	retal	r12

80005a64 <memset>:
80005a64:	18 98       	mov	r8,r12
80005a66:	c0 38       	rjmp	80005a6c <memset+0x8>
80005a68:	10 cb       	st.b	r8++,r11
80005a6a:	20 1a       	sub	r10,1
80005a6c:	58 0a       	cp.w	r10,0
80005a6e:	cf d1       	brne	80005a68 <memset+0x4>
80005a70:	5e fc       	retal	r12
80005a72:	d7 03       	nop

80005a74 <sprintf>:
80005a74:	d4 01       	pushm	lr
80005a76:	21 7d       	sub	sp,92
80005a78:	e0 68 ff ff 	mov	r8,65535
80005a7c:	ea 18 7f ff 	orh	r8,0x7fff
80005a80:	50 58       	stdsp	sp[0x14],r8
80005a82:	50 28       	stdsp	sp[0x8],r8
80005a84:	e0 68 02 08 	mov	r8,520
80005a88:	ba 68       	st.h	sp[0xc],r8
80005a8a:	3f f8       	mov	r8,-1
80005a8c:	ba 78       	st.h	sp[0xe],r8
80005a8e:	e0 68 01 e4 	mov	r8,484
80005a92:	50 4c       	stdsp	sp[0x10],r12
80005a94:	16 9a       	mov	r10,r11
80005a96:	50 0c       	stdsp	sp[0x0],r12
80005a98:	fa c9 ff a0 	sub	r9,sp,-96
80005a9c:	70 0c       	ld.w	r12,r8[0x0]
80005a9e:	1a 9b       	mov	r11,sp
80005aa0:	e0 a0 02 48 	rcall	80005f30 <_vfprintf_r>
80005aa4:	30 09       	mov	r9,0
80005aa6:	40 08       	lddsp	r8,sp[0x0]
80005aa8:	b0 89       	st.b	r8[0x0],r9
80005aaa:	2e 9d       	sub	sp,-92
80005aac:	d8 02       	popm	pc
80005aae:	d7 03       	nop

80005ab0 <_strtol_r>:
80005ab0:	d4 31       	pushm	r0-r7,lr
80005ab2:	20 3d       	sub	sp,12
80005ab4:	e0 68 00 f0 	mov	r8,240
80005ab8:	50 2c       	stdsp	sp[0x8],r12
80005aba:	70 01       	ld.w	r1,r8[0x0]
80005abc:	16 98       	mov	r8,r11
80005abe:	11 3e       	ld.ub	lr,r8++
80005ac0:	e2 0e 07 06 	ld.ub	r6,r1[lr]
80005ac4:	e2 16 00 08 	andl	r6,0x8,COH
80005ac8:	cf b1       	brne	80005abe <_strtol_r+0xe>
80005aca:	e0 4e 00 2d 	cp.w	lr,45
80005ace:	c0 41       	brne	80005ad6 <_strtol_r+0x26>
80005ad0:	11 3e       	ld.ub	lr,r8++
80005ad2:	30 16       	mov	r6,1
80005ad4:	c0 58       	rjmp	80005ade <_strtol_r+0x2e>
80005ad6:	e0 4e 00 2b 	cp.w	lr,43
80005ada:	c0 21       	brne	80005ade <_strtol_r+0x2e>
80005adc:	11 3e       	ld.ub	lr,r8++
80005ade:	58 09       	cp.w	r9,0
80005ae0:	5f 0c       	sreq	r12
80005ae2:	59 09       	cp.w	r9,16
80005ae4:	5f 05       	sreq	r5
80005ae6:	30 07       	mov	r7,0
80005ae8:	f9 e5 10 05 	or	r5,r12,r5
80005aec:	ee 05 18 00 	cp.b	r5,r7
80005af0:	c1 e0       	breq	80005b2c <_strtol_r+0x7c>
80005af2:	e0 4e 00 30 	cp.w	lr,48
80005af6:	c1 31       	brne	80005b1c <_strtol_r+0x6c>
80005af8:	11 85       	ld.ub	r5,r8[0x0]
80005afa:	35 84       	mov	r4,88
80005afc:	37 83       	mov	r3,120
80005afe:	e8 05 18 00 	cp.b	r5,r4
80005b02:	5f 04       	sreq	r4
80005b04:	e6 05 18 00 	cp.b	r5,r3
80005b08:	5f 05       	sreq	r5
80005b0a:	e9 e5 10 05 	or	r5,r4,r5
80005b0e:	ee 05 18 00 	cp.b	r5,r7
80005b12:	c0 50       	breq	80005b1c <_strtol_r+0x6c>
80005b14:	11 9e       	ld.ub	lr,r8[0x1]
80005b16:	31 09       	mov	r9,16
80005b18:	2f e8       	sub	r8,-2
80005b1a:	c0 98       	rjmp	80005b2c <_strtol_r+0x7c>
80005b1c:	58 0c       	cp.w	r12,0
80005b1e:	c0 70       	breq	80005b2c <_strtol_r+0x7c>
80005b20:	e0 4e 00 30 	cp.w	lr,48
80005b24:	f9 b9 00 08 	moveq	r9,8
80005b28:	f9 b9 01 0a 	movne	r9,10
80005b2c:	e0 6c ff ff 	mov	r12,65535
80005b30:	ea 1c 7f ff 	orh	r12,0x7fff
80005b34:	30 07       	mov	r7,0
80005b36:	30 05       	mov	r5,0
80005b38:	ea 15 80 00 	orh	r5,0x8000
80005b3c:	0e 93       	mov	r3,r7
80005b3e:	0e 36       	cp.w	r6,r7
80005b40:	f8 05 17 00 	moveq	r5,r12
80005b44:	0e 9c       	mov	r12,r7
80005b46:	ea 09 0d 04 	divu	r4,r5,r9
80005b4a:	08 92       	mov	r2,r4
80005b4c:	50 05       	stdsp	sp[0x0],r5
80005b4e:	e2 0e 07 04 	ld.ub	r4,r1[lr]
80005b52:	e1 d4 c0 01 	bfextu	r0,r4,0x0,0x1
80005b56:	f9 b0 01 37 	movne	r0,55
80005b5a:	f9 b0 00 57 	moveq	r0,87
80005b5e:	50 10       	stdsp	sp[0x4],r0
80005b60:	fc c5 00 30 	sub	r5,lr,48
80005b64:	08 90       	mov	r0,r4
80005b66:	e2 10 00 04 	andl	r0,0x4,COH
80005b6a:	c0 81       	brne	80005b7a <_strtol_r+0xca>
80005b6c:	40 10       	lddsp	r0,sp[0x4]
80005b6e:	e9 d4 c0 02 	bfextu	r4,r4,0x0,0x2
80005b72:	fc 00 01 05 	sub	r5,lr,r0
80005b76:	58 04       	cp.w	r4,0
80005b78:	c1 c0       	breq	80005bb0 <_strtol_r+0x100>
80005b7a:	12 35       	cp.w	r5,r9
80005b7c:	c1 a4       	brge	80005bb0 <_strtol_r+0x100>
80005b7e:	04 3c       	cp.w	r12,r2
80005b80:	5f be       	srhi	lr
80005b82:	fd e7 13 fe 	or	lr,lr,r7>>0x1f
80005b86:	e6 0e 18 00 	cp.b	lr,r3
80005b8a:	c1 01       	brne	80005baa <_strtol_r+0xfa>
80005b8c:	04 3c       	cp.w	r12,r2
80005b8e:	5f 0e       	sreq	lr
80005b90:	40 07       	lddsp	r7,sp[0x0]
80005b92:	0e 35       	cp.w	r5,r7
80005b94:	5f 97       	srgt	r7
80005b96:	ef ee 00 0e 	and	lr,r7,lr
80005b9a:	e6 0e 18 00 	cp.b	lr,r3
80005b9e:	c0 61       	brne	80005baa <_strtol_r+0xfa>
80005ba0:	b3 3c       	mul	r12,r9
80005ba2:	30 17       	mov	r7,1
80005ba4:	ea 0c 00 0c 	add	r12,r5,r12
80005ba8:	c0 28       	rjmp	80005bac <_strtol_r+0xfc>
80005baa:	3f f7       	mov	r7,-1
80005bac:	11 3e       	ld.ub	lr,r8++
80005bae:	cd 0b       	rjmp	80005b4e <_strtol_r+0x9e>
80005bb0:	5b f7       	cp.w	r7,-1
80005bb2:	c0 f1       	brne	80005bd0 <_strtol_r+0x120>
80005bb4:	e0 69 ff ff 	mov	r9,65535
80005bb8:	ea 19 7f ff 	orh	r9,0x7fff
80005bbc:	30 0c       	mov	r12,0
80005bbe:	ea 1c 80 00 	orh	r12,0x8000
80005bc2:	40 20       	lddsp	r0,sp[0x8]
80005bc4:	58 06       	cp.w	r6,0
80005bc6:	f2 0c 17 00 	moveq	r12,r9
80005bca:	32 29       	mov	r9,34
80005bcc:	81 39       	st.w	r0[0xc],r9
80005bce:	c0 68       	rjmp	80005bda <_strtol_r+0x12a>
80005bd0:	f8 09 11 00 	rsub	r9,r12,0
80005bd4:	58 06       	cp.w	r6,0
80005bd6:	f2 0c 17 10 	movne	r12,r9
80005bda:	58 0a       	cp.w	r10,0
80005bdc:	c0 60       	breq	80005be8 <_strtol_r+0x138>
80005bde:	20 18       	sub	r8,1
80005be0:	58 07       	cp.w	r7,0
80005be2:	f0 0b 17 10 	movne	r11,r8
80005be6:	95 0b       	st.w	r10[0x0],r11
80005be8:	2f dd       	sub	sp,-12
80005bea:	d8 32       	popm	r0-r7,pc

80005bec <strtol>:
80005bec:	d4 01       	pushm	lr
80005bee:	e0 68 01 e4 	mov	r8,484
80005bf2:	14 99       	mov	r9,r10
80005bf4:	16 9a       	mov	r10,r11
80005bf6:	18 9b       	mov	r11,r12
80005bf8:	70 0c       	ld.w	r12,r8[0x0]
80005bfa:	c5 bf       	rcall	80005ab0 <_strtol_r>
80005bfc:	d8 02       	popm	pc
80005bfe:	d7 03       	nop

80005c00 <get_arg>:
80005c00:	d4 31       	pushm	r0-r7,lr
80005c02:	20 8d       	sub	sp,32
80005c04:	fa c4 ff bc 	sub	r4,sp,-68
80005c08:	50 4b       	stdsp	sp[0x10],r11
80005c0a:	68 2c       	ld.w	r12,r4[0x8]
80005c0c:	50 58       	stdsp	sp[0x14],r8
80005c0e:	12 96       	mov	r6,r9
80005c10:	78 0b       	ld.w	r11,r12[0x0]
80005c12:	70 05       	ld.w	r5,r8[0x0]
80005c14:	50 6c       	stdsp	sp[0x18],r12
80005c16:	58 0b       	cp.w	r11,0
80005c18:	f4 0b 17 00 	moveq	r11,r10
80005c1c:	68 03       	ld.w	r3,r4[0x0]
80005c1e:	68 11       	ld.w	r1,r4[0x4]
80005c20:	40 49       	lddsp	r9,sp[0x10]
80005c22:	30 08       	mov	r8,0
80005c24:	c2 89       	rjmp	80005e74 <get_arg+0x274>
80005c26:	2f fb       	sub	r11,-1
80005c28:	17 8a       	ld.ub	r10,r11[0x0]
80005c2a:	32 52       	mov	r2,37
80005c2c:	f0 0a 18 00 	cp.b	r10,r8
80005c30:	5f 1c       	srne	r12
80005c32:	e4 0a 18 00 	cp.b	r10,r2
80005c36:	5f 1e       	srne	lr
80005c38:	fd ec 00 0c 	and	r12,lr,r12
80005c3c:	f0 0c 18 00 	cp.b	r12,r8
80005c40:	cf 31       	brne	80005c26 <get_arg+0x26>
80005c42:	58 0a       	cp.w	r10,0
80005c44:	e0 80 01 25 	breq	80005e8e <get_arg+0x28e>
80005c48:	30 0c       	mov	r12,0
80005c4a:	3f fa       	mov	r10,-1
80005c4c:	18 90       	mov	r0,r12
80005c4e:	50 3a       	stdsp	sp[0xc],r10
80005c50:	18 94       	mov	r4,r12
80005c52:	18 92       	mov	r2,r12
80005c54:	f8 0c 00 3c 	add	r12,r12,r12<<0x3
80005c58:	16 97       	mov	r7,r11
80005c5a:	50 7c       	stdsp	sp[0x1c],r12
80005c5c:	fe cc a3 34 	sub	r12,pc,-23756
80005c60:	0f 3e       	ld.ub	lr,r7++
80005c62:	f8 0e 07 0a 	ld.ub	r10,r12[lr]
80005c66:	40 7c       	lddsp	r12,sp[0x1c]
80005c68:	14 0c       	add	r12,r10
80005c6a:	fe ca a4 0a 	sub	r10,pc,-23542
80005c6e:	f4 0c 07 0a 	ld.ub	r10,r10[r12]
80005c72:	20 1a       	sub	r10,1
80005c74:	50 0a       	stdsp	sp[0x0],r10
80005c76:	fe ca a4 82 	sub	r10,pc,-23422
80005c7a:	f4 0c 07 0c 	ld.ub	r12,r10[r12]
80005c7e:	50 7c       	stdsp	sp[0x1c],r12
80005c80:	40 0c       	lddsp	r12,sp[0x0]
80005c82:	58 7c       	cp.w	r12,7
80005c84:	e0 8b 00 f1 	brhi	80005e66 <get_arg+0x266>
80005c88:	fe ca a6 34 	sub	r10,pc,-22988
80005c8c:	f4 0c 03 2f 	ld.w	pc,r10[r12<<0x2]
80005c90:	36 8a       	mov	r10,104
80005c92:	f4 0e 18 00 	cp.b	lr,r10
80005c96:	e0 80 00 e8 	breq	80005e66 <get_arg+0x266>
80005c9a:	37 1a       	mov	r10,113
80005c9c:	f4 0e 18 00 	cp.b	lr,r10
80005ca0:	c0 70       	breq	80005cae <get_arg+0xae>
80005ca2:	34 ca       	mov	r10,76
80005ca4:	f4 0e 18 00 	cp.b	lr,r10
80005ca8:	c0 51       	brne	80005cb2 <get_arg+0xb2>
80005caa:	a3 b4       	sbr	r4,0x3
80005cac:	cd d8       	rjmp	80005e66 <get_arg+0x266>
80005cae:	a5 b4       	sbr	r4,0x5
80005cb0:	cd b8       	rjmp	80005e66 <get_arg+0x266>
80005cb2:	08 9c       	mov	r12,r4
80005cb4:	0e 9a       	mov	r10,r7
80005cb6:	a5 ac       	sbr	r12,0x4
80005cb8:	a5 b4       	sbr	r4,0x5
80005cba:	0f 3b       	ld.ub	r11,r7++
80005cbc:	36 ce       	mov	lr,108
80005cbe:	fc 0b 18 00 	cp.b	r11,lr
80005cc2:	e0 80 00 d2 	breq	80005e66 <get_arg+0x266>
80005cc6:	18 94       	mov	r4,r12
80005cc8:	14 9b       	mov	r11,r10
80005cca:	cc f8       	rjmp	80005e68 <get_arg+0x268>
80005ccc:	eb d5 c0 05 	bfextu	r5,r5,0x0,0x5
80005cd0:	36 7c       	mov	r12,103
80005cd2:	f8 0e 18 00 	cp.b	lr,r12
80005cd6:	e0 8b 00 27 	brhi	80005d24 <get_arg+0x124>
80005cda:	36 5a       	mov	r10,101
80005cdc:	f4 0e 18 00 	cp.b	lr,r10
80005ce0:	c4 82       	brcc	80005d70 <get_arg+0x170>
80005ce2:	34 fa       	mov	r10,79
80005ce4:	f4 0e 18 00 	cp.b	lr,r10
80005ce8:	c4 80       	breq	80005d78 <get_arg+0x178>
80005cea:	e0 8b 00 0c 	brhi	80005d02 <get_arg+0x102>
80005cee:	34 5a       	mov	r10,69
80005cf0:	f4 0e 18 00 	cp.b	lr,r10
80005cf4:	c3 e0       	breq	80005d70 <get_arg+0x170>
80005cf6:	34 7a       	mov	r10,71
80005cf8:	f4 0e 18 00 	cp.b	lr,r10
80005cfc:	c3 a0       	breq	80005d70 <get_arg+0x170>
80005cfe:	34 4a       	mov	r10,68
80005d00:	c0 88       	rjmp	80005d10 <get_arg+0x110>
80005d02:	35 8a       	mov	r10,88
80005d04:	f4 0e 18 00 	cp.b	lr,r10
80005d08:	c2 c0       	breq	80005d60 <get_arg+0x160>
80005d0a:	e0 8b 00 07 	brhi	80005d18 <get_arg+0x118>
80005d0e:	35 5a       	mov	r10,85
80005d10:	f4 0e 18 00 	cp.b	lr,r10
80005d14:	c3 51       	brne	80005d7e <get_arg+0x17e>
80005d16:	c3 18       	rjmp	80005d78 <get_arg+0x178>
80005d18:	36 3a       	mov	r10,99
80005d1a:	f4 0e 18 00 	cp.b	lr,r10
80005d1e:	c2 f0       	breq	80005d7c <get_arg+0x17c>
80005d20:	36 4a       	mov	r10,100
80005d22:	c0 e8       	rjmp	80005d3e <get_arg+0x13e>
80005d24:	37 0a       	mov	r10,112
80005d26:	f4 0e 18 00 	cp.b	lr,r10
80005d2a:	c2 50       	breq	80005d74 <get_arg+0x174>
80005d2c:	e0 8b 00 0d 	brhi	80005d46 <get_arg+0x146>
80005d30:	36 ea       	mov	r10,110
80005d32:	f4 0e 18 00 	cp.b	lr,r10
80005d36:	c1 f0       	breq	80005d74 <get_arg+0x174>
80005d38:	e0 8b 00 14 	brhi	80005d60 <get_arg+0x160>
80005d3c:	36 9a       	mov	r10,105
80005d3e:	f4 0e 18 00 	cp.b	lr,r10
80005d42:	c1 e1       	brne	80005d7e <get_arg+0x17e>
80005d44:	c0 e8       	rjmp	80005d60 <get_arg+0x160>
80005d46:	37 5a       	mov	r10,117
80005d48:	f4 0e 18 00 	cp.b	lr,r10
80005d4c:	c0 a0       	breq	80005d60 <get_arg+0x160>
80005d4e:	37 8a       	mov	r10,120
80005d50:	f4 0e 18 00 	cp.b	lr,r10
80005d54:	c0 60       	breq	80005d60 <get_arg+0x160>
80005d56:	37 3a       	mov	r10,115
80005d58:	f4 0e 18 00 	cp.b	lr,r10
80005d5c:	c1 11       	brne	80005d7e <get_arg+0x17e>
80005d5e:	c0 b8       	rjmp	80005d74 <get_arg+0x174>
80005d60:	ed b4 00 04 	bld	r4,0x4
80005d64:	c0 a0       	breq	80005d78 <get_arg+0x178>
80005d66:	ed b4 00 05 	bld	r4,0x5
80005d6a:	c0 91       	brne	80005d7c <get_arg+0x17c>
80005d6c:	30 20       	mov	r0,2
80005d6e:	c0 88       	rjmp	80005d7e <get_arg+0x17e>
80005d70:	30 40       	mov	r0,4
80005d72:	c0 68       	rjmp	80005d7e <get_arg+0x17e>
80005d74:	30 30       	mov	r0,3
80005d76:	c0 48       	rjmp	80005d7e <get_arg+0x17e>
80005d78:	30 10       	mov	r0,1
80005d7a:	c0 28       	rjmp	80005d7e <get_arg+0x17e>
80005d7c:	30 00       	mov	r0,0
80005d7e:	40 3b       	lddsp	r11,sp[0xc]
80005d80:	5b fb       	cp.w	r11,-1
80005d82:	c0 40       	breq	80005d8a <get_arg+0x18a>
80005d84:	e2 0b 09 20 	st.w	r1[r11<<0x2],r0
80005d88:	c6 f8       	rjmp	80005e66 <get_arg+0x266>
80005d8a:	58 60       	cp.w	r0,6
80005d8c:	e0 8b 00 6d 	brhi	80005e66 <get_arg+0x266>
80005d90:	6c 0a       	ld.w	r10,r6[0x0]
80005d92:	ea cc ff ff 	sub	r12,r5,-1
80005d96:	fe cb a7 22 	sub	r11,pc,-22750
80005d9a:	f6 00 03 2f 	ld.w	pc,r11[r0<<0x2]
80005d9e:	d7 03       	nop
80005da0:	f4 cb ff f8 	sub	r11,r10,-8
80005da4:	8d 0b       	st.w	r6[0x0],r11
80005da6:	f4 ea 00 00 	ld.d	r10,r10[0]
80005daa:	e6 05 08 3a 	st.d	r3[r5<<0x3],r10
80005dae:	c0 f8       	rjmp	80005dcc <get_arg+0x1cc>
80005db0:	f4 cb ff fc 	sub	r11,r10,-4
80005db4:	8d 0b       	st.w	r6[0x0],r11
80005db6:	74 0a       	ld.w	r10,r10[0x0]
80005db8:	e6 05 09 3a 	st.w	r3[r5<<0x3],r10
80005dbc:	c0 88       	rjmp	80005dcc <get_arg+0x1cc>
80005dbe:	f4 cb ff f8 	sub	r11,r10,-8
80005dc2:	8d 0b       	st.w	r6[0x0],r11
80005dc4:	f4 ea 00 00 	ld.d	r10,r10[0]
80005dc8:	e6 05 08 3a 	st.d	r3[r5<<0x3],r10
80005dcc:	0e 9b       	mov	r11,r7
80005dce:	18 95       	mov	r5,r12
80005dd0:	c4 c8       	rjmp	80005e68 <get_arg+0x268>
80005dd2:	62 0a       	ld.w	r10,r1[0x0]
80005dd4:	5b fa       	cp.w	r10,-1
80005dd6:	c0 a1       	brne	80005dea <get_arg+0x1ea>
80005dd8:	50 19       	stdsp	sp[0x4],r9
80005dda:	50 28       	stdsp	sp[0x8],r8
80005ddc:	e0 6a 00 80 	mov	r10,128
80005de0:	30 0b       	mov	r11,0
80005de2:	02 9c       	mov	r12,r1
80005de4:	c4 0e       	rcall	80005a64 <memset>
80005de6:	40 28       	lddsp	r8,sp[0x8]
80005de8:	40 19       	lddsp	r9,sp[0x4]
80005dea:	e4 ca 00 01 	sub	r10,r2,1
80005dee:	0e 9b       	mov	r11,r7
80005df0:	50 3a       	stdsp	sp[0xc],r10
80005df2:	f2 0a 0c 49 	max	r9,r9,r10
80005df6:	c3 98       	rjmp	80005e68 <get_arg+0x268>
80005df8:	62 0a       	ld.w	r10,r1[0x0]
80005dfa:	5b fa       	cp.w	r10,-1
80005dfc:	c0 a1       	brne	80005e10 <get_arg+0x210>
80005dfe:	50 19       	stdsp	sp[0x4],r9
80005e00:	50 28       	stdsp	sp[0x8],r8
80005e02:	e0 6a 00 80 	mov	r10,128
80005e06:	30 0b       	mov	r11,0
80005e08:	02 9c       	mov	r12,r1
80005e0a:	c2 de       	rcall	80005a64 <memset>
80005e0c:	40 28       	lddsp	r8,sp[0x8]
80005e0e:	40 19       	lddsp	r9,sp[0x4]
80005e10:	20 12       	sub	r2,1
80005e12:	30 0c       	mov	r12,0
80005e14:	0e 9b       	mov	r11,r7
80005e16:	e2 02 09 2c 	st.w	r1[r2<<0x2],r12
80005e1a:	f2 02 0c 49 	max	r9,r9,r2
80005e1e:	c2 58       	rjmp	80005e68 <get_arg+0x268>
80005e20:	16 97       	mov	r7,r11
80005e22:	6c 0a       	ld.w	r10,r6[0x0]
80005e24:	f4 cb ff fc 	sub	r11,r10,-4
80005e28:	8d 0b       	st.w	r6[0x0],r11
80005e2a:	74 0a       	ld.w	r10,r10[0x0]
80005e2c:	0e 9b       	mov	r11,r7
80005e2e:	e6 05 09 3a 	st.w	r3[r5<<0x3],r10
80005e32:	2f f5       	sub	r5,-1
80005e34:	c1 a8       	rjmp	80005e68 <get_arg+0x268>
80005e36:	fc c2 00 30 	sub	r2,lr,48
80005e3a:	c0 68       	rjmp	80005e46 <get_arg+0x246>
80005e3c:	e4 02 00 22 	add	r2,r2,r2<<0x2
80005e40:	2f f7       	sub	r7,-1
80005e42:	f4 02 00 12 	add	r2,r10,r2<<0x1
80005e46:	0f 8a       	ld.ub	r10,r7[0x0]
80005e48:	58 0a       	cp.w	r10,0
80005e4a:	c0 e0       	breq	80005e66 <get_arg+0x266>
80005e4c:	23 0a       	sub	r10,48
80005e4e:	58 9a       	cp.w	r10,9
80005e50:	fe 98 ff f6 	brls	80005e3c <get_arg+0x23c>
80005e54:	c0 98       	rjmp	80005e66 <get_arg+0x266>
80005e56:	2f f7       	sub	r7,-1
80005e58:	0f 8a       	ld.ub	r10,r7[0x0]
80005e5a:	58 0a       	cp.w	r10,0
80005e5c:	c0 50       	breq	80005e66 <get_arg+0x266>
80005e5e:	23 0a       	sub	r10,48
80005e60:	58 9a       	cp.w	r10,9
80005e62:	fe 98 ff fa 	brls	80005e56 <get_arg+0x256>
80005e66:	0e 9b       	mov	r11,r7
80005e68:	40 7c       	lddsp	r12,sp[0x1c]
80005e6a:	30 ba       	mov	r10,11
80005e6c:	f4 0c 18 00 	cp.b	r12,r10
80005e70:	fe 91 fe f2 	brne	80005c54 <get_arg+0x54>
80005e74:	40 4a       	lddsp	r10,sp[0x10]
80005e76:	17 8c       	ld.ub	r12,r11[0x0]
80005e78:	0a 3a       	cp.w	r10,r5
80005e7a:	5f 4a       	srge	r10
80005e7c:	f0 0c 18 00 	cp.b	r12,r8
80005e80:	5f 1c       	srne	r12
80005e82:	f9 ea 00 0a 	and	r10,r12,r10
80005e86:	f0 0a 18 00 	cp.b	r10,r8
80005e8a:	fe 91 fe cf 	brne	80005c28 <get_arg+0x28>
80005e8e:	30 08       	mov	r8,0
80005e90:	17 8a       	ld.ub	r10,r11[0x0]
80005e92:	40 42       	lddsp	r2,sp[0x10]
80005e94:	e2 05 00 21 	add	r1,r1,r5<<0x2
80005e98:	f0 0a 18 00 	cp.b	r10,r8
80005e9c:	e4 09 17 10 	movne	r9,r2
80005ea0:	06 9e       	mov	lr,r3
80005ea2:	e6 05 00 38 	add	r8,r3,r5<<0x3
80005ea6:	c2 a8       	rjmp	80005efa <get_arg+0x2fa>
80005ea8:	62 0a       	ld.w	r10,r1[0x0]
80005eaa:	58 3a       	cp.w	r10,3
80005eac:	c1 e0       	breq	80005ee8 <get_arg+0x2e8>
80005eae:	e0 89 00 07 	brgt	80005ebc <get_arg+0x2bc>
80005eb2:	58 1a       	cp.w	r10,1
80005eb4:	c1 a0       	breq	80005ee8 <get_arg+0x2e8>
80005eb6:	58 2a       	cp.w	r10,2
80005eb8:	c1 81       	brne	80005ee8 <get_arg+0x2e8>
80005eba:	c0 58       	rjmp	80005ec4 <get_arg+0x2c4>
80005ebc:	58 5a       	cp.w	r10,5
80005ebe:	c0 c0       	breq	80005ed6 <get_arg+0x2d6>
80005ec0:	c0 b5       	brlt	80005ed6 <get_arg+0x2d6>
80005ec2:	c1 38       	rjmp	80005ee8 <get_arg+0x2e8>
80005ec4:	6c 0a       	ld.w	r10,r6[0x0]
80005ec6:	f4 cc ff f8 	sub	r12,r10,-8
80005eca:	8d 0c       	st.w	r6[0x0],r12
80005ecc:	f4 e2 00 00 	ld.d	r2,r10[0]
80005ed0:	f0 e3 00 00 	st.d	r8[0],r2
80005ed4:	c1 08       	rjmp	80005ef4 <get_arg+0x2f4>
80005ed6:	6c 0a       	ld.w	r10,r6[0x0]
80005ed8:	f4 cc ff f8 	sub	r12,r10,-8
80005edc:	8d 0c       	st.w	r6[0x0],r12
80005ede:	f4 e2 00 00 	ld.d	r2,r10[0]
80005ee2:	f0 e3 00 00 	st.d	r8[0],r2
80005ee6:	c0 78       	rjmp	80005ef4 <get_arg+0x2f4>
80005ee8:	6c 0a       	ld.w	r10,r6[0x0]
80005eea:	f4 cc ff fc 	sub	r12,r10,-4
80005eee:	8d 0c       	st.w	r6[0x0],r12
80005ef0:	74 0a       	ld.w	r10,r10[0x0]
80005ef2:	91 0a       	st.w	r8[0x0],r10
80005ef4:	2f f5       	sub	r5,-1
80005ef6:	2f 88       	sub	r8,-8
80005ef8:	2f c1       	sub	r1,-4
80005efa:	12 35       	cp.w	r5,r9
80005efc:	fe 9a ff d6 	brle	80005ea8 <get_arg+0x2a8>
80005f00:	40 6c       	lddsp	r12,sp[0x18]
80005f02:	40 52       	lddsp	r2,sp[0x14]
80005f04:	99 0b       	st.w	r12[0x0],r11
80005f06:	1c 93       	mov	r3,lr
80005f08:	40 4b       	lddsp	r11,sp[0x10]
80005f0a:	85 05       	st.w	r2[0x0],r5
80005f0c:	fc 0b 00 3c 	add	r12,lr,r11<<0x3
80005f10:	2f 8d       	sub	sp,-32
80005f12:	d8 32       	popm	r0-r7,pc

80005f14 <__sprint_r>:
80005f14:	d4 21       	pushm	r4-r7,lr
80005f16:	14 97       	mov	r7,r10
80005f18:	74 28       	ld.w	r8,r10[0x8]
80005f1a:	58 08       	cp.w	r8,0
80005f1c:	c0 41       	brne	80005f24 <__sprint_r+0x10>
80005f1e:	95 18       	st.w	r10[0x4],r8
80005f20:	10 9c       	mov	r12,r8
80005f22:	d8 22       	popm	r4-r7,pc
80005f24:	e0 a0 18 c2 	rcall	800090a8 <__sfvwrite_r>
80005f28:	30 08       	mov	r8,0
80005f2a:	8f 18       	st.w	r7[0x4],r8
80005f2c:	8f 28       	st.w	r7[0x8],r8
80005f2e:	d8 22       	popm	r4-r7,pc

80005f30 <_vfprintf_r>:
80005f30:	d4 31       	pushm	r0-r7,lr
80005f32:	fa cd 06 bc 	sub	sp,sp,1724
80005f36:	51 09       	stdsp	sp[0x40],r9
80005f38:	16 91       	mov	r1,r11
80005f3a:	14 97       	mov	r7,r10
80005f3c:	18 95       	mov	r5,r12
80005f3e:	e0 a0 1a 27 	rcall	8000938c <_localeconv_r>
80005f42:	78 0c       	ld.w	r12,r12[0x0]
80005f44:	50 cc       	stdsp	sp[0x30],r12
80005f46:	58 05       	cp.w	r5,0
80005f48:	c0 70       	breq	80005f56 <_vfprintf_r+0x26>
80005f4a:	6a 68       	ld.w	r8,r5[0x18]
80005f4c:	58 08       	cp.w	r8,0
80005f4e:	c0 41       	brne	80005f56 <_vfprintf_r+0x26>
80005f50:	0a 9c       	mov	r12,r5
80005f52:	e0 a0 17 4d 	rcall	80008dec <__sinit>
80005f56:	fe c8 a4 1a 	sub	r8,pc,-23526
80005f5a:	10 31       	cp.w	r1,r8
80005f5c:	c0 31       	brne	80005f62 <_vfprintf_r+0x32>
80005f5e:	6a 01       	ld.w	r1,r5[0x0]
80005f60:	c0 c8       	rjmp	80005f78 <_vfprintf_r+0x48>
80005f62:	fe c8 a4 06 	sub	r8,pc,-23546
80005f66:	10 31       	cp.w	r1,r8
80005f68:	c0 31       	brne	80005f6e <_vfprintf_r+0x3e>
80005f6a:	6a 11       	ld.w	r1,r5[0x4]
80005f6c:	c0 68       	rjmp	80005f78 <_vfprintf_r+0x48>
80005f6e:	fe c8 a3 f2 	sub	r8,pc,-23566
80005f72:	10 31       	cp.w	r1,r8
80005f74:	c0 21       	brne	80005f78 <_vfprintf_r+0x48>
80005f76:	6a 21       	ld.w	r1,r5[0x8]
80005f78:	82 68       	ld.sh	r8,r1[0xc]
80005f7a:	ed b8 00 03 	bld	r8,0x3
80005f7e:	c0 41       	brne	80005f86 <_vfprintf_r+0x56>
80005f80:	62 48       	ld.w	r8,r1[0x10]
80005f82:	58 08       	cp.w	r8,0
80005f84:	c0 71       	brne	80005f92 <_vfprintf_r+0x62>
80005f86:	02 9b       	mov	r11,r1
80005f88:	0a 9c       	mov	r12,r5
80005f8a:	e0 a0 0f 61 	rcall	80007e4c <__swsetup_r>
80005f8e:	e0 81 0f 58 	brne	80007e3e <_vfprintf_r+0x1f0e>
80005f92:	82 68       	ld.sh	r8,r1[0xc]
80005f94:	10 99       	mov	r9,r8
80005f96:	e2 19 00 1a 	andl	r9,0x1a,COH
80005f9a:	58 a9       	cp.w	r9,10
80005f9c:	c3 c1       	brne	80006014 <_vfprintf_r+0xe4>
80005f9e:	82 79       	ld.sh	r9,r1[0xe]
80005fa0:	30 0a       	mov	r10,0
80005fa2:	f4 09 19 00 	cp.h	r9,r10
80005fa6:	c3 75       	brlt	80006014 <_vfprintf_r+0xe4>
80005fa8:	a1 d8       	cbr	r8,0x1
80005faa:	fb 58 05 d0 	st.h	sp[1488],r8
80005fae:	62 88       	ld.w	r8,r1[0x20]
80005fb0:	fb 48 05 e4 	st.w	sp[1508],r8
80005fb4:	62 a8       	ld.w	r8,r1[0x28]
80005fb6:	fb 48 05 ec 	st.w	sp[1516],r8
80005fba:	fa c8 ff bc 	sub	r8,sp,-68
80005fbe:	fb 48 05 d4 	st.w	sp[1492],r8
80005fc2:	fb 48 05 c4 	st.w	sp[1476],r8
80005fc6:	e0 68 04 00 	mov	r8,1024
80005fca:	fb 48 05 d8 	st.w	sp[1496],r8
80005fce:	fb 48 05 cc 	st.w	sp[1484],r8
80005fd2:	30 08       	mov	r8,0
80005fd4:	fb 59 05 d2 	st.h	sp[1490],r9
80005fd8:	0e 9a       	mov	r10,r7
80005fda:	41 09       	lddsp	r9,sp[0x40]
80005fdc:	fa c7 fa 3c 	sub	r7,sp,-1476
80005fe0:	fb 48 05 dc 	st.w	sp[1500],r8
80005fe4:	0a 9c       	mov	r12,r5
80005fe6:	0e 9b       	mov	r11,r7
80005fe8:	ca 4f       	rcall	80005f30 <_vfprintf_r>
80005fea:	50 bc       	stdsp	sp[0x2c],r12
80005fec:	c0 95       	brlt	80005ffe <_vfprintf_r+0xce>
80005fee:	0e 9b       	mov	r11,r7
80005ff0:	0a 9c       	mov	r12,r5
80005ff2:	e0 a0 16 27 	rcall	80008c40 <_fflush_r>
80005ff6:	40 be       	lddsp	lr,sp[0x2c]
80005ff8:	f9 be 01 ff 	movne	lr,-1
80005ffc:	50 be       	stdsp	sp[0x2c],lr
80005ffe:	fb 08 05 d0 	ld.sh	r8,sp[1488]
80006002:	ed b8 00 06 	bld	r8,0x6
80006006:	e0 81 0f 1e 	brne	80007e42 <_vfprintf_r+0x1f12>
8000600a:	82 68       	ld.sh	r8,r1[0xc]
8000600c:	a7 a8       	sbr	r8,0x6
8000600e:	a2 68       	st.h	r1[0xc],r8
80006010:	e0 8f 0f 19 	bral	80007e42 <_vfprintf_r+0x1f12>
80006014:	30 08       	mov	r8,0
80006016:	fb 48 06 b4 	st.w	sp[1716],r8
8000601a:	fb 48 06 90 	st.w	sp[1680],r8
8000601e:	fb 48 06 8c 	st.w	sp[1676],r8
80006022:	fb 48 06 b0 	st.w	sp[1712],r8
80006026:	30 08       	mov	r8,0
80006028:	30 09       	mov	r9,0
8000602a:	50 a7       	stdsp	sp[0x28],r7
8000602c:	50 78       	stdsp	sp[0x1c],r8
8000602e:	fa c3 f9 e0 	sub	r3,sp,-1568
80006032:	3f f8       	mov	r8,-1
80006034:	50 59       	stdsp	sp[0x14],r9
80006036:	fb 43 06 88 	st.w	sp[1672],r3
8000603a:	fb 48 05 44 	st.w	sp[1348],r8
8000603e:	50 69       	stdsp	sp[0x18],r9
80006040:	50 d9       	stdsp	sp[0x34],r9
80006042:	50 e9       	stdsp	sp[0x38],r9
80006044:	50 b9       	stdsp	sp[0x2c],r9
80006046:	12 97       	mov	r7,r9
80006048:	0a 94       	mov	r4,r5
8000604a:	40 a2       	lddsp	r2,sp[0x28]
8000604c:	32 5a       	mov	r10,37
8000604e:	30 08       	mov	r8,0
80006050:	c0 28       	rjmp	80006054 <_vfprintf_r+0x124>
80006052:	2f f2       	sub	r2,-1
80006054:	05 89       	ld.ub	r9,r2[0x0]
80006056:	f0 09 18 00 	cp.b	r9,r8
8000605a:	5f 1b       	srne	r11
8000605c:	f4 09 18 00 	cp.b	r9,r10
80006060:	5f 19       	srne	r9
80006062:	f3 eb 00 0b 	and	r11,r9,r11
80006066:	f0 0b 18 00 	cp.b	r11,r8
8000606a:	cf 41       	brne	80006052 <_vfprintf_r+0x122>
8000606c:	40 ab       	lddsp	r11,sp[0x28]
8000606e:	e4 0b 01 06 	sub	r6,r2,r11
80006072:	c1 f0       	breq	800060b0 <_vfprintf_r+0x180>
80006074:	fa f8 06 90 	ld.w	r8,sp[1680]
80006078:	0c 08       	add	r8,r6
8000607a:	87 0b       	st.w	r3[0x0],r11
8000607c:	fb 48 06 90 	st.w	sp[1680],r8
80006080:	87 16       	st.w	r3[0x4],r6
80006082:	fa f8 06 8c 	ld.w	r8,sp[1676]
80006086:	2f f8       	sub	r8,-1
80006088:	fb 48 06 8c 	st.w	sp[1676],r8
8000608c:	58 78       	cp.w	r8,7
8000608e:	e0 89 00 05 	brgt	80006098 <_vfprintf_r+0x168>
80006092:	2f 83       	sub	r3,-8
80006094:	c0 b8       	rjmp	800060aa <_vfprintf_r+0x17a>
80006096:	d7 03       	nop
80006098:	fa ca f9 78 	sub	r10,sp,-1672
8000609c:	02 9b       	mov	r11,r1
8000609e:	08 9c       	mov	r12,r4
800060a0:	c3 af       	rcall	80005f14 <__sprint_r>
800060a2:	e0 81 0e ca 	brne	80007e36 <_vfprintf_r+0x1f06>
800060a6:	fa c3 f9 e0 	sub	r3,sp,-1568
800060aa:	40 ba       	lddsp	r10,sp[0x2c]
800060ac:	0c 0a       	add	r10,r6
800060ae:	50 ba       	stdsp	sp[0x2c],r10
800060b0:	05 89       	ld.ub	r9,r2[0x0]
800060b2:	30 08       	mov	r8,0
800060b4:	f0 09 18 00 	cp.b	r9,r8
800060b8:	e0 80 0e ae 	breq	80007e14 <_vfprintf_r+0x1ee4>
800060bc:	e4 c6 ff ff 	sub	r6,r2,-1
800060c0:	30 09       	mov	r9,0
800060c2:	50 a6       	stdsp	sp[0x28],r6
800060c4:	fb 68 06 bb 	st.b	sp[1723],r8
800060c8:	0e 96       	mov	r6,r7
800060ca:	3f f8       	mov	r8,-1
800060cc:	50 93       	stdsp	sp[0x24],r3
800060ce:	50 41       	stdsp	sp[0x10],r1
800060d0:	0e 93       	mov	r3,r7
800060d2:	04 91       	mov	r1,r2
800060d4:	50 89       	stdsp	sp[0x20],r9
800060d6:	50 28       	stdsp	sp[0x8],r8
800060d8:	50 39       	stdsp	sp[0xc],r9
800060da:	12 95       	mov	r5,r9
800060dc:	12 90       	mov	r0,r9
800060de:	40 a7       	lddsp	r7,sp[0x28]
800060e0:	08 92       	mov	r2,r4
800060e2:	c0 78       	rjmp	800060f0 <_vfprintf_r+0x1c0>
800060e4:	3f fe       	mov	lr,-1
800060e6:	08 97       	mov	r7,r4
800060e8:	50 2e       	stdsp	sp[0x8],lr
800060ea:	c0 38       	rjmp	800060f0 <_vfprintf_r+0x1c0>
800060ec:	30 0c       	mov	r12,0
800060ee:	50 3c       	stdsp	sp[0xc],r12
800060f0:	0f 38       	ld.ub	r8,r7++
800060f2:	c0 28       	rjmp	800060f6 <_vfprintf_r+0x1c6>
800060f4:	12 90       	mov	r0,r9
800060f6:	f0 c9 00 20 	sub	r9,r8,32
800060fa:	e0 49 00 58 	cp.w	r9,88
800060fe:	e0 8b 0a 3b 	brhi	80007574 <_vfprintf_r+0x1644>
80006102:	fe cb aa 72 	sub	r11,pc,-21902
80006106:	f6 09 03 2f 	ld.w	pc,r11[r9<<0x2]
8000610a:	50 a7       	stdsp	sp[0x28],r7
8000610c:	50 80       	stdsp	sp[0x20],r0
8000610e:	0c 97       	mov	r7,r6
80006110:	04 94       	mov	r4,r2
80006112:	06 96       	mov	r6,r3
80006114:	02 92       	mov	r2,r1
80006116:	fe ca a8 4a 	sub	r10,pc,-22454
8000611a:	40 93       	lddsp	r3,sp[0x24]
8000611c:	10 90       	mov	r0,r8
8000611e:	40 41       	lddsp	r1,sp[0x10]
80006120:	50 da       	stdsp	sp[0x34],r10
80006122:	e0 8f 08 9c 	bral	8000725a <_vfprintf_r+0x132a>
80006126:	30 08       	mov	r8,0
80006128:	fb 39 06 bb 	ld.ub	r9,sp[1723]
8000612c:	f0 09 18 00 	cp.b	r9,r8
80006130:	ce 01       	brne	800060f0 <_vfprintf_r+0x1c0>
80006132:	32 08       	mov	r8,32
80006134:	c6 e8       	rjmp	80006210 <_vfprintf_r+0x2e0>
80006136:	a1 a5       	sbr	r5,0x0
80006138:	cd cb       	rjmp	800060f0 <_vfprintf_r+0x1c0>
8000613a:	0f 89       	ld.ub	r9,r7[0x0]
8000613c:	f2 c8 00 30 	sub	r8,r9,48
80006140:	58 98       	cp.w	r8,9
80006142:	e0 8b 00 1d 	brhi	8000617c <_vfprintf_r+0x24c>
80006146:	ee c8 ff ff 	sub	r8,r7,-1
8000614a:	30 0b       	mov	r11,0
8000614c:	23 09       	sub	r9,48
8000614e:	f6 0b 00 2b 	add	r11,r11,r11<<0x2
80006152:	f2 0b 00 1b 	add	r11,r9,r11<<0x1
80006156:	11 39       	ld.ub	r9,r8++
80006158:	f2 ca 00 30 	sub	r10,r9,48
8000615c:	58 9a       	cp.w	r10,9
8000615e:	fe 98 ff f7 	brls	8000614c <_vfprintf_r+0x21c>
80006162:	e0 49 00 24 	cp.w	r9,36
80006166:	cc 31       	brne	800060ec <_vfprintf_r+0x1bc>
80006168:	e0 4b 00 20 	cp.w	r11,32
8000616c:	e0 89 0e 64 	brgt	80007e34 <_vfprintf_r+0x1f04>
80006170:	20 1b       	sub	r11,1
80006172:	fa f9 06 b4 	ld.w	r9,sp[1716]
80006176:	12 3b       	cp.w	r11,r9
80006178:	c0 95       	brlt	8000618a <_vfprintf_r+0x25a>
8000617a:	c1 08       	rjmp	8000619a <_vfprintf_r+0x26a>
8000617c:	fa f9 06 b4 	ld.w	r9,sp[1716]
80006180:	ec ca ff ff 	sub	r10,r6,-1
80006184:	12 36       	cp.w	r6,r9
80006186:	c1 f5       	brlt	800061c4 <_vfprintf_r+0x294>
80006188:	c2 68       	rjmp	800061d4 <_vfprintf_r+0x2a4>
8000618a:	fa c9 f9 44 	sub	r9,sp,-1724
8000618e:	10 97       	mov	r7,r8
80006190:	f2 0b 00 3b 	add	r11,r9,r11<<0x3
80006194:	f6 f0 fd 88 	ld.w	r0,r11[-632]
80006198:	c3 58       	rjmp	80006202 <_vfprintf_r+0x2d2>
8000619a:	10 97       	mov	r7,r8
8000619c:	fa c8 f9 50 	sub	r8,sp,-1712
800061a0:	1a d8       	st.w	--sp,r8
800061a2:	fa c8 fa b8 	sub	r8,sp,-1352
800061a6:	1a d8       	st.w	--sp,r8
800061a8:	fa c8 fb b4 	sub	r8,sp,-1100
800061ac:	02 9a       	mov	r10,r1
800061ae:	1a d8       	st.w	--sp,r8
800061b0:	04 9c       	mov	r12,r2
800061b2:	fa c8 f9 40 	sub	r8,sp,-1728
800061b6:	fa c9 ff b4 	sub	r9,sp,-76
800061ba:	fe b0 fd 23 	rcall	80005c00 <get_arg>
800061be:	2f dd       	sub	sp,-12
800061c0:	78 00       	ld.w	r0,r12[0x0]
800061c2:	c2 08       	rjmp	80006202 <_vfprintf_r+0x2d2>
800061c4:	fa ce f9 44 	sub	lr,sp,-1724
800061c8:	14 96       	mov	r6,r10
800061ca:	fc 03 00 38 	add	r8,lr,r3<<0x3
800061ce:	f0 f0 fd 88 	ld.w	r0,r8[-632]
800061d2:	c1 88       	rjmp	80006202 <_vfprintf_r+0x2d2>
800061d4:	41 08       	lddsp	r8,sp[0x40]
800061d6:	59 f9       	cp.w	r9,31
800061d8:	e0 89 00 11 	brgt	800061fa <_vfprintf_r+0x2ca>
800061dc:	f0 cb ff fc 	sub	r11,r8,-4
800061e0:	51 0b       	stdsp	sp[0x40],r11
800061e2:	70 00       	ld.w	r0,r8[0x0]
800061e4:	fa cc f9 44 	sub	r12,sp,-1724
800061e8:	f8 09 00 38 	add	r8,r12,r9<<0x3
800061ec:	f1 40 fd 88 	st.w	r8[-632],r0
800061f0:	2f f9       	sub	r9,-1
800061f2:	14 96       	mov	r6,r10
800061f4:	fb 49 06 b4 	st.w	sp[1716],r9
800061f8:	c0 58       	rjmp	80006202 <_vfprintf_r+0x2d2>
800061fa:	70 00       	ld.w	r0,r8[0x0]
800061fc:	14 96       	mov	r6,r10
800061fe:	2f c8       	sub	r8,-4
80006200:	51 08       	stdsp	sp[0x40],r8
80006202:	58 00       	cp.w	r0,0
80006204:	fe 94 ff 76 	brge	800060f0 <_vfprintf_r+0x1c0>
80006208:	5c 30       	neg	r0
8000620a:	a3 a5       	sbr	r5,0x2
8000620c:	c7 2b       	rjmp	800060f0 <_vfprintf_r+0x1c0>
8000620e:	32 b8       	mov	r8,43
80006210:	fb 68 06 bb 	st.b	sp[1723],r8
80006214:	c6 eb       	rjmp	800060f0 <_vfprintf_r+0x1c0>
80006216:	0f 38       	ld.ub	r8,r7++
80006218:	e0 48 00 2a 	cp.w	r8,42
8000621c:	c0 30       	breq	80006222 <_vfprintf_r+0x2f2>
8000621e:	30 09       	mov	r9,0
80006220:	c7 98       	rjmp	80006312 <_vfprintf_r+0x3e2>
80006222:	0f 88       	ld.ub	r8,r7[0x0]
80006224:	f0 c9 00 30 	sub	r9,r8,48
80006228:	58 99       	cp.w	r9,9
8000622a:	e0 8b 00 1f 	brhi	80006268 <_vfprintf_r+0x338>
8000622e:	ee c4 ff ff 	sub	r4,r7,-1
80006232:	30 0b       	mov	r11,0
80006234:	23 08       	sub	r8,48
80006236:	f6 0b 00 2b 	add	r11,r11,r11<<0x2
8000623a:	f0 0b 00 1b 	add	r11,r8,r11<<0x1
8000623e:	09 38       	ld.ub	r8,r4++
80006240:	f0 c9 00 30 	sub	r9,r8,48
80006244:	58 99       	cp.w	r9,9
80006246:	fe 98 ff f7 	brls	80006234 <_vfprintf_r+0x304>
8000624a:	e0 48 00 24 	cp.w	r8,36
8000624e:	fe 91 ff 4f 	brne	800060ec <_vfprintf_r+0x1bc>
80006252:	e0 4b 00 20 	cp.w	r11,32
80006256:	e0 89 0d ef 	brgt	80007e34 <_vfprintf_r+0x1f04>
8000625a:	20 1b       	sub	r11,1
8000625c:	fa f8 06 b4 	ld.w	r8,sp[1716]
80006260:	10 3b       	cp.w	r11,r8
80006262:	c0 a5       	brlt	80006276 <_vfprintf_r+0x346>
80006264:	c1 18       	rjmp	80006286 <_vfprintf_r+0x356>
80006266:	d7 03       	nop
80006268:	fa fa 06 b4 	ld.w	r10,sp[1716]
8000626c:	ec c9 ff ff 	sub	r9,r6,-1
80006270:	14 36       	cp.w	r6,r10
80006272:	c1 f5       	brlt	800062b0 <_vfprintf_r+0x380>
80006274:	c2 88       	rjmp	800062c4 <_vfprintf_r+0x394>
80006276:	fa ca f9 44 	sub	r10,sp,-1724
8000627a:	f4 0b 00 3b 	add	r11,r10,r11<<0x3
8000627e:	f6 fb fd 88 	ld.w	r11,r11[-632]
80006282:	50 2b       	stdsp	sp[0x8],r11
80006284:	c3 c8       	rjmp	800062fc <_vfprintf_r+0x3cc>
80006286:	fa c8 f9 50 	sub	r8,sp,-1712
8000628a:	1a d8       	st.w	--sp,r8
8000628c:	fa c8 fa b8 	sub	r8,sp,-1352
80006290:	1a d8       	st.w	--sp,r8
80006292:	fa c8 fb b4 	sub	r8,sp,-1100
80006296:	02 9a       	mov	r10,r1
80006298:	1a d8       	st.w	--sp,r8
8000629a:	04 9c       	mov	r12,r2
8000629c:	fa c8 f9 40 	sub	r8,sp,-1728
800062a0:	fa c9 ff b4 	sub	r9,sp,-76
800062a4:	fe b0 fc ae 	rcall	80005c00 <get_arg>
800062a8:	2f dd       	sub	sp,-12
800062aa:	78 0c       	ld.w	r12,r12[0x0]
800062ac:	50 2c       	stdsp	sp[0x8],r12
800062ae:	c2 78       	rjmp	800062fc <_vfprintf_r+0x3cc>
800062b0:	12 96       	mov	r6,r9
800062b2:	0e 94       	mov	r4,r7
800062b4:	fa c9 f9 44 	sub	r9,sp,-1724
800062b8:	f2 03 00 38 	add	r8,r9,r3<<0x3
800062bc:	f0 f8 fd 88 	ld.w	r8,r8[-632]
800062c0:	50 28       	stdsp	sp[0x8],r8
800062c2:	c1 d8       	rjmp	800062fc <_vfprintf_r+0x3cc>
800062c4:	41 08       	lddsp	r8,sp[0x40]
800062c6:	59 fa       	cp.w	r10,31
800062c8:	e0 89 00 14 	brgt	800062f0 <_vfprintf_r+0x3c0>
800062cc:	f0 cb ff fc 	sub	r11,r8,-4
800062d0:	70 08       	ld.w	r8,r8[0x0]
800062d2:	51 0b       	stdsp	sp[0x40],r11
800062d4:	50 28       	stdsp	sp[0x8],r8
800062d6:	fa c6 f9 44 	sub	r6,sp,-1724
800062da:	40 2e       	lddsp	lr,sp[0x8]
800062dc:	ec 0a 00 38 	add	r8,r6,r10<<0x3
800062e0:	f1 4e fd 88 	st.w	r8[-632],lr
800062e4:	2f fa       	sub	r10,-1
800062e6:	0e 94       	mov	r4,r7
800062e8:	fb 4a 06 b4 	st.w	sp[1716],r10
800062ec:	12 96       	mov	r6,r9
800062ee:	c0 78       	rjmp	800062fc <_vfprintf_r+0x3cc>
800062f0:	70 0c       	ld.w	r12,r8[0x0]
800062f2:	0e 94       	mov	r4,r7
800062f4:	2f c8       	sub	r8,-4
800062f6:	50 2c       	stdsp	sp[0x8],r12
800062f8:	12 96       	mov	r6,r9
800062fa:	51 08       	stdsp	sp[0x40],r8
800062fc:	40 2b       	lddsp	r11,sp[0x8]
800062fe:	58 0b       	cp.w	r11,0
80006300:	fe 95 fe f2 	brlt	800060e4 <_vfprintf_r+0x1b4>
80006304:	08 97       	mov	r7,r4
80006306:	cf 5a       	rjmp	800060f0 <_vfprintf_r+0x1c0>
80006308:	f2 09 00 29 	add	r9,r9,r9<<0x2
8000630c:	0f 38       	ld.ub	r8,r7++
8000630e:	f4 09 00 19 	add	r9,r10,r9<<0x1
80006312:	f0 ca 00 30 	sub	r10,r8,48
80006316:	58 9a       	cp.w	r10,9
80006318:	fe 98 ff f8 	brls	80006308 <_vfprintf_r+0x3d8>
8000631c:	3f fa       	mov	r10,-1
8000631e:	f2 0a 0c 49 	max	r9,r9,r10
80006322:	50 29       	stdsp	sp[0x8],r9
80006324:	ce 9a       	rjmp	800060f6 <_vfprintf_r+0x1c6>
80006326:	a7 b5       	sbr	r5,0x7
80006328:	ce 4a       	rjmp	800060f0 <_vfprintf_r+0x1c0>
8000632a:	30 09       	mov	r9,0
8000632c:	23 08       	sub	r8,48
8000632e:	f2 09 00 29 	add	r9,r9,r9<<0x2
80006332:	f0 09 00 19 	add	r9,r8,r9<<0x1
80006336:	0f 38       	ld.ub	r8,r7++
80006338:	f0 ca 00 30 	sub	r10,r8,48
8000633c:	58 9a       	cp.w	r10,9
8000633e:	fe 98 ff f7 	brls	8000632c <_vfprintf_r+0x3fc>
80006342:	e0 48 00 24 	cp.w	r8,36
80006346:	fe 91 fe d7 	brne	800060f4 <_vfprintf_r+0x1c4>
8000634a:	e0 49 00 20 	cp.w	r9,32
8000634e:	e0 89 0d 73 	brgt	80007e34 <_vfprintf_r+0x1f04>
80006352:	f2 c3 00 01 	sub	r3,r9,1
80006356:	30 19       	mov	r9,1
80006358:	50 39       	stdsp	sp[0xc],r9
8000635a:	cc ba       	rjmp	800060f0 <_vfprintf_r+0x1c0>
8000635c:	a3 b5       	sbr	r5,0x3
8000635e:	cc 9a       	rjmp	800060f0 <_vfprintf_r+0x1c0>
80006360:	a7 a5       	sbr	r5,0x6
80006362:	cc 7a       	rjmp	800060f0 <_vfprintf_r+0x1c0>
80006364:	0a 99       	mov	r9,r5
80006366:	0e 98       	mov	r8,r7
80006368:	a5 a9       	sbr	r9,0x4
8000636a:	a5 b5       	sbr	r5,0x5
8000636c:	11 3a       	ld.ub	r10,r8++
8000636e:	36 ce       	mov	lr,108
80006370:	fc 0a 18 00 	cp.b	r10,lr
80006374:	c0 31       	brne	8000637a <_vfprintf_r+0x44a>
80006376:	10 97       	mov	r7,r8
80006378:	cb ca       	rjmp	800060f0 <_vfprintf_r+0x1c0>
8000637a:	12 95       	mov	r5,r9
8000637c:	cb aa       	rjmp	800060f0 <_vfprintf_r+0x1c0>
8000637e:	a5 b5       	sbr	r5,0x5
80006380:	cb 8a       	rjmp	800060f0 <_vfprintf_r+0x1c0>
80006382:	50 a7       	stdsp	sp[0x28],r7
80006384:	50 80       	stdsp	sp[0x20],r0
80006386:	0c 97       	mov	r7,r6
80006388:	10 90       	mov	r0,r8
8000638a:	06 96       	mov	r6,r3
8000638c:	04 94       	mov	r4,r2
8000638e:	40 93       	lddsp	r3,sp[0x24]
80006390:	02 92       	mov	r2,r1
80006392:	0e 99       	mov	r9,r7
80006394:	40 41       	lddsp	r1,sp[0x10]
80006396:	fa f8 06 b4 	ld.w	r8,sp[1716]
8000639a:	40 3c       	lddsp	r12,sp[0xc]
8000639c:	58 0c       	cp.w	r12,0
8000639e:	c1 d0       	breq	800063d8 <_vfprintf_r+0x4a8>
800063a0:	10 36       	cp.w	r6,r8
800063a2:	c0 64       	brge	800063ae <_vfprintf_r+0x47e>
800063a4:	fa cb f9 44 	sub	r11,sp,-1724
800063a8:	f6 06 00 36 	add	r6,r11,r6<<0x3
800063ac:	c1 d8       	rjmp	800063e6 <_vfprintf_r+0x4b6>
800063ae:	fa c8 f9 50 	sub	r8,sp,-1712
800063b2:	1a d8       	st.w	--sp,r8
800063b4:	fa c8 fa b8 	sub	r8,sp,-1352
800063b8:	1a d8       	st.w	--sp,r8
800063ba:	fa c8 fb b4 	sub	r8,sp,-1100
800063be:	1a d8       	st.w	--sp,r8
800063c0:	fa c8 f9 40 	sub	r8,sp,-1728
800063c4:	fa c9 ff b4 	sub	r9,sp,-76
800063c8:	04 9a       	mov	r10,r2
800063ca:	0c 9b       	mov	r11,r6
800063cc:	08 9c       	mov	r12,r4
800063ce:	fe b0 fc 19 	rcall	80005c00 <get_arg>
800063d2:	2f dd       	sub	sp,-12
800063d4:	19 b8       	ld.ub	r8,r12[0x3]
800063d6:	c2 28       	rjmp	8000641a <_vfprintf_r+0x4ea>
800063d8:	2f f7       	sub	r7,-1
800063da:	10 39       	cp.w	r9,r8
800063dc:	c0 84       	brge	800063ec <_vfprintf_r+0x4bc>
800063de:	fa ca f9 44 	sub	r10,sp,-1724
800063e2:	f4 06 00 36 	add	r6,r10,r6<<0x3
800063e6:	ed 38 fd 8b 	ld.ub	r8,r6[-629]
800063ea:	c1 88       	rjmp	8000641a <_vfprintf_r+0x4ea>
800063ec:	41 09       	lddsp	r9,sp[0x40]
800063ee:	59 f8       	cp.w	r8,31
800063f0:	e0 89 00 12 	brgt	80006414 <_vfprintf_r+0x4e4>
800063f4:	f2 ca ff fc 	sub	r10,r9,-4
800063f8:	51 0a       	stdsp	sp[0x40],r10
800063fa:	72 09       	ld.w	r9,r9[0x0]
800063fc:	fa c6 f9 44 	sub	r6,sp,-1724
80006400:	ec 08 00 3a 	add	r10,r6,r8<<0x3
80006404:	2f f8       	sub	r8,-1
80006406:	f5 49 fd 88 	st.w	r10[-632],r9
8000640a:	fb 48 06 b4 	st.w	sp[1716],r8
8000640e:	f1 d9 c0 08 	bfextu	r8,r9,0x0,0x8
80006412:	c0 48       	rjmp	8000641a <_vfprintf_r+0x4ea>
80006414:	13 b8       	ld.ub	r8,r9[0x3]
80006416:	2f c9       	sub	r9,-4
80006418:	51 09       	stdsp	sp[0x40],r9
8000641a:	fb 68 06 60 	st.b	sp[1632],r8
8000641e:	30 0e       	mov	lr,0
80006420:	30 08       	mov	r8,0
80006422:	30 12       	mov	r2,1
80006424:	fb 68 06 bb 	st.b	sp[1723],r8
80006428:	50 2e       	stdsp	sp[0x8],lr
8000642a:	e0 8f 08 b7 	bral	80007598 <_vfprintf_r+0x1668>
8000642e:	50 a7       	stdsp	sp[0x28],r7
80006430:	50 80       	stdsp	sp[0x20],r0
80006432:	0c 97       	mov	r7,r6
80006434:	04 94       	mov	r4,r2
80006436:	06 96       	mov	r6,r3
80006438:	02 92       	mov	r2,r1
8000643a:	40 93       	lddsp	r3,sp[0x24]
8000643c:	10 90       	mov	r0,r8
8000643e:	40 41       	lddsp	r1,sp[0x10]
80006440:	a5 a5       	sbr	r5,0x4
80006442:	c0 a8       	rjmp	80006456 <_vfprintf_r+0x526>
80006444:	50 a7       	stdsp	sp[0x28],r7
80006446:	50 80       	stdsp	sp[0x20],r0
80006448:	0c 97       	mov	r7,r6
8000644a:	04 94       	mov	r4,r2
8000644c:	06 96       	mov	r6,r3
8000644e:	02 92       	mov	r2,r1
80006450:	40 93       	lddsp	r3,sp[0x24]
80006452:	10 90       	mov	r0,r8
80006454:	40 41       	lddsp	r1,sp[0x10]
80006456:	ed b5 00 05 	bld	r5,0x5
8000645a:	c5 11       	brne	800064fc <_vfprintf_r+0x5cc>
8000645c:	fa f8 06 b4 	ld.w	r8,sp[1716]
80006460:	40 3c       	lddsp	r12,sp[0xc]
80006462:	58 0c       	cp.w	r12,0
80006464:	c1 e0       	breq	800064a0 <_vfprintf_r+0x570>
80006466:	10 36       	cp.w	r6,r8
80006468:	c0 64       	brge	80006474 <_vfprintf_r+0x544>
8000646a:	fa cb f9 44 	sub	r11,sp,-1724
8000646e:	f6 06 00 36 	add	r6,r11,r6<<0x3
80006472:	c2 08       	rjmp	800064b2 <_vfprintf_r+0x582>
80006474:	fa c8 f9 50 	sub	r8,sp,-1712
80006478:	1a d8       	st.w	--sp,r8
8000647a:	fa c8 fa b8 	sub	r8,sp,-1352
8000647e:	0c 9b       	mov	r11,r6
80006480:	1a d8       	st.w	--sp,r8
80006482:	fa c8 fb b4 	sub	r8,sp,-1100
80006486:	1a d8       	st.w	--sp,r8
80006488:	fa c9 ff b4 	sub	r9,sp,-76
8000648c:	fa c8 f9 40 	sub	r8,sp,-1728
80006490:	04 9a       	mov	r10,r2
80006492:	08 9c       	mov	r12,r4
80006494:	fe b0 fb b6 	rcall	80005c00 <get_arg>
80006498:	2f dd       	sub	sp,-12
8000649a:	78 1b       	ld.w	r11,r12[0x4]
8000649c:	78 09       	ld.w	r9,r12[0x0]
8000649e:	c2 b8       	rjmp	800064f4 <_vfprintf_r+0x5c4>
800064a0:	ee ca ff ff 	sub	r10,r7,-1
800064a4:	10 37       	cp.w	r7,r8
800064a6:	c0 b4       	brge	800064bc <_vfprintf_r+0x58c>
800064a8:	fa c9 f9 44 	sub	r9,sp,-1724
800064ac:	14 97       	mov	r7,r10
800064ae:	f2 06 00 36 	add	r6,r9,r6<<0x3
800064b2:	ec fb fd 8c 	ld.w	r11,r6[-628]
800064b6:	ec f9 fd 88 	ld.w	r9,r6[-632]
800064ba:	c1 d8       	rjmp	800064f4 <_vfprintf_r+0x5c4>
800064bc:	41 09       	lddsp	r9,sp[0x40]
800064be:	59 f8       	cp.w	r8,31
800064c0:	e0 89 00 14 	brgt	800064e8 <_vfprintf_r+0x5b8>
800064c4:	f2 cb ff f8 	sub	r11,r9,-8
800064c8:	51 0b       	stdsp	sp[0x40],r11
800064ca:	fa c6 f9 44 	sub	r6,sp,-1724
800064ce:	72 1b       	ld.w	r11,r9[0x4]
800064d0:	ec 08 00 3c 	add	r12,r6,r8<<0x3
800064d4:	72 09       	ld.w	r9,r9[0x0]
800064d6:	f9 4b fd 8c 	st.w	r12[-628],r11
800064da:	f9 49 fd 88 	st.w	r12[-632],r9
800064de:	2f f8       	sub	r8,-1
800064e0:	14 97       	mov	r7,r10
800064e2:	fb 48 06 b4 	st.w	sp[1716],r8
800064e6:	c0 78       	rjmp	800064f4 <_vfprintf_r+0x5c4>
800064e8:	f2 c8 ff f8 	sub	r8,r9,-8
800064ec:	72 1b       	ld.w	r11,r9[0x4]
800064ee:	14 97       	mov	r7,r10
800064f0:	51 08       	stdsp	sp[0x40],r8
800064f2:	72 09       	ld.w	r9,r9[0x0]
800064f4:	16 98       	mov	r8,r11
800064f6:	fa e9 00 00 	st.d	sp[0],r8
800064fa:	ca e8       	rjmp	80006656 <_vfprintf_r+0x726>
800064fc:	ed b5 00 04 	bld	r5,0x4
80006500:	c1 71       	brne	8000652e <_vfprintf_r+0x5fe>
80006502:	fa f8 06 b4 	ld.w	r8,sp[1716]
80006506:	40 3e       	lddsp	lr,sp[0xc]
80006508:	58 0e       	cp.w	lr,0
8000650a:	c0 80       	breq	8000651a <_vfprintf_r+0x5ea>
8000650c:	10 36       	cp.w	r6,r8
8000650e:	c6 94       	brge	800065e0 <_vfprintf_r+0x6b0>
80006510:	fa cc f9 44 	sub	r12,sp,-1724
80006514:	f8 06 00 36 	add	r6,r12,r6<<0x3
80006518:	c8 28       	rjmp	8000661c <_vfprintf_r+0x6ec>
8000651a:	ee ca ff ff 	sub	r10,r7,-1
8000651e:	10 37       	cp.w	r7,r8
80006520:	e0 84 00 81 	brge	80006622 <_vfprintf_r+0x6f2>
80006524:	fa cb f9 44 	sub	r11,sp,-1724
80006528:	f6 06 00 36 	add	r6,r11,r6<<0x3
8000652c:	c7 78       	rjmp	8000661a <_vfprintf_r+0x6ea>
8000652e:	ed b5 00 06 	bld	r5,0x6
80006532:	c4 b1       	brne	800065c8 <_vfprintf_r+0x698>
80006534:	fa f8 06 b4 	ld.w	r8,sp[1716]
80006538:	40 3c       	lddsp	r12,sp[0xc]
8000653a:	58 0c       	cp.w	r12,0
8000653c:	c1 d0       	breq	80006576 <_vfprintf_r+0x646>
8000653e:	10 36       	cp.w	r6,r8
80006540:	c0 64       	brge	8000654c <_vfprintf_r+0x61c>
80006542:	fa cb f9 44 	sub	r11,sp,-1724
80006546:	f6 06 00 36 	add	r6,r11,r6<<0x3
8000654a:	c1 f8       	rjmp	80006588 <_vfprintf_r+0x658>
8000654c:	fa c8 f9 50 	sub	r8,sp,-1712
80006550:	1a d8       	st.w	--sp,r8
80006552:	fa c8 fa b8 	sub	r8,sp,-1352
80006556:	1a d8       	st.w	--sp,r8
80006558:	fa c8 fb b4 	sub	r8,sp,-1100
8000655c:	1a d8       	st.w	--sp,r8
8000655e:	fa c8 f9 40 	sub	r8,sp,-1728
80006562:	fa c9 ff b4 	sub	r9,sp,-76
80006566:	04 9a       	mov	r10,r2
80006568:	0c 9b       	mov	r11,r6
8000656a:	08 9c       	mov	r12,r4
8000656c:	fe b0 fb 4a 	rcall	80005c00 <get_arg>
80006570:	2f dd       	sub	sp,-12
80006572:	98 18       	ld.sh	r8,r12[0x2]
80006574:	c2 68       	rjmp	800065c0 <_vfprintf_r+0x690>
80006576:	ee ca ff ff 	sub	r10,r7,-1
8000657a:	10 37       	cp.w	r7,r8
8000657c:	c0 94       	brge	8000658e <_vfprintf_r+0x65e>
8000657e:	fa c9 f9 44 	sub	r9,sp,-1724
80006582:	14 97       	mov	r7,r10
80006584:	f2 06 00 36 	add	r6,r9,r6<<0x3
80006588:	ed 08 fd 8a 	ld.sh	r8,r6[-630]
8000658c:	c1 a8       	rjmp	800065c0 <_vfprintf_r+0x690>
8000658e:	41 09       	lddsp	r9,sp[0x40]
80006590:	59 f8       	cp.w	r8,31
80006592:	e0 89 00 13 	brgt	800065b8 <_vfprintf_r+0x688>
80006596:	f2 cb ff fc 	sub	r11,r9,-4
8000659a:	51 0b       	stdsp	sp[0x40],r11
8000659c:	72 09       	ld.w	r9,r9[0x0]
8000659e:	fa c6 f9 44 	sub	r6,sp,-1724
800065a2:	ec 08 00 3b 	add	r11,r6,r8<<0x3
800065a6:	2f f8       	sub	r8,-1
800065a8:	f7 49 fd 88 	st.w	r11[-632],r9
800065ac:	fb 48 06 b4 	st.w	sp[1716],r8
800065b0:	14 97       	mov	r7,r10
800065b2:	f1 d9 b0 10 	bfexts	r8,r9,0x0,0x10
800065b6:	c0 58       	rjmp	800065c0 <_vfprintf_r+0x690>
800065b8:	92 18       	ld.sh	r8,r9[0x2]
800065ba:	14 97       	mov	r7,r10
800065bc:	2f c9       	sub	r9,-4
800065be:	51 09       	stdsp	sp[0x40],r9
800065c0:	50 18       	stdsp	sp[0x4],r8
800065c2:	bf 58       	asr	r8,0x1f
800065c4:	50 08       	stdsp	sp[0x0],r8
800065c6:	c4 88       	rjmp	80006656 <_vfprintf_r+0x726>
800065c8:	fa f8 06 b4 	ld.w	r8,sp[1716]
800065cc:	40 3c       	lddsp	r12,sp[0xc]
800065ce:	58 0c       	cp.w	r12,0
800065d0:	c1 d0       	breq	8000660a <_vfprintf_r+0x6da>
800065d2:	10 36       	cp.w	r6,r8
800065d4:	c0 64       	brge	800065e0 <_vfprintf_r+0x6b0>
800065d6:	fa cb f9 44 	sub	r11,sp,-1724
800065da:	f6 06 00 36 	add	r6,r11,r6<<0x3
800065de:	c1 f8       	rjmp	8000661c <_vfprintf_r+0x6ec>
800065e0:	fa c8 f9 50 	sub	r8,sp,-1712
800065e4:	1a d8       	st.w	--sp,r8
800065e6:	fa c8 fa b8 	sub	r8,sp,-1352
800065ea:	0c 9b       	mov	r11,r6
800065ec:	1a d8       	st.w	--sp,r8
800065ee:	fa c8 fb b4 	sub	r8,sp,-1100
800065f2:	04 9a       	mov	r10,r2
800065f4:	1a d8       	st.w	--sp,r8
800065f6:	08 9c       	mov	r12,r4
800065f8:	fa c8 f9 40 	sub	r8,sp,-1728
800065fc:	fa c9 ff b4 	sub	r9,sp,-76
80006600:	fe b0 fb 00 	rcall	80005c00 <get_arg>
80006604:	2f dd       	sub	sp,-12
80006606:	78 0b       	ld.w	r11,r12[0x0]
80006608:	c2 48       	rjmp	80006650 <_vfprintf_r+0x720>
8000660a:	ee ca ff ff 	sub	r10,r7,-1
8000660e:	10 37       	cp.w	r7,r8
80006610:	c0 94       	brge	80006622 <_vfprintf_r+0x6f2>
80006612:	fa c9 f9 44 	sub	r9,sp,-1724
80006616:	f2 06 00 36 	add	r6,r9,r6<<0x3
8000661a:	14 97       	mov	r7,r10
8000661c:	ec fb fd 88 	ld.w	r11,r6[-632]
80006620:	c1 88       	rjmp	80006650 <_vfprintf_r+0x720>
80006622:	41 09       	lddsp	r9,sp[0x40]
80006624:	59 f8       	cp.w	r8,31
80006626:	e0 89 00 11 	brgt	80006648 <_vfprintf_r+0x718>
8000662a:	f2 cb ff fc 	sub	r11,r9,-4
8000662e:	51 0b       	stdsp	sp[0x40],r11
80006630:	fa c6 f9 44 	sub	r6,sp,-1724
80006634:	72 0b       	ld.w	r11,r9[0x0]
80006636:	ec 08 00 39 	add	r9,r6,r8<<0x3
8000663a:	f3 4b fd 88 	st.w	r9[-632],r11
8000663e:	2f f8       	sub	r8,-1
80006640:	14 97       	mov	r7,r10
80006642:	fb 48 06 b4 	st.w	sp[1716],r8
80006646:	c0 58       	rjmp	80006650 <_vfprintf_r+0x720>
80006648:	72 0b       	ld.w	r11,r9[0x0]
8000664a:	14 97       	mov	r7,r10
8000664c:	2f c9       	sub	r9,-4
8000664e:	51 09       	stdsp	sp[0x40],r9
80006650:	50 1b       	stdsp	sp[0x4],r11
80006652:	bf 5b       	asr	r11,0x1f
80006654:	50 0b       	stdsp	sp[0x0],r11
80006656:	fa ea 00 00 	ld.d	r10,sp[0]
8000665a:	58 0a       	cp.w	r10,0
8000665c:	5c 2b       	cpc	r11
8000665e:	c0 e4       	brge	8000667a <_vfprintf_r+0x74a>
80006660:	30 08       	mov	r8,0
80006662:	fa ea 00 00 	ld.d	r10,sp[0]
80006666:	30 09       	mov	r9,0
80006668:	f0 0a 01 0a 	sub	r10,r8,r10
8000666c:	f2 0b 01 4b 	sbc	r11,r9,r11
80006670:	32 d8       	mov	r8,45
80006672:	fa eb 00 00 	st.d	sp[0],r10
80006676:	fb 68 06 bb 	st.b	sp[1723],r8
8000667a:	30 18       	mov	r8,1
8000667c:	e0 8f 07 04 	bral	80007484 <_vfprintf_r+0x1554>
80006680:	50 a7       	stdsp	sp[0x28],r7
80006682:	50 80       	stdsp	sp[0x20],r0
80006684:	0c 97       	mov	r7,r6
80006686:	04 94       	mov	r4,r2
80006688:	06 96       	mov	r6,r3
8000668a:	02 92       	mov	r2,r1
8000668c:	40 93       	lddsp	r3,sp[0x24]
8000668e:	10 90       	mov	r0,r8
80006690:	40 41       	lddsp	r1,sp[0x10]
80006692:	0e 99       	mov	r9,r7
80006694:	ed b5 00 03 	bld	r5,0x3
80006698:	c4 11       	brne	8000671a <_vfprintf_r+0x7ea>
8000669a:	fa f8 06 b4 	ld.w	r8,sp[1716]
8000669e:	40 3a       	lddsp	r10,sp[0xc]
800066a0:	58 0a       	cp.w	r10,0
800066a2:	c1 90       	breq	800066d4 <_vfprintf_r+0x7a4>
800066a4:	10 36       	cp.w	r6,r8
800066a6:	c6 45       	brlt	8000676e <_vfprintf_r+0x83e>
800066a8:	fa c8 f9 50 	sub	r8,sp,-1712
800066ac:	1a d8       	st.w	--sp,r8
800066ae:	fa c8 fa b8 	sub	r8,sp,-1352
800066b2:	1a d8       	st.w	--sp,r8
800066b4:	fa c8 fb b4 	sub	r8,sp,-1100
800066b8:	0c 9b       	mov	r11,r6
800066ba:	1a d8       	st.w	--sp,r8
800066bc:	04 9a       	mov	r10,r2
800066be:	fa c8 f9 40 	sub	r8,sp,-1728
800066c2:	fa c9 ff b4 	sub	r9,sp,-76
800066c6:	08 9c       	mov	r12,r4
800066c8:	fe b0 fa 9c 	rcall	80005c00 <get_arg>
800066cc:	2f dd       	sub	sp,-12
800066ce:	78 16       	ld.w	r6,r12[0x4]
800066d0:	50 76       	stdsp	sp[0x1c],r6
800066d2:	c4 88       	rjmp	80006762 <_vfprintf_r+0x832>
800066d4:	2f f7       	sub	r7,-1
800066d6:	10 39       	cp.w	r9,r8
800066d8:	c0 c4       	brge	800066f0 <_vfprintf_r+0x7c0>
800066da:	fa ce f9 44 	sub	lr,sp,-1724
800066de:	fc 06 00 36 	add	r6,lr,r6<<0x3
800066e2:	ec fc fd 8c 	ld.w	r12,r6[-628]
800066e6:	50 7c       	stdsp	sp[0x1c],r12
800066e8:	ec f6 fd 88 	ld.w	r6,r6[-632]
800066ec:	50 56       	stdsp	sp[0x14],r6
800066ee:	c6 68       	rjmp	800067ba <_vfprintf_r+0x88a>
800066f0:	41 09       	lddsp	r9,sp[0x40]
800066f2:	59 f8       	cp.w	r8,31
800066f4:	e0 89 00 10 	brgt	80006714 <_vfprintf_r+0x7e4>
800066f8:	f2 ca ff f8 	sub	r10,r9,-8
800066fc:	72 1b       	ld.w	r11,r9[0x4]
800066fe:	51 0a       	stdsp	sp[0x40],r10
80006700:	72 09       	ld.w	r9,r9[0x0]
80006702:	fa ca f9 44 	sub	r10,sp,-1724
80006706:	50 7b       	stdsp	sp[0x1c],r11
80006708:	50 59       	stdsp	sp[0x14],r9
8000670a:	f4 08 00 39 	add	r9,r10,r8<<0x3
8000670e:	40 5b       	lddsp	r11,sp[0x14]
80006710:	40 7a       	lddsp	r10,sp[0x1c]
80006712:	c4 78       	rjmp	800067a0 <_vfprintf_r+0x870>
80006714:	72 18       	ld.w	r8,r9[0x4]
80006716:	50 78       	stdsp	sp[0x1c],r8
80006718:	c4 c8       	rjmp	800067b0 <_vfprintf_r+0x880>
8000671a:	fa f8 06 b4 	ld.w	r8,sp[1716]
8000671e:	40 3e       	lddsp	lr,sp[0xc]
80006720:	58 0e       	cp.w	lr,0
80006722:	c2 30       	breq	80006768 <_vfprintf_r+0x838>
80006724:	10 36       	cp.w	r6,r8
80006726:	c0 94       	brge	80006738 <_vfprintf_r+0x808>
80006728:	fa cc f9 44 	sub	r12,sp,-1724
8000672c:	f8 06 00 36 	add	r6,r12,r6<<0x3
80006730:	ec fb fd 8c 	ld.w	r11,r6[-628]
80006734:	50 7b       	stdsp	sp[0x1c],r11
80006736:	cd 9b       	rjmp	800066e8 <_vfprintf_r+0x7b8>
80006738:	fa c8 f9 50 	sub	r8,sp,-1712
8000673c:	1a d8       	st.w	--sp,r8
8000673e:	fa c8 fa b8 	sub	r8,sp,-1352
80006742:	04 9a       	mov	r10,r2
80006744:	1a d8       	st.w	--sp,r8
80006746:	fa c8 fb b4 	sub	r8,sp,-1100
8000674a:	0c 9b       	mov	r11,r6
8000674c:	1a d8       	st.w	--sp,r8
8000674e:	08 9c       	mov	r12,r4
80006750:	fa c8 f9 40 	sub	r8,sp,-1728
80006754:	fa c9 ff b4 	sub	r9,sp,-76
80006758:	fe b0 fa 54 	rcall	80005c00 <get_arg>
8000675c:	2f dd       	sub	sp,-12
8000675e:	78 1a       	ld.w	r10,r12[0x4]
80006760:	50 7a       	stdsp	sp[0x1c],r10
80006762:	78 0c       	ld.w	r12,r12[0x0]
80006764:	50 5c       	stdsp	sp[0x14],r12
80006766:	c2 a8       	rjmp	800067ba <_vfprintf_r+0x88a>
80006768:	2f f7       	sub	r7,-1
8000676a:	10 39       	cp.w	r9,r8
8000676c:	c0 94       	brge	8000677e <_vfprintf_r+0x84e>
8000676e:	fa c9 f9 44 	sub	r9,sp,-1724
80006772:	f2 06 00 36 	add	r6,r9,r6<<0x3
80006776:	ec f8 fd 8c 	ld.w	r8,r6[-628]
8000677a:	50 78       	stdsp	sp[0x1c],r8
8000677c:	cb 6b       	rjmp	800066e8 <_vfprintf_r+0x7b8>
8000677e:	41 09       	lddsp	r9,sp[0x40]
80006780:	59 f8       	cp.w	r8,31
80006782:	e0 89 00 15 	brgt	800067ac <_vfprintf_r+0x87c>
80006786:	f2 ca ff f8 	sub	r10,r9,-8
8000678a:	72 16       	ld.w	r6,r9[0x4]
8000678c:	72 09       	ld.w	r9,r9[0x0]
8000678e:	51 0a       	stdsp	sp[0x40],r10
80006790:	50 59       	stdsp	sp[0x14],r9
80006792:	fa ce f9 44 	sub	lr,sp,-1724
80006796:	50 76       	stdsp	sp[0x1c],r6
80006798:	fc 08 00 39 	add	r9,lr,r8<<0x3
8000679c:	40 5b       	lddsp	r11,sp[0x14]
8000679e:	0c 9a       	mov	r10,r6
800067a0:	f2 eb fd 88 	st.d	r9[-632],r10
800067a4:	2f f8       	sub	r8,-1
800067a6:	fb 48 06 b4 	st.w	sp[1716],r8
800067aa:	c0 88       	rjmp	800067ba <_vfprintf_r+0x88a>
800067ac:	72 1c       	ld.w	r12,r9[0x4]
800067ae:	50 7c       	stdsp	sp[0x1c],r12
800067b0:	f2 c8 ff f8 	sub	r8,r9,-8
800067b4:	51 08       	stdsp	sp[0x40],r8
800067b6:	72 09       	ld.w	r9,r9[0x0]
800067b8:	50 59       	stdsp	sp[0x14],r9
800067ba:	40 5b       	lddsp	r11,sp[0x14]
800067bc:	40 7a       	lddsp	r10,sp[0x1c]
800067be:	e0 a0 1c e9 	rcall	8000a190 <__isinfd>
800067c2:	18 96       	mov	r6,r12
800067c4:	c1 70       	breq	800067f2 <_vfprintf_r+0x8c2>
800067c6:	30 08       	mov	r8,0
800067c8:	30 09       	mov	r9,0
800067ca:	40 5b       	lddsp	r11,sp[0x14]
800067cc:	40 7a       	lddsp	r10,sp[0x1c]
800067ce:	e0 a0 21 dc 	rcall	8000ab86 <__avr32_f64_cmp_lt>
800067d2:	c0 40       	breq	800067da <_vfprintf_r+0x8aa>
800067d4:	32 d8       	mov	r8,45
800067d6:	fb 68 06 bb 	st.b	sp[1723],r8
800067da:	fe c8 ae fa 	sub	r8,pc,-20742
800067de:	fe c6 ae fa 	sub	r6,pc,-20742
800067e2:	a7 d5       	cbr	r5,0x7
800067e4:	e0 40 00 47 	cp.w	r0,71
800067e8:	f0 06 17 a0 	movle	r6,r8
800067ec:	30 32       	mov	r2,3
800067ee:	e0 8f 06 d8 	bral	8000759e <_vfprintf_r+0x166e>
800067f2:	40 5b       	lddsp	r11,sp[0x14]
800067f4:	40 7a       	lddsp	r10,sp[0x1c]
800067f6:	e0 a0 1c e3 	rcall	8000a1bc <__isnand>
800067fa:	c0 e0       	breq	80006816 <_vfprintf_r+0x8e6>
800067fc:	50 26       	stdsp	sp[0x8],r6
800067fe:	fe c8 af 16 	sub	r8,pc,-20714
80006802:	fe c6 af 16 	sub	r6,pc,-20714
80006806:	a7 d5       	cbr	r5,0x7
80006808:	e0 40 00 47 	cp.w	r0,71
8000680c:	f0 06 17 a0 	movle	r6,r8
80006810:	30 32       	mov	r2,3
80006812:	e0 8f 06 cc 	bral	800075aa <_vfprintf_r+0x167a>
80006816:	40 2a       	lddsp	r10,sp[0x8]
80006818:	5b fa       	cp.w	r10,-1
8000681a:	c0 41       	brne	80006822 <_vfprintf_r+0x8f2>
8000681c:	30 69       	mov	r9,6
8000681e:	50 29       	stdsp	sp[0x8],r9
80006820:	c1 18       	rjmp	80006842 <_vfprintf_r+0x912>
80006822:	e0 40 00 47 	cp.w	r0,71
80006826:	5f 09       	sreq	r9
80006828:	e0 40 00 67 	cp.w	r0,103
8000682c:	5f 08       	sreq	r8
8000682e:	f3 e8 10 08 	or	r8,r9,r8
80006832:	f8 08 18 00 	cp.b	r8,r12
80006836:	c0 60       	breq	80006842 <_vfprintf_r+0x912>
80006838:	40 28       	lddsp	r8,sp[0x8]
8000683a:	58 08       	cp.w	r8,0
8000683c:	f9 b8 00 01 	moveq	r8,1
80006840:	50 28       	stdsp	sp[0x8],r8
80006842:	40 78       	lddsp	r8,sp[0x1c]
80006844:	40 59       	lddsp	r9,sp[0x14]
80006846:	fa e9 06 94 	st.d	sp[1684],r8
8000684a:	a9 a5       	sbr	r5,0x8
8000684c:	fa f8 06 94 	ld.w	r8,sp[1684]
80006850:	58 08       	cp.w	r8,0
80006852:	c0 65       	brlt	8000685e <_vfprintf_r+0x92e>
80006854:	40 5e       	lddsp	lr,sp[0x14]
80006856:	30 0c       	mov	r12,0
80006858:	50 6e       	stdsp	sp[0x18],lr
8000685a:	50 9c       	stdsp	sp[0x24],r12
8000685c:	c0 78       	rjmp	8000686a <_vfprintf_r+0x93a>
8000685e:	40 5b       	lddsp	r11,sp[0x14]
80006860:	32 da       	mov	r10,45
80006862:	ee 1b 80 00 	eorh	r11,0x8000
80006866:	50 9a       	stdsp	sp[0x24],r10
80006868:	50 6b       	stdsp	sp[0x18],r11
8000686a:	e0 40 00 46 	cp.w	r0,70
8000686e:	5f 09       	sreq	r9
80006870:	e0 40 00 66 	cp.w	r0,102
80006874:	5f 08       	sreq	r8
80006876:	f3 e8 10 08 	or	r8,r9,r8
8000687a:	50 48       	stdsp	sp[0x10],r8
8000687c:	c0 40       	breq	80006884 <_vfprintf_r+0x954>
8000687e:	40 22       	lddsp	r2,sp[0x8]
80006880:	30 39       	mov	r9,3
80006882:	c1 58       	rjmp	800068ac <_vfprintf_r+0x97c>
80006884:	e0 40 00 45 	cp.w	r0,69
80006888:	5f 09       	sreq	r9
8000688a:	e0 40 00 65 	cp.w	r0,101
8000688e:	5f 08       	sreq	r8
80006890:	40 2b       	lddsp	r11,sp[0x8]
80006892:	10 49       	or	r9,r8
80006894:	2f fb       	sub	r11,-1
80006896:	40 22       	lddsp	r2,sp[0x8]
80006898:	30 2a       	mov	r10,2
8000689a:	40 46       	lddsp	r6,sp[0x10]
8000689c:	ec 09 18 00 	cp.b	r9,r6
800068a0:	c0 41       	brne	800068a8 <_vfprintf_r+0x978>
800068a2:	14 99       	mov	r9,r10
800068a4:	c0 48       	rjmp	800068ac <_vfprintf_r+0x97c>
800068a6:	d7 03       	nop
800068a8:	16 92       	mov	r2,r11
800068aa:	14 99       	mov	r9,r10
800068ac:	fa c8 f9 5c 	sub	r8,sp,-1700
800068b0:	1a d8       	st.w	--sp,r8
800068b2:	fa c8 f9 54 	sub	r8,sp,-1708
800068b6:	1a d8       	st.w	--sp,r8
800068b8:	fa c8 f9 4c 	sub	r8,sp,-1716
800068bc:	08 9c       	mov	r12,r4
800068be:	1a d8       	st.w	--sp,r8
800068c0:	04 98       	mov	r8,r2
800068c2:	40 9b       	lddsp	r11,sp[0x24]
800068c4:	40 aa       	lddsp	r10,sp[0x28]
800068c6:	e0 a0 0b c1 	rcall	80008048 <_dtoa_r>
800068ca:	e0 40 00 47 	cp.w	r0,71
800068ce:	5f 19       	srne	r9
800068d0:	e0 40 00 67 	cp.w	r0,103
800068d4:	5f 18       	srne	r8
800068d6:	18 96       	mov	r6,r12
800068d8:	2f dd       	sub	sp,-12
800068da:	f3 e8 00 08 	and	r8,r9,r8
800068de:	c0 41       	brne	800068e6 <_vfprintf_r+0x9b6>
800068e0:	ed b5 00 00 	bld	r5,0x0
800068e4:	c3 11       	brne	80006946 <_vfprintf_r+0xa16>
800068e6:	ec 02 00 0e 	add	lr,r6,r2
800068ea:	50 3e       	stdsp	sp[0xc],lr
800068ec:	40 4c       	lddsp	r12,sp[0x10]
800068ee:	58 0c       	cp.w	r12,0
800068f0:	c1 60       	breq	8000691c <_vfprintf_r+0x9ec>
800068f2:	0d 89       	ld.ub	r9,r6[0x0]
800068f4:	33 08       	mov	r8,48
800068f6:	f0 09 18 00 	cp.b	r9,r8
800068fa:	c0 c1       	brne	80006912 <_vfprintf_r+0x9e2>
800068fc:	30 08       	mov	r8,0
800068fe:	30 09       	mov	r9,0
80006900:	40 6b       	lddsp	r11,sp[0x18]
80006902:	40 7a       	lddsp	r10,sp[0x1c]
80006904:	e0 a0 20 f8 	rcall	8000aaf4 <__avr32_f64_cmp_eq>
80006908:	c0 51       	brne	80006912 <_vfprintf_r+0x9e2>
8000690a:	e4 02 11 01 	rsub	r2,r2,1
8000690e:	fb 42 06 ac 	st.w	sp[1708],r2
80006912:	40 3b       	lddsp	r11,sp[0xc]
80006914:	fa f8 06 ac 	ld.w	r8,sp[1708]
80006918:	10 0b       	add	r11,r8
8000691a:	50 3b       	stdsp	sp[0xc],r11
8000691c:	40 6b       	lddsp	r11,sp[0x18]
8000691e:	30 08       	mov	r8,0
80006920:	30 09       	mov	r9,0
80006922:	40 7a       	lddsp	r10,sp[0x1c]
80006924:	e0 a0 20 e8 	rcall	8000aaf4 <__avr32_f64_cmp_eq>
80006928:	c0 90       	breq	8000693a <_vfprintf_r+0xa0a>
8000692a:	40 3a       	lddsp	r10,sp[0xc]
8000692c:	fb 4a 06 a4 	st.w	sp[1700],r10
80006930:	c0 58       	rjmp	8000693a <_vfprintf_r+0xa0a>
80006932:	10 c9       	st.b	r8++,r9
80006934:	fb 48 06 a4 	st.w	sp[1700],r8
80006938:	c0 28       	rjmp	8000693c <_vfprintf_r+0xa0c>
8000693a:	33 09       	mov	r9,48
8000693c:	fa f8 06 a4 	ld.w	r8,sp[1700]
80006940:	40 3e       	lddsp	lr,sp[0xc]
80006942:	1c 38       	cp.w	r8,lr
80006944:	cf 73       	brcs	80006932 <_vfprintf_r+0xa02>
80006946:	e0 40 00 47 	cp.w	r0,71
8000694a:	5f 09       	sreq	r9
8000694c:	e0 40 00 67 	cp.w	r0,103
80006950:	5f 08       	sreq	r8
80006952:	f3 e8 10 08 	or	r8,r9,r8
80006956:	fa f9 06 a4 	ld.w	r9,sp[1700]
8000695a:	0c 19       	sub	r9,r6
8000695c:	50 69       	stdsp	sp[0x18],r9
8000695e:	58 08       	cp.w	r8,0
80006960:	c0 b0       	breq	80006976 <_vfprintf_r+0xa46>
80006962:	fa f8 06 ac 	ld.w	r8,sp[1708]
80006966:	5b d8       	cp.w	r8,-3
80006968:	c0 55       	brlt	80006972 <_vfprintf_r+0xa42>
8000696a:	40 2c       	lddsp	r12,sp[0x8]
8000696c:	18 38       	cp.w	r8,r12
8000696e:	e0 8a 00 6a 	brle	80006a42 <_vfprintf_r+0xb12>
80006972:	20 20       	sub	r0,2
80006974:	c0 58       	rjmp	8000697e <_vfprintf_r+0xa4e>
80006976:	e0 40 00 65 	cp.w	r0,101
8000697a:	e0 89 00 46 	brgt	80006a06 <_vfprintf_r+0xad6>
8000697e:	fa fb 06 ac 	ld.w	r11,sp[1708]
80006982:	fb 60 06 9c 	st.b	sp[1692],r0
80006986:	20 1b       	sub	r11,1
80006988:	fb 4b 06 ac 	st.w	sp[1708],r11
8000698c:	c0 47       	brpl	80006994 <_vfprintf_r+0xa64>
8000698e:	5c 3b       	neg	r11
80006990:	32 d8       	mov	r8,45
80006992:	c0 28       	rjmp	80006996 <_vfprintf_r+0xa66>
80006994:	32 b8       	mov	r8,43
80006996:	fb 68 06 9d 	st.b	sp[1693],r8
8000699a:	58 9b       	cp.w	r11,9
8000699c:	e0 8a 00 1d 	brle	800069d6 <_vfprintf_r+0xaa6>
800069a0:	fa c9 fa 35 	sub	r9,sp,-1483
800069a4:	30 aa       	mov	r10,10
800069a6:	12 98       	mov	r8,r9
800069a8:	0e 9c       	mov	r12,r7
800069aa:	0c 92       	mov	r2,r6
800069ac:	f6 0a 0c 06 	divs	r6,r11,r10
800069b0:	0e 9b       	mov	r11,r7
800069b2:	2d 0b       	sub	r11,-48
800069b4:	10 fb       	st.b	--r8,r11
800069b6:	0c 9b       	mov	r11,r6
800069b8:	58 96       	cp.w	r6,9
800069ba:	fe 99 ff f9 	brgt	800069ac <_vfprintf_r+0xa7c>
800069be:	2d 0b       	sub	r11,-48
800069c0:	18 97       	mov	r7,r12
800069c2:	04 96       	mov	r6,r2
800069c4:	10 fb       	st.b	--r8,r11
800069c6:	fa ca f9 62 	sub	r10,sp,-1694
800069ca:	c0 38       	rjmp	800069d0 <_vfprintf_r+0xaa0>
800069cc:	11 3b       	ld.ub	r11,r8++
800069ce:	14 cb       	st.b	r10++,r11
800069d0:	12 38       	cp.w	r8,r9
800069d2:	cf d3       	brcs	800069cc <_vfprintf_r+0xa9c>
800069d4:	c0 98       	rjmp	800069e6 <_vfprintf_r+0xab6>
800069d6:	2d 0b       	sub	r11,-48
800069d8:	33 08       	mov	r8,48
800069da:	fb 6b 06 9f 	st.b	sp[1695],r11
800069de:	fb 68 06 9e 	st.b	sp[1694],r8
800069e2:	fa ca f9 60 	sub	r10,sp,-1696
800069e6:	fa c8 f9 64 	sub	r8,sp,-1692
800069ea:	f4 08 01 08 	sub	r8,r10,r8
800069ee:	50 e8       	stdsp	sp[0x38],r8
800069f0:	10 92       	mov	r2,r8
800069f2:	40 6b       	lddsp	r11,sp[0x18]
800069f4:	16 02       	add	r2,r11
800069f6:	58 1b       	cp.w	r11,1
800069f8:	e0 89 00 05 	brgt	80006a02 <_vfprintf_r+0xad2>
800069fc:	ed b5 00 00 	bld	r5,0x0
80006a00:	c3 c1       	brne	80006a78 <_vfprintf_r+0xb48>
80006a02:	2f f2       	sub	r2,-1
80006a04:	c3 a8       	rjmp	80006a78 <_vfprintf_r+0xb48>
80006a06:	e0 40 00 66 	cp.w	r0,102
80006a0a:	c1 c1       	brne	80006a42 <_vfprintf_r+0xb12>
80006a0c:	fa f2 06 ac 	ld.w	r2,sp[1708]
80006a10:	58 02       	cp.w	r2,0
80006a12:	e0 8a 00 0c 	brle	80006a2a <_vfprintf_r+0xafa>
80006a16:	40 2a       	lddsp	r10,sp[0x8]
80006a18:	58 0a       	cp.w	r10,0
80006a1a:	c0 41       	brne	80006a22 <_vfprintf_r+0xaf2>
80006a1c:	ed b5 00 00 	bld	r5,0x0
80006a20:	c2 c1       	brne	80006a78 <_vfprintf_r+0xb48>
80006a22:	2f f2       	sub	r2,-1
80006a24:	40 29       	lddsp	r9,sp[0x8]
80006a26:	12 02       	add	r2,r9
80006a28:	c0 b8       	rjmp	80006a3e <_vfprintf_r+0xb0e>
80006a2a:	40 28       	lddsp	r8,sp[0x8]
80006a2c:	58 08       	cp.w	r8,0
80006a2e:	c0 61       	brne	80006a3a <_vfprintf_r+0xb0a>
80006a30:	ed b5 00 00 	bld	r5,0x0
80006a34:	c0 30       	breq	80006a3a <_vfprintf_r+0xb0a>
80006a36:	30 12       	mov	r2,1
80006a38:	c2 08       	rjmp	80006a78 <_vfprintf_r+0xb48>
80006a3a:	40 22       	lddsp	r2,sp[0x8]
80006a3c:	2f e2       	sub	r2,-2
80006a3e:	36 60       	mov	r0,102
80006a40:	c1 c8       	rjmp	80006a78 <_vfprintf_r+0xb48>
80006a42:	fa f2 06 ac 	ld.w	r2,sp[1708]
80006a46:	40 6e       	lddsp	lr,sp[0x18]
80006a48:	1c 32       	cp.w	r2,lr
80006a4a:	c0 d5       	brlt	80006a64 <_vfprintf_r+0xb34>
80006a4c:	e1 d5 c0 01 	bfextu	r0,r5,0x0,0x1
80006a50:	e4 c8 ff ff 	sub	r8,r2,-1
80006a54:	58 00       	cp.w	r0,0
80006a56:	f0 02 17 10 	movne	r2,r8
80006a5a:	f9 b0 01 67 	movne	r0,103
80006a5e:	f9 b0 00 67 	moveq	r0,103
80006a62:	c0 b8       	rjmp	80006a78 <_vfprintf_r+0xb48>
80006a64:	e4 08 11 02 	rsub	r8,r2,2
80006a68:	40 6c       	lddsp	r12,sp[0x18]
80006a6a:	58 02       	cp.w	r2,0
80006a6c:	f0 02 17 a0 	movle	r2,r8
80006a70:	f9 b2 09 01 	movgt	r2,1
80006a74:	36 70       	mov	r0,103
80006a76:	18 02       	add	r2,r12
80006a78:	40 9b       	lddsp	r11,sp[0x24]
80006a7a:	58 0b       	cp.w	r11,0
80006a7c:	e0 80 05 91 	breq	8000759e <_vfprintf_r+0x166e>
80006a80:	32 d8       	mov	r8,45
80006a82:	fb 68 06 bb 	st.b	sp[1723],r8
80006a86:	e0 8f 05 90 	bral	800075a6 <_vfprintf_r+0x1676>
80006a8a:	50 a7       	stdsp	sp[0x28],r7
80006a8c:	04 94       	mov	r4,r2
80006a8e:	0c 97       	mov	r7,r6
80006a90:	02 92       	mov	r2,r1
80006a92:	06 96       	mov	r6,r3
80006a94:	40 41       	lddsp	r1,sp[0x10]
80006a96:	40 93       	lddsp	r3,sp[0x24]
80006a98:	0e 99       	mov	r9,r7
80006a9a:	ed b5 00 05 	bld	r5,0x5
80006a9e:	c4 81       	brne	80006b2e <_vfprintf_r+0xbfe>
80006aa0:	fa f8 06 b4 	ld.w	r8,sp[1716]
80006aa4:	40 3e       	lddsp	lr,sp[0xc]
80006aa6:	58 0e       	cp.w	lr,0
80006aa8:	c1 d0       	breq	80006ae2 <_vfprintf_r+0xbb2>
80006aaa:	10 36       	cp.w	r6,r8
80006aac:	c0 64       	brge	80006ab8 <_vfprintf_r+0xb88>
80006aae:	fa cc f9 44 	sub	r12,sp,-1724
80006ab2:	f8 06 00 36 	add	r6,r12,r6<<0x3
80006ab6:	c1 d8       	rjmp	80006af0 <_vfprintf_r+0xbc0>
80006ab8:	fa c8 f9 50 	sub	r8,sp,-1712
80006abc:	1a d8       	st.w	--sp,r8
80006abe:	fa c8 fa b8 	sub	r8,sp,-1352
80006ac2:	04 9a       	mov	r10,r2
80006ac4:	1a d8       	st.w	--sp,r8
80006ac6:	fa c8 fb b4 	sub	r8,sp,-1100
80006aca:	0c 9b       	mov	r11,r6
80006acc:	1a d8       	st.w	--sp,r8
80006ace:	08 9c       	mov	r12,r4
80006ad0:	fa c8 f9 40 	sub	r8,sp,-1728
80006ad4:	fa c9 ff b4 	sub	r9,sp,-76
80006ad8:	fe b0 f8 94 	rcall	80005c00 <get_arg>
80006adc:	2f dd       	sub	sp,-12
80006ade:	78 0a       	ld.w	r10,r12[0x0]
80006ae0:	c2 08       	rjmp	80006b20 <_vfprintf_r+0xbf0>
80006ae2:	2f f7       	sub	r7,-1
80006ae4:	10 39       	cp.w	r9,r8
80006ae6:	c0 84       	brge	80006af6 <_vfprintf_r+0xbc6>
80006ae8:	fa cb f9 44 	sub	r11,sp,-1724
80006aec:	f6 06 00 36 	add	r6,r11,r6<<0x3
80006af0:	ec fa fd 88 	ld.w	r10,r6[-632]
80006af4:	c1 68       	rjmp	80006b20 <_vfprintf_r+0xbf0>
80006af6:	41 09       	lddsp	r9,sp[0x40]
80006af8:	59 f8       	cp.w	r8,31
80006afa:	e0 89 00 10 	brgt	80006b1a <_vfprintf_r+0xbea>
80006afe:	f2 ca ff fc 	sub	r10,r9,-4
80006b02:	51 0a       	stdsp	sp[0x40],r10
80006b04:	fa c6 f9 44 	sub	r6,sp,-1724
80006b08:	72 0a       	ld.w	r10,r9[0x0]
80006b0a:	ec 08 00 39 	add	r9,r6,r8<<0x3
80006b0e:	f3 4a fd 88 	st.w	r9[-632],r10
80006b12:	2f f8       	sub	r8,-1
80006b14:	fb 48 06 b4 	st.w	sp[1716],r8
80006b18:	c0 48       	rjmp	80006b20 <_vfprintf_r+0xbf0>
80006b1a:	72 0a       	ld.w	r10,r9[0x0]
80006b1c:	2f c9       	sub	r9,-4
80006b1e:	51 09       	stdsp	sp[0x40],r9
80006b20:	40 be       	lddsp	lr,sp[0x2c]
80006b22:	1c 98       	mov	r8,lr
80006b24:	95 1e       	st.w	r10[0x4],lr
80006b26:	bf 58       	asr	r8,0x1f
80006b28:	95 08       	st.w	r10[0x0],r8
80006b2a:	fe 9f fa 90 	bral	8000604a <_vfprintf_r+0x11a>
80006b2e:	ed b5 00 04 	bld	r5,0x4
80006b32:	c4 80       	breq	80006bc2 <_vfprintf_r+0xc92>
80006b34:	e2 15 00 40 	andl	r5,0x40,COH
80006b38:	c4 50       	breq	80006bc2 <_vfprintf_r+0xc92>
80006b3a:	fa f8 06 b4 	ld.w	r8,sp[1716]
80006b3e:	40 3c       	lddsp	r12,sp[0xc]
80006b40:	58 0c       	cp.w	r12,0
80006b42:	c1 d0       	breq	80006b7c <_vfprintf_r+0xc4c>
80006b44:	10 36       	cp.w	r6,r8
80006b46:	c0 64       	brge	80006b52 <_vfprintf_r+0xc22>
80006b48:	fa cb f9 44 	sub	r11,sp,-1724
80006b4c:	f6 06 00 36 	add	r6,r11,r6<<0x3
80006b50:	c1 d8       	rjmp	80006b8a <_vfprintf_r+0xc5a>
80006b52:	fa c8 f9 50 	sub	r8,sp,-1712
80006b56:	1a d8       	st.w	--sp,r8
80006b58:	fa c8 fa b8 	sub	r8,sp,-1352
80006b5c:	04 9a       	mov	r10,r2
80006b5e:	1a d8       	st.w	--sp,r8
80006b60:	fa c8 fb b4 	sub	r8,sp,-1100
80006b64:	0c 9b       	mov	r11,r6
80006b66:	1a d8       	st.w	--sp,r8
80006b68:	08 9c       	mov	r12,r4
80006b6a:	fa c8 f9 40 	sub	r8,sp,-1728
80006b6e:	fa c9 ff b4 	sub	r9,sp,-76
80006b72:	fe b0 f8 47 	rcall	80005c00 <get_arg>
80006b76:	2f dd       	sub	sp,-12
80006b78:	78 0a       	ld.w	r10,r12[0x0]
80006b7a:	c2 08       	rjmp	80006bba <_vfprintf_r+0xc8a>
80006b7c:	2f f7       	sub	r7,-1
80006b7e:	10 39       	cp.w	r9,r8
80006b80:	c0 84       	brge	80006b90 <_vfprintf_r+0xc60>
80006b82:	fa ca f9 44 	sub	r10,sp,-1724
80006b86:	f4 06 00 36 	add	r6,r10,r6<<0x3
80006b8a:	ec fa fd 88 	ld.w	r10,r6[-632]
80006b8e:	c1 68       	rjmp	80006bba <_vfprintf_r+0xc8a>
80006b90:	41 09       	lddsp	r9,sp[0x40]
80006b92:	59 f8       	cp.w	r8,31
80006b94:	e0 89 00 10 	brgt	80006bb4 <_vfprintf_r+0xc84>
80006b98:	f2 ca ff fc 	sub	r10,r9,-4
80006b9c:	51 0a       	stdsp	sp[0x40],r10
80006b9e:	fa c6 f9 44 	sub	r6,sp,-1724
80006ba2:	72 0a       	ld.w	r10,r9[0x0]
80006ba4:	ec 08 00 39 	add	r9,r6,r8<<0x3
80006ba8:	f3 4a fd 88 	st.w	r9[-632],r10
80006bac:	2f f8       	sub	r8,-1
80006bae:	fb 48 06 b4 	st.w	sp[1716],r8
80006bb2:	c0 48       	rjmp	80006bba <_vfprintf_r+0xc8a>
80006bb4:	72 0a       	ld.w	r10,r9[0x0]
80006bb6:	2f c9       	sub	r9,-4
80006bb8:	51 09       	stdsp	sp[0x40],r9
80006bba:	40 be       	lddsp	lr,sp[0x2c]
80006bbc:	b4 0e       	st.h	r10[0x0],lr
80006bbe:	fe 9f fa 46 	bral	8000604a <_vfprintf_r+0x11a>
80006bc2:	fa f8 06 b4 	ld.w	r8,sp[1716]
80006bc6:	40 3c       	lddsp	r12,sp[0xc]
80006bc8:	58 0c       	cp.w	r12,0
80006bca:	c1 d0       	breq	80006c04 <_vfprintf_r+0xcd4>
80006bcc:	10 36       	cp.w	r6,r8
80006bce:	c0 64       	brge	80006bda <_vfprintf_r+0xcaa>
80006bd0:	fa cb f9 44 	sub	r11,sp,-1724
80006bd4:	f6 06 00 36 	add	r6,r11,r6<<0x3
80006bd8:	c1 d8       	rjmp	80006c12 <_vfprintf_r+0xce2>
80006bda:	fa c8 f9 50 	sub	r8,sp,-1712
80006bde:	1a d8       	st.w	--sp,r8
80006be0:	fa c8 fa b8 	sub	r8,sp,-1352
80006be4:	04 9a       	mov	r10,r2
80006be6:	1a d8       	st.w	--sp,r8
80006be8:	fa c8 fb b4 	sub	r8,sp,-1100
80006bec:	0c 9b       	mov	r11,r6
80006bee:	1a d8       	st.w	--sp,r8
80006bf0:	08 9c       	mov	r12,r4
80006bf2:	fa c8 f9 40 	sub	r8,sp,-1728
80006bf6:	fa c9 ff b4 	sub	r9,sp,-76
80006bfa:	fe b0 f8 03 	rcall	80005c00 <get_arg>
80006bfe:	2f dd       	sub	sp,-12
80006c00:	78 0a       	ld.w	r10,r12[0x0]
80006c02:	c2 08       	rjmp	80006c42 <_vfprintf_r+0xd12>
80006c04:	2f f7       	sub	r7,-1
80006c06:	10 39       	cp.w	r9,r8
80006c08:	c0 84       	brge	80006c18 <_vfprintf_r+0xce8>
80006c0a:	fa ca f9 44 	sub	r10,sp,-1724
80006c0e:	f4 06 00 36 	add	r6,r10,r6<<0x3
80006c12:	ec fa fd 88 	ld.w	r10,r6[-632]
80006c16:	c1 68       	rjmp	80006c42 <_vfprintf_r+0xd12>
80006c18:	41 09       	lddsp	r9,sp[0x40]
80006c1a:	59 f8       	cp.w	r8,31
80006c1c:	e0 89 00 10 	brgt	80006c3c <_vfprintf_r+0xd0c>
80006c20:	f2 ca ff fc 	sub	r10,r9,-4
80006c24:	51 0a       	stdsp	sp[0x40],r10
80006c26:	fa c6 f9 44 	sub	r6,sp,-1724
80006c2a:	72 0a       	ld.w	r10,r9[0x0]
80006c2c:	ec 08 00 39 	add	r9,r6,r8<<0x3
80006c30:	f3 4a fd 88 	st.w	r9[-632],r10
80006c34:	2f f8       	sub	r8,-1
80006c36:	fb 48 06 b4 	st.w	sp[1716],r8
80006c3a:	c0 48       	rjmp	80006c42 <_vfprintf_r+0xd12>
80006c3c:	72 0a       	ld.w	r10,r9[0x0]
80006c3e:	2f c9       	sub	r9,-4
80006c40:	51 09       	stdsp	sp[0x40],r9
80006c42:	40 be       	lddsp	lr,sp[0x2c]
80006c44:	95 0e       	st.w	r10[0x0],lr
80006c46:	fe 9f fa 02 	bral	8000604a <_vfprintf_r+0x11a>
80006c4a:	50 a7       	stdsp	sp[0x28],r7
80006c4c:	50 80       	stdsp	sp[0x20],r0
80006c4e:	0c 97       	mov	r7,r6
80006c50:	04 94       	mov	r4,r2
80006c52:	06 96       	mov	r6,r3
80006c54:	02 92       	mov	r2,r1
80006c56:	40 93       	lddsp	r3,sp[0x24]
80006c58:	10 90       	mov	r0,r8
80006c5a:	40 41       	lddsp	r1,sp[0x10]
80006c5c:	a5 a5       	sbr	r5,0x4
80006c5e:	c0 a8       	rjmp	80006c72 <_vfprintf_r+0xd42>
80006c60:	50 a7       	stdsp	sp[0x28],r7
80006c62:	50 80       	stdsp	sp[0x20],r0
80006c64:	0c 97       	mov	r7,r6
80006c66:	04 94       	mov	r4,r2
80006c68:	06 96       	mov	r6,r3
80006c6a:	02 92       	mov	r2,r1
80006c6c:	40 93       	lddsp	r3,sp[0x24]
80006c6e:	10 90       	mov	r0,r8
80006c70:	40 41       	lddsp	r1,sp[0x10]
80006c72:	ed b5 00 05 	bld	r5,0x5
80006c76:	c5 d1       	brne	80006d30 <_vfprintf_r+0xe00>
80006c78:	fa f8 06 b4 	ld.w	r8,sp[1716]
80006c7c:	40 3c       	lddsp	r12,sp[0xc]
80006c7e:	58 0c       	cp.w	r12,0
80006c80:	c2 60       	breq	80006ccc <_vfprintf_r+0xd9c>
80006c82:	10 36       	cp.w	r6,r8
80006c84:	c0 a4       	brge	80006c98 <_vfprintf_r+0xd68>
80006c86:	fa cb f9 44 	sub	r11,sp,-1724
80006c8a:	f6 06 00 36 	add	r6,r11,r6<<0x3
80006c8e:	ec e8 fd 88 	ld.d	r8,r6[-632]
80006c92:	fa e9 00 00 	st.d	sp[0],r8
80006c96:	c1 88       	rjmp	80006cc6 <_vfprintf_r+0xd96>
80006c98:	fa c8 f9 50 	sub	r8,sp,-1712
80006c9c:	1a d8       	st.w	--sp,r8
80006c9e:	fa c8 fa b8 	sub	r8,sp,-1352
80006ca2:	04 9a       	mov	r10,r2
80006ca4:	1a d8       	st.w	--sp,r8
80006ca6:	0c 9b       	mov	r11,r6
80006ca8:	fa c8 fb b4 	sub	r8,sp,-1100
80006cac:	08 9c       	mov	r12,r4
80006cae:	1a d8       	st.w	--sp,r8
80006cb0:	fa c8 f9 40 	sub	r8,sp,-1728
80006cb4:	fa c9 ff b4 	sub	r9,sp,-76
80006cb8:	fe b0 f7 a4 	rcall	80005c00 <get_arg>
80006cbc:	2f dd       	sub	sp,-12
80006cbe:	f8 ea 00 00 	ld.d	r10,r12[0]
80006cc2:	fa eb 00 00 	st.d	sp[0],r10
80006cc6:	30 08       	mov	r8,0
80006cc8:	e0 8f 03 db 	bral	8000747e <_vfprintf_r+0x154e>
80006ccc:	ee ca ff ff 	sub	r10,r7,-1
80006cd0:	10 37       	cp.w	r7,r8
80006cd2:	c0 b4       	brge	80006ce8 <_vfprintf_r+0xdb8>
80006cd4:	fa c9 f9 44 	sub	r9,sp,-1724
80006cd8:	14 97       	mov	r7,r10
80006cda:	f2 06 00 36 	add	r6,r9,r6<<0x3
80006cde:	ec ea fd 88 	ld.d	r10,r6[-632]
80006ce2:	fa eb 00 00 	st.d	sp[0],r10
80006ce6:	c1 88       	rjmp	80006d16 <_vfprintf_r+0xde6>
80006ce8:	41 09       	lddsp	r9,sp[0x40]
80006cea:	59 f8       	cp.w	r8,31
80006cec:	e0 89 00 18 	brgt	80006d1c <_vfprintf_r+0xdec>
80006cf0:	f2 e6 00 00 	ld.d	r6,r9[0]
80006cf4:	f2 cb ff f8 	sub	r11,r9,-8
80006cf8:	fa e7 00 00 	st.d	sp[0],r6
80006cfc:	51 0b       	stdsp	sp[0x40],r11
80006cfe:	fa c6 f9 44 	sub	r6,sp,-1724
80006d02:	ec 08 00 39 	add	r9,r6,r8<<0x3
80006d06:	fa e6 00 00 	ld.d	r6,sp[0]
80006d0a:	f2 e7 fd 88 	st.d	r9[-632],r6
80006d0e:	2f f8       	sub	r8,-1
80006d10:	14 97       	mov	r7,r10
80006d12:	fb 48 06 b4 	st.w	sp[1716],r8
80006d16:	40 38       	lddsp	r8,sp[0xc]
80006d18:	e0 8f 03 b3 	bral	8000747e <_vfprintf_r+0x154e>
80006d1c:	f2 e6 00 00 	ld.d	r6,r9[0]
80006d20:	40 38       	lddsp	r8,sp[0xc]
80006d22:	fa e7 00 00 	st.d	sp[0],r6
80006d26:	2f 89       	sub	r9,-8
80006d28:	14 97       	mov	r7,r10
80006d2a:	51 09       	stdsp	sp[0x40],r9
80006d2c:	e0 8f 03 a9 	bral	8000747e <_vfprintf_r+0x154e>
80006d30:	ed b5 00 04 	bld	r5,0x4
80006d34:	c1 61       	brne	80006d60 <_vfprintf_r+0xe30>
80006d36:	fa f8 06 b4 	ld.w	r8,sp[1716]
80006d3a:	40 3e       	lddsp	lr,sp[0xc]
80006d3c:	58 0e       	cp.w	lr,0
80006d3e:	c0 80       	breq	80006d4e <_vfprintf_r+0xe1e>
80006d40:	10 36       	cp.w	r6,r8
80006d42:	c6 74       	brge	80006e10 <_vfprintf_r+0xee0>
80006d44:	fa cc f9 44 	sub	r12,sp,-1724
80006d48:	f8 06 00 36 	add	r6,r12,r6<<0x3
80006d4c:	c8 08       	rjmp	80006e4c <_vfprintf_r+0xf1c>
80006d4e:	ee ca ff ff 	sub	r10,r7,-1
80006d52:	10 37       	cp.w	r7,r8
80006d54:	c7 f4       	brge	80006e52 <_vfprintf_r+0xf22>
80006d56:	fa cb f9 44 	sub	r11,sp,-1724
80006d5a:	f6 06 00 36 	add	r6,r11,r6<<0x3
80006d5e:	c7 68       	rjmp	80006e4a <_vfprintf_r+0xf1a>
80006d60:	ed b5 00 06 	bld	r5,0x6
80006d64:	c4 a1       	brne	80006df8 <_vfprintf_r+0xec8>
80006d66:	fa f8 06 b4 	ld.w	r8,sp[1716]
80006d6a:	40 3c       	lddsp	r12,sp[0xc]
80006d6c:	58 0c       	cp.w	r12,0
80006d6e:	c1 d0       	breq	80006da8 <_vfprintf_r+0xe78>
80006d70:	10 36       	cp.w	r6,r8
80006d72:	c0 64       	brge	80006d7e <_vfprintf_r+0xe4e>
80006d74:	fa cb f9 44 	sub	r11,sp,-1724
80006d78:	f6 06 00 36 	add	r6,r11,r6<<0x3
80006d7c:	c1 f8       	rjmp	80006dba <_vfprintf_r+0xe8a>
80006d7e:	fa c8 f9 50 	sub	r8,sp,-1712
80006d82:	1a d8       	st.w	--sp,r8
80006d84:	fa c8 fa b8 	sub	r8,sp,-1352
80006d88:	1a d8       	st.w	--sp,r8
80006d8a:	fa c8 fb b4 	sub	r8,sp,-1100
80006d8e:	1a d8       	st.w	--sp,r8
80006d90:	fa c8 f9 40 	sub	r8,sp,-1728
80006d94:	fa c9 ff b4 	sub	r9,sp,-76
80006d98:	04 9a       	mov	r10,r2
80006d9a:	0c 9b       	mov	r11,r6
80006d9c:	08 9c       	mov	r12,r4
80006d9e:	fe b0 f7 31 	rcall	80005c00 <get_arg>
80006da2:	2f dd       	sub	sp,-12
80006da4:	98 18       	ld.sh	r8,r12[0x2]
80006da6:	c2 68       	rjmp	80006df2 <_vfprintf_r+0xec2>
80006da8:	ee ca ff ff 	sub	r10,r7,-1
80006dac:	10 37       	cp.w	r7,r8
80006dae:	c0 94       	brge	80006dc0 <_vfprintf_r+0xe90>
80006db0:	fa c9 f9 44 	sub	r9,sp,-1724
80006db4:	14 97       	mov	r7,r10
80006db6:	f2 06 00 36 	add	r6,r9,r6<<0x3
80006dba:	ed 08 fd 8a 	ld.sh	r8,r6[-630]
80006dbe:	c1 a8       	rjmp	80006df2 <_vfprintf_r+0xec2>
80006dc0:	41 09       	lddsp	r9,sp[0x40]
80006dc2:	59 f8       	cp.w	r8,31
80006dc4:	e0 89 00 13 	brgt	80006dea <_vfprintf_r+0xeba>
80006dc8:	f2 cb ff fc 	sub	r11,r9,-4
80006dcc:	51 0b       	stdsp	sp[0x40],r11
80006dce:	72 09       	ld.w	r9,r9[0x0]
80006dd0:	fa c6 f9 44 	sub	r6,sp,-1724
80006dd4:	ec 08 00 3b 	add	r11,r6,r8<<0x3
80006dd8:	2f f8       	sub	r8,-1
80006dda:	f7 49 fd 88 	st.w	r11[-632],r9
80006dde:	fb 48 06 b4 	st.w	sp[1716],r8
80006de2:	14 97       	mov	r7,r10
80006de4:	f1 d9 b0 10 	bfexts	r8,r9,0x0,0x10
80006de8:	c0 58       	rjmp	80006df2 <_vfprintf_r+0xec2>
80006dea:	92 18       	ld.sh	r8,r9[0x2]
80006dec:	14 97       	mov	r7,r10
80006dee:	2f c9       	sub	r9,-4
80006df0:	51 09       	stdsp	sp[0x40],r9
80006df2:	5c 78       	castu.h	r8
80006df4:	50 18       	stdsp	sp[0x4],r8
80006df6:	c4 68       	rjmp	80006e82 <_vfprintf_r+0xf52>
80006df8:	fa f8 06 b4 	ld.w	r8,sp[1716]
80006dfc:	40 3c       	lddsp	r12,sp[0xc]
80006dfe:	58 0c       	cp.w	r12,0
80006e00:	c1 d0       	breq	80006e3a <_vfprintf_r+0xf0a>
80006e02:	10 36       	cp.w	r6,r8
80006e04:	c0 64       	brge	80006e10 <_vfprintf_r+0xee0>
80006e06:	fa cb f9 44 	sub	r11,sp,-1724
80006e0a:	f6 06 00 36 	add	r6,r11,r6<<0x3
80006e0e:	c1 f8       	rjmp	80006e4c <_vfprintf_r+0xf1c>
80006e10:	fa c8 f9 50 	sub	r8,sp,-1712
80006e14:	1a d8       	st.w	--sp,r8
80006e16:	fa c8 fa b8 	sub	r8,sp,-1352
80006e1a:	0c 9b       	mov	r11,r6
80006e1c:	1a d8       	st.w	--sp,r8
80006e1e:	fa c8 fb b4 	sub	r8,sp,-1100
80006e22:	04 9a       	mov	r10,r2
80006e24:	1a d8       	st.w	--sp,r8
80006e26:	08 9c       	mov	r12,r4
80006e28:	fa c8 f9 40 	sub	r8,sp,-1728
80006e2c:	fa c9 ff b4 	sub	r9,sp,-76
80006e30:	fe b0 f6 e8 	rcall	80005c00 <get_arg>
80006e34:	2f dd       	sub	sp,-12
80006e36:	78 0b       	ld.w	r11,r12[0x0]
80006e38:	c2 48       	rjmp	80006e80 <_vfprintf_r+0xf50>
80006e3a:	ee ca ff ff 	sub	r10,r7,-1
80006e3e:	10 37       	cp.w	r7,r8
80006e40:	c0 94       	brge	80006e52 <_vfprintf_r+0xf22>
80006e42:	fa c9 f9 44 	sub	r9,sp,-1724
80006e46:	f2 06 00 36 	add	r6,r9,r6<<0x3
80006e4a:	14 97       	mov	r7,r10
80006e4c:	ec fb fd 88 	ld.w	r11,r6[-632]
80006e50:	c1 88       	rjmp	80006e80 <_vfprintf_r+0xf50>
80006e52:	41 09       	lddsp	r9,sp[0x40]
80006e54:	59 f8       	cp.w	r8,31
80006e56:	e0 89 00 11 	brgt	80006e78 <_vfprintf_r+0xf48>
80006e5a:	f2 cb ff fc 	sub	r11,r9,-4
80006e5e:	51 0b       	stdsp	sp[0x40],r11
80006e60:	fa c6 f9 44 	sub	r6,sp,-1724
80006e64:	72 0b       	ld.w	r11,r9[0x0]
80006e66:	ec 08 00 39 	add	r9,r6,r8<<0x3
80006e6a:	f3 4b fd 88 	st.w	r9[-632],r11
80006e6e:	2f f8       	sub	r8,-1
80006e70:	14 97       	mov	r7,r10
80006e72:	fb 48 06 b4 	st.w	sp[1716],r8
80006e76:	c0 58       	rjmp	80006e80 <_vfprintf_r+0xf50>
80006e78:	72 0b       	ld.w	r11,r9[0x0]
80006e7a:	14 97       	mov	r7,r10
80006e7c:	2f c9       	sub	r9,-4
80006e7e:	51 09       	stdsp	sp[0x40],r9
80006e80:	50 1b       	stdsp	sp[0x4],r11
80006e82:	30 0e       	mov	lr,0
80006e84:	50 0e       	stdsp	sp[0x0],lr
80006e86:	1c 98       	mov	r8,lr
80006e88:	e0 8f 02 fb 	bral	8000747e <_vfprintf_r+0x154e>
80006e8c:	50 a7       	stdsp	sp[0x28],r7
80006e8e:	50 80       	stdsp	sp[0x20],r0
80006e90:	0c 97       	mov	r7,r6
80006e92:	04 94       	mov	r4,r2
80006e94:	06 96       	mov	r6,r3
80006e96:	02 92       	mov	r2,r1
80006e98:	40 93       	lddsp	r3,sp[0x24]
80006e9a:	40 41       	lddsp	r1,sp[0x10]
80006e9c:	0e 99       	mov	r9,r7
80006e9e:	fa f8 06 b4 	ld.w	r8,sp[1716]
80006ea2:	40 3c       	lddsp	r12,sp[0xc]
80006ea4:	58 0c       	cp.w	r12,0
80006ea6:	c1 d0       	breq	80006ee0 <_vfprintf_r+0xfb0>
80006ea8:	10 36       	cp.w	r6,r8
80006eaa:	c0 64       	brge	80006eb6 <_vfprintf_r+0xf86>
80006eac:	fa cb f9 44 	sub	r11,sp,-1724
80006eb0:	f6 06 00 36 	add	r6,r11,r6<<0x3
80006eb4:	c1 d8       	rjmp	80006eee <_vfprintf_r+0xfbe>
80006eb6:	fa c8 f9 50 	sub	r8,sp,-1712
80006eba:	1a d8       	st.w	--sp,r8
80006ebc:	fa c8 fa b8 	sub	r8,sp,-1352
80006ec0:	1a d8       	st.w	--sp,r8
80006ec2:	fa c8 fb b4 	sub	r8,sp,-1100
80006ec6:	1a d8       	st.w	--sp,r8
80006ec8:	fa c9 ff b4 	sub	r9,sp,-76
80006ecc:	fa c8 f9 40 	sub	r8,sp,-1728
80006ed0:	04 9a       	mov	r10,r2
80006ed2:	0c 9b       	mov	r11,r6
80006ed4:	08 9c       	mov	r12,r4
80006ed6:	fe b0 f6 95 	rcall	80005c00 <get_arg>
80006eda:	2f dd       	sub	sp,-12
80006edc:	78 09       	ld.w	r9,r12[0x0]
80006ede:	c2 18       	rjmp	80006f20 <_vfprintf_r+0xff0>
80006ee0:	2f f7       	sub	r7,-1
80006ee2:	10 39       	cp.w	r9,r8
80006ee4:	c0 84       	brge	80006ef4 <_vfprintf_r+0xfc4>
80006ee6:	fa ca f9 44 	sub	r10,sp,-1724
80006eea:	f4 06 00 36 	add	r6,r10,r6<<0x3
80006eee:	ec f9 fd 88 	ld.w	r9,r6[-632]
80006ef2:	c1 78       	rjmp	80006f20 <_vfprintf_r+0xff0>
80006ef4:	41 09       	lddsp	r9,sp[0x40]
80006ef6:	59 f8       	cp.w	r8,31
80006ef8:	e0 89 00 10 	brgt	80006f18 <_vfprintf_r+0xfe8>
80006efc:	f2 ca ff fc 	sub	r10,r9,-4
80006f00:	51 0a       	stdsp	sp[0x40],r10
80006f02:	fa c6 f9 44 	sub	r6,sp,-1724
80006f06:	72 09       	ld.w	r9,r9[0x0]
80006f08:	ec 08 00 3a 	add	r10,r6,r8<<0x3
80006f0c:	f5 49 fd 88 	st.w	r10[-632],r9
80006f10:	2f f8       	sub	r8,-1
80006f12:	fb 48 06 b4 	st.w	sp[1716],r8
80006f16:	c0 58       	rjmp	80006f20 <_vfprintf_r+0xff0>
80006f18:	f2 c8 ff fc 	sub	r8,r9,-4
80006f1c:	51 08       	stdsp	sp[0x40],r8
80006f1e:	72 09       	ld.w	r9,r9[0x0]
80006f20:	33 08       	mov	r8,48
80006f22:	fb 68 06 b8 	st.b	sp[1720],r8
80006f26:	37 88       	mov	r8,120
80006f28:	30 0e       	mov	lr,0
80006f2a:	fb 68 06 b9 	st.b	sp[1721],r8
80006f2e:	fe cc b6 3e 	sub	r12,pc,-18882
80006f32:	50 19       	stdsp	sp[0x4],r9
80006f34:	a1 b5       	sbr	r5,0x1
80006f36:	50 0e       	stdsp	sp[0x0],lr
80006f38:	50 dc       	stdsp	sp[0x34],r12
80006f3a:	30 28       	mov	r8,2
80006f3c:	37 80       	mov	r0,120
80006f3e:	e0 8f 02 a0 	bral	8000747e <_vfprintf_r+0x154e>
80006f42:	50 a7       	stdsp	sp[0x28],r7
80006f44:	50 80       	stdsp	sp[0x20],r0
80006f46:	10 90       	mov	r0,r8
80006f48:	30 08       	mov	r8,0
80006f4a:	fb 68 06 bb 	st.b	sp[1723],r8
80006f4e:	0c 97       	mov	r7,r6
80006f50:	04 94       	mov	r4,r2
80006f52:	06 96       	mov	r6,r3
80006f54:	02 92       	mov	r2,r1
80006f56:	40 93       	lddsp	r3,sp[0x24]
80006f58:	40 41       	lddsp	r1,sp[0x10]
80006f5a:	0e 99       	mov	r9,r7
80006f5c:	fa f8 06 b4 	ld.w	r8,sp[1716]
80006f60:	40 3b       	lddsp	r11,sp[0xc]
80006f62:	58 0b       	cp.w	r11,0
80006f64:	c1 d0       	breq	80006f9e <_vfprintf_r+0x106e>
80006f66:	10 36       	cp.w	r6,r8
80006f68:	c0 64       	brge	80006f74 <_vfprintf_r+0x1044>
80006f6a:	fa ca f9 44 	sub	r10,sp,-1724
80006f6e:	f4 06 00 36 	add	r6,r10,r6<<0x3
80006f72:	c1 d8       	rjmp	80006fac <_vfprintf_r+0x107c>
80006f74:	fa c8 f9 50 	sub	r8,sp,-1712
80006f78:	1a d8       	st.w	--sp,r8
80006f7a:	fa c8 fa b8 	sub	r8,sp,-1352
80006f7e:	1a d8       	st.w	--sp,r8
80006f80:	fa c8 fb b4 	sub	r8,sp,-1100
80006f84:	0c 9b       	mov	r11,r6
80006f86:	1a d8       	st.w	--sp,r8
80006f88:	04 9a       	mov	r10,r2
80006f8a:	fa c8 f9 40 	sub	r8,sp,-1728
80006f8e:	fa c9 ff b4 	sub	r9,sp,-76
80006f92:	08 9c       	mov	r12,r4
80006f94:	fe b0 f6 36 	rcall	80005c00 <get_arg>
80006f98:	2f dd       	sub	sp,-12
80006f9a:	78 06       	ld.w	r6,r12[0x0]
80006f9c:	c2 08       	rjmp	80006fdc <_vfprintf_r+0x10ac>
80006f9e:	2f f7       	sub	r7,-1
80006fa0:	10 39       	cp.w	r9,r8
80006fa2:	c0 84       	brge	80006fb2 <_vfprintf_r+0x1082>
80006fa4:	fa c9 f9 44 	sub	r9,sp,-1724
80006fa8:	f2 06 00 36 	add	r6,r9,r6<<0x3
80006fac:	ec f6 fd 88 	ld.w	r6,r6[-632]
80006fb0:	c1 68       	rjmp	80006fdc <_vfprintf_r+0x10ac>
80006fb2:	41 09       	lddsp	r9,sp[0x40]
80006fb4:	59 f8       	cp.w	r8,31
80006fb6:	e0 89 00 10 	brgt	80006fd6 <_vfprintf_r+0x10a6>
80006fba:	f2 ca ff fc 	sub	r10,r9,-4
80006fbe:	51 0a       	stdsp	sp[0x40],r10
80006fc0:	72 06       	ld.w	r6,r9[0x0]
80006fc2:	fa ce f9 44 	sub	lr,sp,-1724
80006fc6:	fc 08 00 39 	add	r9,lr,r8<<0x3
80006fca:	f3 46 fd 88 	st.w	r9[-632],r6
80006fce:	2f f8       	sub	r8,-1
80006fd0:	fb 48 06 b4 	st.w	sp[1716],r8
80006fd4:	c0 48       	rjmp	80006fdc <_vfprintf_r+0x10ac>
80006fd6:	72 06       	ld.w	r6,r9[0x0]
80006fd8:	2f c9       	sub	r9,-4
80006fda:	51 09       	stdsp	sp[0x40],r9
80006fdc:	40 2c       	lddsp	r12,sp[0x8]
80006fde:	58 0c       	cp.w	r12,0
80006fe0:	c1 05       	brlt	80007000 <_vfprintf_r+0x10d0>
80006fe2:	18 9a       	mov	r10,r12
80006fe4:	30 0b       	mov	r11,0
80006fe6:	0c 9c       	mov	r12,r6
80006fe8:	e0 a0 14 52 	rcall	8000988c <memchr>
80006fec:	e0 80 02 dc 	breq	800075a4 <_vfprintf_r+0x1674>
80006ff0:	f8 06 01 02 	sub	r2,r12,r6
80006ff4:	40 2b       	lddsp	r11,sp[0x8]
80006ff6:	16 32       	cp.w	r2,r11
80006ff8:	e0 89 02 d6 	brgt	800075a4 <_vfprintf_r+0x1674>
80006ffc:	e0 8f 02 d1 	bral	8000759e <_vfprintf_r+0x166e>
80007000:	30 0a       	mov	r10,0
80007002:	0c 9c       	mov	r12,r6
80007004:	50 2a       	stdsp	sp[0x8],r10
80007006:	e0 a0 19 33 	rcall	8000a26c <strlen>
8000700a:	18 92       	mov	r2,r12
8000700c:	e0 8f 02 cf 	bral	800075aa <_vfprintf_r+0x167a>
80007010:	50 a7       	stdsp	sp[0x28],r7
80007012:	50 80       	stdsp	sp[0x20],r0
80007014:	0c 97       	mov	r7,r6
80007016:	04 94       	mov	r4,r2
80007018:	06 96       	mov	r6,r3
8000701a:	02 92       	mov	r2,r1
8000701c:	40 93       	lddsp	r3,sp[0x24]
8000701e:	10 90       	mov	r0,r8
80007020:	40 41       	lddsp	r1,sp[0x10]
80007022:	a5 a5       	sbr	r5,0x4
80007024:	c0 a8       	rjmp	80007038 <_vfprintf_r+0x1108>
80007026:	50 a7       	stdsp	sp[0x28],r7
80007028:	50 80       	stdsp	sp[0x20],r0
8000702a:	0c 97       	mov	r7,r6
8000702c:	04 94       	mov	r4,r2
8000702e:	06 96       	mov	r6,r3
80007030:	02 92       	mov	r2,r1
80007032:	40 93       	lddsp	r3,sp[0x24]
80007034:	10 90       	mov	r0,r8
80007036:	40 41       	lddsp	r1,sp[0x10]
80007038:	ed b5 00 05 	bld	r5,0x5
8000703c:	c5 61       	brne	800070e8 <_vfprintf_r+0x11b8>
8000703e:	fa f8 06 b4 	ld.w	r8,sp[1716]
80007042:	40 39       	lddsp	r9,sp[0xc]
80007044:	58 09       	cp.w	r9,0
80007046:	c2 10       	breq	80007088 <_vfprintf_r+0x1158>
80007048:	10 36       	cp.w	r6,r8
8000704a:	c0 74       	brge	80007058 <_vfprintf_r+0x1128>
8000704c:	fa c8 f9 44 	sub	r8,sp,-1724
80007050:	f0 06 00 36 	add	r6,r8,r6<<0x3
80007054:	c2 38       	rjmp	8000709a <_vfprintf_r+0x116a>
80007056:	d7 03       	nop
80007058:	fa c8 f9 50 	sub	r8,sp,-1712
8000705c:	1a d8       	st.w	--sp,r8
8000705e:	fa c8 fa b8 	sub	r8,sp,-1352
80007062:	1a d8       	st.w	--sp,r8
80007064:	fa c8 fb b4 	sub	r8,sp,-1100
80007068:	1a d8       	st.w	--sp,r8
8000706a:	fa c8 f9 40 	sub	r8,sp,-1728
8000706e:	fa c9 ff b4 	sub	r9,sp,-76
80007072:	04 9a       	mov	r10,r2
80007074:	0c 9b       	mov	r11,r6
80007076:	08 9c       	mov	r12,r4
80007078:	fe b0 f5 c4 	rcall	80005c00 <get_arg>
8000707c:	2f dd       	sub	sp,-12
8000707e:	f8 e8 00 00 	ld.d	r8,r12[0]
80007082:	fa e9 00 00 	st.d	sp[0],r8
80007086:	c2 e8       	rjmp	800070e2 <_vfprintf_r+0x11b2>
80007088:	ee ca ff ff 	sub	r10,r7,-1
8000708c:	10 37       	cp.w	r7,r8
8000708e:	c0 b4       	brge	800070a4 <_vfprintf_r+0x1174>
80007090:	fa c8 f9 44 	sub	r8,sp,-1724
80007094:	14 97       	mov	r7,r10
80007096:	f0 06 00 36 	add	r6,r8,r6<<0x3
8000709a:	ec ea fd 88 	ld.d	r10,r6[-632]
8000709e:	fa eb 00 00 	st.d	sp[0],r10
800070a2:	c2 08       	rjmp	800070e2 <_vfprintf_r+0x11b2>
800070a4:	41 09       	lddsp	r9,sp[0x40]
800070a6:	59 f8       	cp.w	r8,31
800070a8:	e0 89 00 16 	brgt	800070d4 <_vfprintf_r+0x11a4>
800070ac:	f2 e6 00 00 	ld.d	r6,r9[0]
800070b0:	f2 cb ff f8 	sub	r11,r9,-8
800070b4:	fa e7 00 00 	st.d	sp[0],r6
800070b8:	51 0b       	stdsp	sp[0x40],r11
800070ba:	fa c6 f9 44 	sub	r6,sp,-1724
800070be:	ec 08 00 39 	add	r9,r6,r8<<0x3
800070c2:	fa e6 00 00 	ld.d	r6,sp[0]
800070c6:	f2 e7 fd 88 	st.d	r9[-632],r6
800070ca:	2f f8       	sub	r8,-1
800070cc:	14 97       	mov	r7,r10
800070ce:	fb 48 06 b4 	st.w	sp[1716],r8
800070d2:	c0 88       	rjmp	800070e2 <_vfprintf_r+0x11b2>
800070d4:	f2 e6 00 00 	ld.d	r6,r9[0]
800070d8:	2f 89       	sub	r9,-8
800070da:	fa e7 00 00 	st.d	sp[0],r6
800070de:	51 09       	stdsp	sp[0x40],r9
800070e0:	14 97       	mov	r7,r10
800070e2:	30 18       	mov	r8,1
800070e4:	e0 8f 01 cd 	bral	8000747e <_vfprintf_r+0x154e>
800070e8:	ed b5 00 04 	bld	r5,0x4
800070ec:	c1 61       	brne	80007118 <_vfprintf_r+0x11e8>
800070ee:	fa f8 06 b4 	ld.w	r8,sp[1716]
800070f2:	40 3e       	lddsp	lr,sp[0xc]
800070f4:	58 0e       	cp.w	lr,0
800070f6:	c0 80       	breq	80007106 <_vfprintf_r+0x11d6>
800070f8:	10 36       	cp.w	r6,r8
800070fa:	c6 74       	brge	800071c8 <_vfprintf_r+0x1298>
800070fc:	fa cc f9 44 	sub	r12,sp,-1724
80007100:	f8 06 00 36 	add	r6,r12,r6<<0x3
80007104:	c8 08       	rjmp	80007204 <_vfprintf_r+0x12d4>
80007106:	ee ca ff ff 	sub	r10,r7,-1
8000710a:	10 37       	cp.w	r7,r8
8000710c:	c7 f4       	brge	8000720a <_vfprintf_r+0x12da>
8000710e:	fa cb f9 44 	sub	r11,sp,-1724
80007112:	f6 06 00 36 	add	r6,r11,r6<<0x3
80007116:	c7 68       	rjmp	80007202 <_vfprintf_r+0x12d2>
80007118:	ed b5 00 06 	bld	r5,0x6
8000711c:	c4 a1       	brne	800071b0 <_vfprintf_r+0x1280>
8000711e:	fa f8 06 b4 	ld.w	r8,sp[1716]
80007122:	40 3c       	lddsp	r12,sp[0xc]
80007124:	58 0c       	cp.w	r12,0
80007126:	c1 d0       	breq	80007160 <_vfprintf_r+0x1230>
80007128:	10 36       	cp.w	r6,r8
8000712a:	c0 64       	brge	80007136 <_vfprintf_r+0x1206>
8000712c:	fa cb f9 44 	sub	r11,sp,-1724
80007130:	f6 06 00 36 	add	r6,r11,r6<<0x3
80007134:	c1 f8       	rjmp	80007172 <_vfprintf_r+0x1242>
80007136:	fa c8 f9 50 	sub	r8,sp,-1712
8000713a:	1a d8       	st.w	--sp,r8
8000713c:	fa c8 fa b8 	sub	r8,sp,-1352
80007140:	1a d8       	st.w	--sp,r8
80007142:	fa c8 fb b4 	sub	r8,sp,-1100
80007146:	1a d8       	st.w	--sp,r8
80007148:	fa c8 f9 40 	sub	r8,sp,-1728
8000714c:	fa c9 ff b4 	sub	r9,sp,-76
80007150:	04 9a       	mov	r10,r2
80007152:	0c 9b       	mov	r11,r6
80007154:	08 9c       	mov	r12,r4
80007156:	fe b0 f5 55 	rcall	80005c00 <get_arg>
8000715a:	2f dd       	sub	sp,-12
8000715c:	98 18       	ld.sh	r8,r12[0x2]
8000715e:	c2 68       	rjmp	800071aa <_vfprintf_r+0x127a>
80007160:	ee ca ff ff 	sub	r10,r7,-1
80007164:	10 37       	cp.w	r7,r8
80007166:	c0 94       	brge	80007178 <_vfprintf_r+0x1248>
80007168:	fa c9 f9 44 	sub	r9,sp,-1724
8000716c:	14 97       	mov	r7,r10
8000716e:	f2 06 00 36 	add	r6,r9,r6<<0x3
80007172:	ed 08 fd 8a 	ld.sh	r8,r6[-630]
80007176:	c1 a8       	rjmp	800071aa <_vfprintf_r+0x127a>
80007178:	41 09       	lddsp	r9,sp[0x40]
8000717a:	59 f8       	cp.w	r8,31
8000717c:	e0 89 00 13 	brgt	800071a2 <_vfprintf_r+0x1272>
80007180:	f2 cb ff fc 	sub	r11,r9,-4
80007184:	51 0b       	stdsp	sp[0x40],r11
80007186:	72 09       	ld.w	r9,r9[0x0]
80007188:	fa c6 f9 44 	sub	r6,sp,-1724
8000718c:	ec 08 00 3b 	add	r11,r6,r8<<0x3
80007190:	2f f8       	sub	r8,-1
80007192:	f7 49 fd 88 	st.w	r11[-632],r9
80007196:	fb 48 06 b4 	st.w	sp[1716],r8
8000719a:	14 97       	mov	r7,r10
8000719c:	f1 d9 b0 10 	bfexts	r8,r9,0x0,0x10
800071a0:	c0 58       	rjmp	800071aa <_vfprintf_r+0x127a>
800071a2:	92 18       	ld.sh	r8,r9[0x2]
800071a4:	14 97       	mov	r7,r10
800071a6:	2f c9       	sub	r9,-4
800071a8:	51 09       	stdsp	sp[0x40],r9
800071aa:	5c 78       	castu.h	r8
800071ac:	50 18       	stdsp	sp[0x4],r8
800071ae:	c4 68       	rjmp	8000723a <_vfprintf_r+0x130a>
800071b0:	fa f8 06 b4 	ld.w	r8,sp[1716]
800071b4:	40 3c       	lddsp	r12,sp[0xc]
800071b6:	58 0c       	cp.w	r12,0
800071b8:	c1 d0       	breq	800071f2 <_vfprintf_r+0x12c2>
800071ba:	10 36       	cp.w	r6,r8
800071bc:	c0 64       	brge	800071c8 <_vfprintf_r+0x1298>
800071be:	fa cb f9 44 	sub	r11,sp,-1724
800071c2:	f6 06 00 36 	add	r6,r11,r6<<0x3
800071c6:	c1 f8       	rjmp	80007204 <_vfprintf_r+0x12d4>
800071c8:	fa c8 f9 50 	sub	r8,sp,-1712
800071cc:	1a d8       	st.w	--sp,r8
800071ce:	fa c8 fa b8 	sub	r8,sp,-1352
800071d2:	0c 9b       	mov	r11,r6
800071d4:	1a d8       	st.w	--sp,r8
800071d6:	fa c8 fb b4 	sub	r8,sp,-1100
800071da:	04 9a       	mov	r10,r2
800071dc:	1a d8       	st.w	--sp,r8
800071de:	08 9c       	mov	r12,r4
800071e0:	fa c8 f9 40 	sub	r8,sp,-1728
800071e4:	fa c9 ff b4 	sub	r9,sp,-76
800071e8:	fe b0 f5 0c 	rcall	80005c00 <get_arg>
800071ec:	2f dd       	sub	sp,-12
800071ee:	78 0b       	ld.w	r11,r12[0x0]
800071f0:	c2 48       	rjmp	80007238 <_vfprintf_r+0x1308>
800071f2:	ee ca ff ff 	sub	r10,r7,-1
800071f6:	10 37       	cp.w	r7,r8
800071f8:	c0 94       	brge	8000720a <_vfprintf_r+0x12da>
800071fa:	fa c9 f9 44 	sub	r9,sp,-1724
800071fe:	f2 06 00 36 	add	r6,r9,r6<<0x3
80007202:	14 97       	mov	r7,r10
80007204:	ec fb fd 88 	ld.w	r11,r6[-632]
80007208:	c1 88       	rjmp	80007238 <_vfprintf_r+0x1308>
8000720a:	41 09       	lddsp	r9,sp[0x40]
8000720c:	59 f8       	cp.w	r8,31
8000720e:	e0 89 00 11 	brgt	80007230 <_vfprintf_r+0x1300>
80007212:	f2 cb ff fc 	sub	r11,r9,-4
80007216:	51 0b       	stdsp	sp[0x40],r11
80007218:	fa c6 f9 44 	sub	r6,sp,-1724
8000721c:	72 0b       	ld.w	r11,r9[0x0]
8000721e:	ec 08 00 39 	add	r9,r6,r8<<0x3
80007222:	f3 4b fd 88 	st.w	r9[-632],r11
80007226:	2f f8       	sub	r8,-1
80007228:	14 97       	mov	r7,r10
8000722a:	fb 48 06 b4 	st.w	sp[1716],r8
8000722e:	c0 58       	rjmp	80007238 <_vfprintf_r+0x1308>
80007230:	72 0b       	ld.w	r11,r9[0x0]
80007232:	14 97       	mov	r7,r10
80007234:	2f c9       	sub	r9,-4
80007236:	51 09       	stdsp	sp[0x40],r9
80007238:	50 1b       	stdsp	sp[0x4],r11
8000723a:	30 0e       	mov	lr,0
8000723c:	30 18       	mov	r8,1
8000723e:	50 0e       	stdsp	sp[0x0],lr
80007240:	c1 f9       	rjmp	8000747e <_vfprintf_r+0x154e>
80007242:	50 a7       	stdsp	sp[0x28],r7
80007244:	50 80       	stdsp	sp[0x20],r0
80007246:	0c 97       	mov	r7,r6
80007248:	04 94       	mov	r4,r2
8000724a:	06 96       	mov	r6,r3
8000724c:	02 92       	mov	r2,r1
8000724e:	fe cc b9 5e 	sub	r12,pc,-18082
80007252:	40 93       	lddsp	r3,sp[0x24]
80007254:	10 90       	mov	r0,r8
80007256:	40 41       	lddsp	r1,sp[0x10]
80007258:	50 dc       	stdsp	sp[0x34],r12
8000725a:	ed b5 00 05 	bld	r5,0x5
8000725e:	c5 51       	brne	80007308 <_vfprintf_r+0x13d8>
80007260:	fa f8 06 b4 	ld.w	r8,sp[1716]
80007264:	40 3b       	lddsp	r11,sp[0xc]
80007266:	58 0b       	cp.w	r11,0
80007268:	c2 20       	breq	800072ac <_vfprintf_r+0x137c>
8000726a:	10 36       	cp.w	r6,r8
8000726c:	c0 a4       	brge	80007280 <_vfprintf_r+0x1350>
8000726e:	fa ca f9 44 	sub	r10,sp,-1724
80007272:	f4 06 00 36 	add	r6,r10,r6<<0x3
80007276:	ec e8 fd 88 	ld.d	r8,r6[-632]
8000727a:	fa e9 00 00 	st.d	sp[0],r8
8000727e:	cf 28       	rjmp	80007462 <_vfprintf_r+0x1532>
80007280:	fa c8 f9 50 	sub	r8,sp,-1712
80007284:	1a d8       	st.w	--sp,r8
80007286:	fa c8 fa b8 	sub	r8,sp,-1352
8000728a:	04 9a       	mov	r10,r2
8000728c:	1a d8       	st.w	--sp,r8
8000728e:	0c 9b       	mov	r11,r6
80007290:	fa c8 fb b4 	sub	r8,sp,-1100
80007294:	08 9c       	mov	r12,r4
80007296:	1a d8       	st.w	--sp,r8
80007298:	fa c8 f9 40 	sub	r8,sp,-1728
8000729c:	fa c9 ff b4 	sub	r9,sp,-76
800072a0:	fe b0 f4 b0 	rcall	80005c00 <get_arg>
800072a4:	2f dd       	sub	sp,-12
800072a6:	f8 ea 00 00 	ld.d	r10,r12[0]
800072aa:	c0 c8       	rjmp	800072c2 <_vfprintf_r+0x1392>
800072ac:	ee ca ff ff 	sub	r10,r7,-1
800072b0:	10 37       	cp.w	r7,r8
800072b2:	c0 b4       	brge	800072c8 <_vfprintf_r+0x1398>
800072b4:	fa c9 f9 44 	sub	r9,sp,-1724
800072b8:	14 97       	mov	r7,r10
800072ba:	f2 06 00 36 	add	r6,r9,r6<<0x3
800072be:	ec ea fd 88 	ld.d	r10,r6[-632]
800072c2:	fa eb 00 00 	st.d	sp[0],r10
800072c6:	cc e8       	rjmp	80007462 <_vfprintf_r+0x1532>
800072c8:	41 09       	lddsp	r9,sp[0x40]
800072ca:	59 f8       	cp.w	r8,31
800072cc:	e0 89 00 16 	brgt	800072f8 <_vfprintf_r+0x13c8>
800072d0:	f2 e6 00 00 	ld.d	r6,r9[0]
800072d4:	f2 cb ff f8 	sub	r11,r9,-8
800072d8:	fa e7 00 00 	st.d	sp[0],r6
800072dc:	51 0b       	stdsp	sp[0x40],r11
800072de:	fa c6 f9 44 	sub	r6,sp,-1724
800072e2:	ec 08 00 39 	add	r9,r6,r8<<0x3
800072e6:	fa e6 00 00 	ld.d	r6,sp[0]
800072ea:	f2 e7 fd 88 	st.d	r9[-632],r6
800072ee:	2f f8       	sub	r8,-1
800072f0:	14 97       	mov	r7,r10
800072f2:	fb 48 06 b4 	st.w	sp[1716],r8
800072f6:	cb 68       	rjmp	80007462 <_vfprintf_r+0x1532>
800072f8:	f2 e6 00 00 	ld.d	r6,r9[0]
800072fc:	2f 89       	sub	r9,-8
800072fe:	fa e7 00 00 	st.d	sp[0],r6
80007302:	51 09       	stdsp	sp[0x40],r9
80007304:	14 97       	mov	r7,r10
80007306:	ca e8       	rjmp	80007462 <_vfprintf_r+0x1532>
80007308:	ed b5 00 04 	bld	r5,0x4
8000730c:	c1 71       	brne	8000733a <_vfprintf_r+0x140a>
8000730e:	fa f8 06 b4 	ld.w	r8,sp[1716]
80007312:	40 3e       	lddsp	lr,sp[0xc]
80007314:	58 0e       	cp.w	lr,0
80007316:	c0 80       	breq	80007326 <_vfprintf_r+0x13f6>
80007318:	10 36       	cp.w	r6,r8
8000731a:	c6 94       	brge	800073ec <_vfprintf_r+0x14bc>
8000731c:	fa cc f9 44 	sub	r12,sp,-1724
80007320:	f8 06 00 36 	add	r6,r12,r6<<0x3
80007324:	c8 28       	rjmp	80007428 <_vfprintf_r+0x14f8>
80007326:	ee ca ff ff 	sub	r10,r7,-1
8000732a:	10 37       	cp.w	r7,r8
8000732c:	e0 84 00 81 	brge	8000742e <_vfprintf_r+0x14fe>
80007330:	fa cb f9 44 	sub	r11,sp,-1724
80007334:	f6 06 00 36 	add	r6,r11,r6<<0x3
80007338:	c7 78       	rjmp	80007426 <_vfprintf_r+0x14f6>
8000733a:	ed b5 00 06 	bld	r5,0x6
8000733e:	c4 b1       	brne	800073d4 <_vfprintf_r+0x14a4>
80007340:	fa f8 06 b4 	ld.w	r8,sp[1716]
80007344:	40 3c       	lddsp	r12,sp[0xc]
80007346:	58 0c       	cp.w	r12,0
80007348:	c1 d0       	breq	80007382 <_vfprintf_r+0x1452>
8000734a:	10 36       	cp.w	r6,r8
8000734c:	c0 64       	brge	80007358 <_vfprintf_r+0x1428>
8000734e:	fa cb f9 44 	sub	r11,sp,-1724
80007352:	f6 06 00 36 	add	r6,r11,r6<<0x3
80007356:	c1 f8       	rjmp	80007394 <_vfprintf_r+0x1464>
80007358:	fa c8 f9 50 	sub	r8,sp,-1712
8000735c:	1a d8       	st.w	--sp,r8
8000735e:	fa c8 fa b8 	sub	r8,sp,-1352
80007362:	1a d8       	st.w	--sp,r8
80007364:	fa c8 fb b4 	sub	r8,sp,-1100
80007368:	1a d8       	st.w	--sp,r8
8000736a:	fa c8 f9 40 	sub	r8,sp,-1728
8000736e:	fa c9 ff b4 	sub	r9,sp,-76
80007372:	04 9a       	mov	r10,r2
80007374:	0c 9b       	mov	r11,r6
80007376:	08 9c       	mov	r12,r4
80007378:	fe b0 f4 44 	rcall	80005c00 <get_arg>
8000737c:	2f dd       	sub	sp,-12
8000737e:	98 18       	ld.sh	r8,r12[0x2]
80007380:	c2 78       	rjmp	800073ce <_vfprintf_r+0x149e>
80007382:	ee ca ff ff 	sub	r10,r7,-1
80007386:	10 37       	cp.w	r7,r8
80007388:	c0 a4       	brge	8000739c <_vfprintf_r+0x146c>
8000738a:	fa c9 f9 44 	sub	r9,sp,-1724
8000738e:	14 97       	mov	r7,r10
80007390:	f2 06 00 36 	add	r6,r9,r6<<0x3
80007394:	ed 08 fd 8a 	ld.sh	r8,r6[-630]
80007398:	c1 b8       	rjmp	800073ce <_vfprintf_r+0x149e>
8000739a:	d7 03       	nop
8000739c:	41 09       	lddsp	r9,sp[0x40]
8000739e:	59 f8       	cp.w	r8,31
800073a0:	e0 89 00 13 	brgt	800073c6 <_vfprintf_r+0x1496>
800073a4:	f2 cb ff fc 	sub	r11,r9,-4
800073a8:	51 0b       	stdsp	sp[0x40],r11
800073aa:	72 09       	ld.w	r9,r9[0x0]
800073ac:	fa c6 f9 44 	sub	r6,sp,-1724
800073b0:	ec 08 00 3b 	add	r11,r6,r8<<0x3
800073b4:	2f f8       	sub	r8,-1
800073b6:	f7 49 fd 88 	st.w	r11[-632],r9
800073ba:	fb 48 06 b4 	st.w	sp[1716],r8
800073be:	14 97       	mov	r7,r10
800073c0:	f1 d9 b0 10 	bfexts	r8,r9,0x0,0x10
800073c4:	c0 58       	rjmp	800073ce <_vfprintf_r+0x149e>
800073c6:	92 18       	ld.sh	r8,r9[0x2]
800073c8:	14 97       	mov	r7,r10
800073ca:	2f c9       	sub	r9,-4
800073cc:	51 09       	stdsp	sp[0x40],r9
800073ce:	5c 78       	castu.h	r8
800073d0:	50 18       	stdsp	sp[0x4],r8
800073d2:	c4 68       	rjmp	8000745e <_vfprintf_r+0x152e>
800073d4:	fa f8 06 b4 	ld.w	r8,sp[1716]
800073d8:	40 3c       	lddsp	r12,sp[0xc]
800073da:	58 0c       	cp.w	r12,0
800073dc:	c1 d0       	breq	80007416 <_vfprintf_r+0x14e6>
800073de:	10 36       	cp.w	r6,r8
800073e0:	c0 64       	brge	800073ec <_vfprintf_r+0x14bc>
800073e2:	fa cb f9 44 	sub	r11,sp,-1724
800073e6:	f6 06 00 36 	add	r6,r11,r6<<0x3
800073ea:	c1 f8       	rjmp	80007428 <_vfprintf_r+0x14f8>
800073ec:	fa c8 f9 50 	sub	r8,sp,-1712
800073f0:	1a d8       	st.w	--sp,r8
800073f2:	fa c8 fa b8 	sub	r8,sp,-1352
800073f6:	0c 9b       	mov	r11,r6
800073f8:	1a d8       	st.w	--sp,r8
800073fa:	fa c8 fb b4 	sub	r8,sp,-1100
800073fe:	04 9a       	mov	r10,r2
80007400:	1a d8       	st.w	--sp,r8
80007402:	08 9c       	mov	r12,r4
80007404:	fa c8 f9 40 	sub	r8,sp,-1728
80007408:	fa c9 ff b4 	sub	r9,sp,-76
8000740c:	fe b0 f3 fa 	rcall	80005c00 <get_arg>
80007410:	2f dd       	sub	sp,-12
80007412:	78 0b       	ld.w	r11,r12[0x0]
80007414:	c2 48       	rjmp	8000745c <_vfprintf_r+0x152c>
80007416:	ee ca ff ff 	sub	r10,r7,-1
8000741a:	10 37       	cp.w	r7,r8
8000741c:	c0 94       	brge	8000742e <_vfprintf_r+0x14fe>
8000741e:	fa c9 f9 44 	sub	r9,sp,-1724
80007422:	f2 06 00 36 	add	r6,r9,r6<<0x3
80007426:	14 97       	mov	r7,r10
80007428:	ec fb fd 88 	ld.w	r11,r6[-632]
8000742c:	c1 88       	rjmp	8000745c <_vfprintf_r+0x152c>
8000742e:	41 09       	lddsp	r9,sp[0x40]
80007430:	59 f8       	cp.w	r8,31
80007432:	e0 89 00 11 	brgt	80007454 <_vfprintf_r+0x1524>
80007436:	f2 cb ff fc 	sub	r11,r9,-4
8000743a:	51 0b       	stdsp	sp[0x40],r11
8000743c:	fa c6 f9 44 	sub	r6,sp,-1724
80007440:	72 0b       	ld.w	r11,r9[0x0]
80007442:	ec 08 00 39 	add	r9,r6,r8<<0x3
80007446:	f3 4b fd 88 	st.w	r9[-632],r11
8000744a:	2f f8       	sub	r8,-1
8000744c:	14 97       	mov	r7,r10
8000744e:	fb 48 06 b4 	st.w	sp[1716],r8
80007452:	c0 58       	rjmp	8000745c <_vfprintf_r+0x152c>
80007454:	72 0b       	ld.w	r11,r9[0x0]
80007456:	14 97       	mov	r7,r10
80007458:	2f c9       	sub	r9,-4
8000745a:	51 09       	stdsp	sp[0x40],r9
8000745c:	50 1b       	stdsp	sp[0x4],r11
8000745e:	30 0e       	mov	lr,0
80007460:	50 0e       	stdsp	sp[0x0],lr
80007462:	40 08       	lddsp	r8,sp[0x0]
80007464:	40 1c       	lddsp	r12,sp[0x4]
80007466:	18 48       	or	r8,r12
80007468:	5f 18       	srne	r8
8000746a:	eb e8 00 08 	and	r8,r5,r8
8000746e:	c0 70       	breq	8000747c <_vfprintf_r+0x154c>
80007470:	33 08       	mov	r8,48
80007472:	fb 60 06 b9 	st.b	sp[1721],r0
80007476:	a1 b5       	sbr	r5,0x1
80007478:	fb 68 06 b8 	st.b	sp[1720],r8
8000747c:	30 28       	mov	r8,2
8000747e:	30 09       	mov	r9,0
80007480:	fb 69 06 bb 	st.b	sp[1723],r9
80007484:	0a 99       	mov	r9,r5
80007486:	a7 d9       	cbr	r9,0x7
80007488:	40 2b       	lddsp	r11,sp[0x8]
8000748a:	40 16       	lddsp	r6,sp[0x4]
8000748c:	58 0b       	cp.w	r11,0
8000748e:	5f 1a       	srne	r10
80007490:	f2 05 17 40 	movge	r5,r9
80007494:	fa c2 f9 78 	sub	r2,sp,-1672
80007498:	40 09       	lddsp	r9,sp[0x0]
8000749a:	0c 49       	or	r9,r6
8000749c:	5f 19       	srne	r9
8000749e:	f5 e9 10 09 	or	r9,r10,r9
800074a2:	c5 c0       	breq	8000755a <_vfprintf_r+0x162a>
800074a4:	30 19       	mov	r9,1
800074a6:	f2 08 18 00 	cp.b	r8,r9
800074aa:	c0 60       	breq	800074b6 <_vfprintf_r+0x1586>
800074ac:	30 29       	mov	r9,2
800074ae:	f2 08 18 00 	cp.b	r8,r9
800074b2:	c0 41       	brne	800074ba <_vfprintf_r+0x158a>
800074b4:	c3 c8       	rjmp	8000752c <_vfprintf_r+0x15fc>
800074b6:	04 96       	mov	r6,r2
800074b8:	c3 08       	rjmp	80007518 <_vfprintf_r+0x15e8>
800074ba:	04 96       	mov	r6,r2
800074bc:	fa e8 00 00 	ld.d	r8,sp[0]
800074c0:	f5 d8 c0 03 	bfextu	r10,r8,0x0,0x3
800074c4:	2d 0a       	sub	r10,-48
800074c6:	0c fa       	st.b	--r6,r10
800074c8:	f0 0b 16 03 	lsr	r11,r8,0x3
800074cc:	f2 0c 16 03 	lsr	r12,r9,0x3
800074d0:	f7 e9 11 db 	or	r11,r11,r9<<0x1d
800074d4:	18 99       	mov	r9,r12
800074d6:	16 98       	mov	r8,r11
800074d8:	58 08       	cp.w	r8,0
800074da:	5c 29       	cpc	r9
800074dc:	cf 21       	brne	800074c0 <_vfprintf_r+0x1590>
800074de:	fa e9 00 00 	st.d	sp[0],r8
800074e2:	ed b5 00 00 	bld	r5,0x0
800074e6:	c4 51       	brne	80007570 <_vfprintf_r+0x1640>
800074e8:	33 09       	mov	r9,48
800074ea:	f2 0a 18 00 	cp.b	r10,r9
800074ee:	c4 10       	breq	80007570 <_vfprintf_r+0x1640>
800074f0:	0c f9       	st.b	--r6,r9
800074f2:	c3 f8       	rjmp	80007570 <_vfprintf_r+0x1640>
800074f4:	fa ea 00 00 	ld.d	r10,sp[0]
800074f8:	30 a8       	mov	r8,10
800074fa:	30 09       	mov	r9,0
800074fc:	e0 a0 1d 08 	rcall	8000af0c <__avr32_umod64>
80007500:	30 a8       	mov	r8,10
80007502:	2d 0a       	sub	r10,-48
80007504:	30 09       	mov	r9,0
80007506:	ac 8a       	st.b	r6[0x0],r10
80007508:	fa ea 00 00 	ld.d	r10,sp[0]
8000750c:	fe b0 f0 be 	rcall	80005688 <__avr32_udiv64>
80007510:	16 99       	mov	r9,r11
80007512:	14 98       	mov	r8,r10
80007514:	fa e9 00 00 	st.d	sp[0],r8
80007518:	20 16       	sub	r6,1
8000751a:	fa ea 00 00 	ld.d	r10,sp[0]
8000751e:	58 9a       	cp.w	r10,9
80007520:	5c 2b       	cpc	r11
80007522:	fe 9b ff e9 	brhi	800074f4 <_vfprintf_r+0x15c4>
80007526:	1b f8       	ld.ub	r8,sp[0x7]
80007528:	2d 08       	sub	r8,-48
8000752a:	c2 08       	rjmp	8000756a <_vfprintf_r+0x163a>
8000752c:	04 96       	mov	r6,r2
8000752e:	fa e8 00 00 	ld.d	r8,sp[0]
80007532:	f5 d8 c0 04 	bfextu	r10,r8,0x0,0x4
80007536:	40 de       	lddsp	lr,sp[0x34]
80007538:	fc 0a 07 0a 	ld.ub	r10,lr[r10]
8000753c:	0c fa       	st.b	--r6,r10
8000753e:	f2 0b 16 04 	lsr	r11,r9,0x4
80007542:	f0 0a 16 04 	lsr	r10,r8,0x4
80007546:	f5 e9 11 ca 	or	r10,r10,r9<<0x1c
8000754a:	16 99       	mov	r9,r11
8000754c:	14 98       	mov	r8,r10
8000754e:	58 08       	cp.w	r8,0
80007550:	5c 29       	cpc	r9
80007552:	cf 01       	brne	80007532 <_vfprintf_r+0x1602>
80007554:	fa e9 00 00 	st.d	sp[0],r8
80007558:	c0 c8       	rjmp	80007570 <_vfprintf_r+0x1640>
8000755a:	58 08       	cp.w	r8,0
8000755c:	c0 91       	brne	8000756e <_vfprintf_r+0x163e>
8000755e:	ed b5 00 00 	bld	r5,0x0
80007562:	c0 61       	brne	8000756e <_vfprintf_r+0x163e>
80007564:	fa c6 f9 79 	sub	r6,sp,-1671
80007568:	33 08       	mov	r8,48
8000756a:	ac 88       	st.b	r6[0x0],r8
8000756c:	c0 28       	rjmp	80007570 <_vfprintf_r+0x1640>
8000756e:	04 96       	mov	r6,r2
80007570:	0c 12       	sub	r2,r6
80007572:	c1 c8       	rjmp	800075aa <_vfprintf_r+0x167a>
80007574:	50 a7       	stdsp	sp[0x28],r7
80007576:	50 80       	stdsp	sp[0x20],r0
80007578:	40 93       	lddsp	r3,sp[0x24]
8000757a:	0c 97       	mov	r7,r6
8000757c:	10 90       	mov	r0,r8
8000757e:	04 94       	mov	r4,r2
80007580:	40 41       	lddsp	r1,sp[0x10]
80007582:	58 08       	cp.w	r8,0
80007584:	e0 80 04 48 	breq	80007e14 <_vfprintf_r+0x1ee4>
80007588:	fb 68 06 60 	st.b	sp[1632],r8
8000758c:	30 0c       	mov	r12,0
8000758e:	30 08       	mov	r8,0
80007590:	30 12       	mov	r2,1
80007592:	fb 68 06 bb 	st.b	sp[1723],r8
80007596:	50 2c       	stdsp	sp[0x8],r12
80007598:	fa c6 f9 a0 	sub	r6,sp,-1632
8000759c:	c0 78       	rjmp	800075aa <_vfprintf_r+0x167a>
8000759e:	30 0b       	mov	r11,0
800075a0:	50 2b       	stdsp	sp[0x8],r11
800075a2:	c0 48       	rjmp	800075aa <_vfprintf_r+0x167a>
800075a4:	40 22       	lddsp	r2,sp[0x8]
800075a6:	30 0a       	mov	r10,0
800075a8:	50 2a       	stdsp	sp[0x8],r10
800075aa:	40 29       	lddsp	r9,sp[0x8]
800075ac:	e4 09 0c 49 	max	r9,r2,r9
800075b0:	50 39       	stdsp	sp[0xc],r9
800075b2:	12 9a       	mov	r10,r9
800075b4:	40 3e       	lddsp	lr,sp[0xc]
800075b6:	2f fa       	sub	r10,-1
800075b8:	30 08       	mov	r8,0
800075ba:	fb 39 06 bb 	ld.ub	r9,sp[1723]
800075be:	0a 9c       	mov	r12,r5
800075c0:	f0 09 18 00 	cp.b	r9,r8
800075c4:	f4 0e 17 10 	movne	lr,r10
800075c8:	e2 1c 00 02 	andl	r12,0x2,COH
800075cc:	0a 9b       	mov	r11,r5
800075ce:	18 0e       	add	lr,r12
800075d0:	e2 1b 00 84 	andl	r11,0x84,COH
800075d4:	50 fc       	stdsp	sp[0x3c],r12
800075d6:	50 3e       	stdsp	sp[0xc],lr
800075d8:	50 9b       	stdsp	sp[0x24],r11
800075da:	c4 61       	brne	80007666 <_vfprintf_r+0x1736>
800075dc:	40 8a       	lddsp	r10,sp[0x20]
800075de:	1c 1a       	sub	r10,lr
800075e0:	50 4a       	stdsp	sp[0x10],r10
800075e2:	58 0a       	cp.w	r10,0
800075e4:	e0 89 00 20 	brgt	80007624 <_vfprintf_r+0x16f4>
800075e8:	c3 f8       	rjmp	80007666 <_vfprintf_r+0x1736>
800075ea:	2f 09       	sub	r9,-16
800075ec:	2f f8       	sub	r8,-1
800075ee:	fb 49 06 90 	st.w	sp[1680],r9
800075f2:	31 0e       	mov	lr,16
800075f4:	fe c9 bc ec 	sub	r9,pc,-17172
800075f8:	87 1e       	st.w	r3[0x4],lr
800075fa:	87 09       	st.w	r3[0x0],r9
800075fc:	fb 48 06 8c 	st.w	sp[1676],r8
80007600:	58 78       	cp.w	r8,7
80007602:	e0 89 00 04 	brgt	8000760a <_vfprintf_r+0x16da>
80007606:	2f 83       	sub	r3,-8
80007608:	c0 b8       	rjmp	8000761e <_vfprintf_r+0x16ee>
8000760a:	fa ca f9 78 	sub	r10,sp,-1672
8000760e:	02 9b       	mov	r11,r1
80007610:	08 9c       	mov	r12,r4
80007612:	fe b0 f4 81 	rcall	80005f14 <__sprint_r>
80007616:	e0 81 04 10 	brne	80007e36 <_vfprintf_r+0x1f06>
8000761a:	fa c3 f9 e0 	sub	r3,sp,-1568
8000761e:	40 4c       	lddsp	r12,sp[0x10]
80007620:	21 0c       	sub	r12,16
80007622:	50 4c       	stdsp	sp[0x10],r12
80007624:	fa f9 06 90 	ld.w	r9,sp[1680]
80007628:	fa f8 06 8c 	ld.w	r8,sp[1676]
8000762c:	fe ca bd 24 	sub	r10,pc,-17116
80007630:	40 4b       	lddsp	r11,sp[0x10]
80007632:	59 0b       	cp.w	r11,16
80007634:	fe 99 ff db 	brgt	800075ea <_vfprintf_r+0x16ba>
80007638:	16 09       	add	r9,r11
8000763a:	2f f8       	sub	r8,-1
8000763c:	87 0a       	st.w	r3[0x0],r10
8000763e:	fb 49 06 90 	st.w	sp[1680],r9
80007642:	87 1b       	st.w	r3[0x4],r11
80007644:	fb 48 06 8c 	st.w	sp[1676],r8
80007648:	58 78       	cp.w	r8,7
8000764a:	e0 89 00 04 	brgt	80007652 <_vfprintf_r+0x1722>
8000764e:	2f 83       	sub	r3,-8
80007650:	c0 b8       	rjmp	80007666 <_vfprintf_r+0x1736>
80007652:	fa ca f9 78 	sub	r10,sp,-1672
80007656:	02 9b       	mov	r11,r1
80007658:	08 9c       	mov	r12,r4
8000765a:	fe b0 f4 5d 	rcall	80005f14 <__sprint_r>
8000765e:	e0 81 03 ec 	brne	80007e36 <_vfprintf_r+0x1f06>
80007662:	fa c3 f9 e0 	sub	r3,sp,-1568
80007666:	30 08       	mov	r8,0
80007668:	fb 39 06 bb 	ld.ub	r9,sp[1723]
8000766c:	f0 09 18 00 	cp.b	r9,r8
80007670:	c1 f0       	breq	800076ae <_vfprintf_r+0x177e>
80007672:	fa f8 06 90 	ld.w	r8,sp[1680]
80007676:	fa c9 f9 45 	sub	r9,sp,-1723
8000767a:	2f f8       	sub	r8,-1
8000767c:	87 09       	st.w	r3[0x0],r9
8000767e:	fb 48 06 90 	st.w	sp[1680],r8
80007682:	30 19       	mov	r9,1
80007684:	fa f8 06 8c 	ld.w	r8,sp[1676]
80007688:	87 19       	st.w	r3[0x4],r9
8000768a:	2f f8       	sub	r8,-1
8000768c:	fb 48 06 8c 	st.w	sp[1676],r8
80007690:	58 78       	cp.w	r8,7
80007692:	e0 89 00 04 	brgt	8000769a <_vfprintf_r+0x176a>
80007696:	2f 83       	sub	r3,-8
80007698:	c0 b8       	rjmp	800076ae <_vfprintf_r+0x177e>
8000769a:	fa ca f9 78 	sub	r10,sp,-1672
8000769e:	02 9b       	mov	r11,r1
800076a0:	08 9c       	mov	r12,r4
800076a2:	fe b0 f4 39 	rcall	80005f14 <__sprint_r>
800076a6:	e0 81 03 c8 	brne	80007e36 <_vfprintf_r+0x1f06>
800076aa:	fa c3 f9 e0 	sub	r3,sp,-1568
800076ae:	40 fa       	lddsp	r10,sp[0x3c]
800076b0:	58 0a       	cp.w	r10,0
800076b2:	c1 f0       	breq	800076f0 <_vfprintf_r+0x17c0>
800076b4:	30 29       	mov	r9,2
800076b6:	fa f8 06 90 	ld.w	r8,sp[1680]
800076ba:	12 08       	add	r8,r9
800076bc:	87 19       	st.w	r3[0x4],r9
800076be:	fb 48 06 90 	st.w	sp[1680],r8
800076c2:	fa c9 f9 48 	sub	r9,sp,-1720
800076c6:	fa f8 06 8c 	ld.w	r8,sp[1676]
800076ca:	87 09       	st.w	r3[0x0],r9
800076cc:	2f f8       	sub	r8,-1
800076ce:	fb 48 06 8c 	st.w	sp[1676],r8
800076d2:	58 78       	cp.w	r8,7
800076d4:	e0 89 00 04 	brgt	800076dc <_vfprintf_r+0x17ac>
800076d8:	2f 83       	sub	r3,-8
800076da:	c0 b8       	rjmp	800076f0 <_vfprintf_r+0x17c0>
800076dc:	fa ca f9 78 	sub	r10,sp,-1672
800076e0:	02 9b       	mov	r11,r1
800076e2:	08 9c       	mov	r12,r4
800076e4:	fe b0 f4 18 	rcall	80005f14 <__sprint_r>
800076e8:	e0 81 03 a7 	brne	80007e36 <_vfprintf_r+0x1f06>
800076ec:	fa c3 f9 e0 	sub	r3,sp,-1568
800076f0:	40 98       	lddsp	r8,sp[0x24]
800076f2:	e0 48 00 80 	cp.w	r8,128
800076f6:	c4 71       	brne	80007784 <_vfprintf_r+0x1854>
800076f8:	40 8e       	lddsp	lr,sp[0x20]
800076fa:	40 3c       	lddsp	r12,sp[0xc]
800076fc:	18 1e       	sub	lr,r12
800076fe:	50 4e       	stdsp	sp[0x10],lr
80007700:	58 0e       	cp.w	lr,0
80007702:	e0 89 00 20 	brgt	80007742 <_vfprintf_r+0x1812>
80007706:	c3 f8       	rjmp	80007784 <_vfprintf_r+0x1854>
80007708:	2f 09       	sub	r9,-16
8000770a:	2f f8       	sub	r8,-1
8000770c:	fe cb bd f4 	sub	r11,pc,-16908
80007710:	31 0a       	mov	r10,16
80007712:	fb 49 06 90 	st.w	sp[1680],r9
80007716:	87 0b       	st.w	r3[0x0],r11
80007718:	87 1a       	st.w	r3[0x4],r10
8000771a:	fb 48 06 8c 	st.w	sp[1676],r8
8000771e:	58 78       	cp.w	r8,7
80007720:	e0 89 00 04 	brgt	80007728 <_vfprintf_r+0x17f8>
80007724:	2f 83       	sub	r3,-8
80007726:	c0 b8       	rjmp	8000773c <_vfprintf_r+0x180c>
80007728:	fa ca f9 78 	sub	r10,sp,-1672
8000772c:	02 9b       	mov	r11,r1
8000772e:	08 9c       	mov	r12,r4
80007730:	fe b0 f3 f2 	rcall	80005f14 <__sprint_r>
80007734:	e0 81 03 81 	brne	80007e36 <_vfprintf_r+0x1f06>
80007738:	fa c3 f9 e0 	sub	r3,sp,-1568
8000773c:	40 49       	lddsp	r9,sp[0x10]
8000773e:	21 09       	sub	r9,16
80007740:	50 49       	stdsp	sp[0x10],r9
80007742:	fa f9 06 90 	ld.w	r9,sp[1680]
80007746:	fa f8 06 8c 	ld.w	r8,sp[1676]
8000774a:	fe ca be 32 	sub	r10,pc,-16846
8000774e:	40 4e       	lddsp	lr,sp[0x10]
80007750:	59 0e       	cp.w	lr,16
80007752:	fe 99 ff db 	brgt	80007708 <_vfprintf_r+0x17d8>
80007756:	1c 09       	add	r9,lr
80007758:	2f f8       	sub	r8,-1
8000775a:	87 0a       	st.w	r3[0x0],r10
8000775c:	fb 49 06 90 	st.w	sp[1680],r9
80007760:	87 1e       	st.w	r3[0x4],lr
80007762:	fb 48 06 8c 	st.w	sp[1676],r8
80007766:	58 78       	cp.w	r8,7
80007768:	e0 89 00 04 	brgt	80007770 <_vfprintf_r+0x1840>
8000776c:	2f 83       	sub	r3,-8
8000776e:	c0 b8       	rjmp	80007784 <_vfprintf_r+0x1854>
80007770:	fa ca f9 78 	sub	r10,sp,-1672
80007774:	02 9b       	mov	r11,r1
80007776:	08 9c       	mov	r12,r4
80007778:	fe b0 f3 ce 	rcall	80005f14 <__sprint_r>
8000777c:	e0 81 03 5d 	brne	80007e36 <_vfprintf_r+0x1f06>
80007780:	fa c3 f9 e0 	sub	r3,sp,-1568
80007784:	40 2c       	lddsp	r12,sp[0x8]
80007786:	04 1c       	sub	r12,r2
80007788:	50 2c       	stdsp	sp[0x8],r12
8000778a:	58 0c       	cp.w	r12,0
8000778c:	e0 89 00 20 	brgt	800077cc <_vfprintf_r+0x189c>
80007790:	c3 f8       	rjmp	8000780e <_vfprintf_r+0x18de>
80007792:	2f 09       	sub	r9,-16
80007794:	2f f8       	sub	r8,-1
80007796:	fe cb be 7e 	sub	r11,pc,-16770
8000779a:	31 0a       	mov	r10,16
8000779c:	fb 49 06 90 	st.w	sp[1680],r9
800077a0:	87 0b       	st.w	r3[0x0],r11
800077a2:	87 1a       	st.w	r3[0x4],r10
800077a4:	fb 48 06 8c 	st.w	sp[1676],r8
800077a8:	58 78       	cp.w	r8,7
800077aa:	e0 89 00 04 	brgt	800077b2 <_vfprintf_r+0x1882>
800077ae:	2f 83       	sub	r3,-8
800077b0:	c0 b8       	rjmp	800077c6 <_vfprintf_r+0x1896>
800077b2:	fa ca f9 78 	sub	r10,sp,-1672
800077b6:	02 9b       	mov	r11,r1
800077b8:	08 9c       	mov	r12,r4
800077ba:	fe b0 f3 ad 	rcall	80005f14 <__sprint_r>
800077be:	e0 81 03 3c 	brne	80007e36 <_vfprintf_r+0x1f06>
800077c2:	fa c3 f9 e0 	sub	r3,sp,-1568
800077c6:	40 29       	lddsp	r9,sp[0x8]
800077c8:	21 09       	sub	r9,16
800077ca:	50 29       	stdsp	sp[0x8],r9
800077cc:	fa f9 06 90 	ld.w	r9,sp[1680]
800077d0:	fa f8 06 8c 	ld.w	r8,sp[1676]
800077d4:	fe ca be bc 	sub	r10,pc,-16708
800077d8:	40 2e       	lddsp	lr,sp[0x8]
800077da:	59 0e       	cp.w	lr,16
800077dc:	fe 99 ff db 	brgt	80007792 <_vfprintf_r+0x1862>
800077e0:	1c 09       	add	r9,lr
800077e2:	2f f8       	sub	r8,-1
800077e4:	87 0a       	st.w	r3[0x0],r10
800077e6:	fb 49 06 90 	st.w	sp[1680],r9
800077ea:	87 1e       	st.w	r3[0x4],lr
800077ec:	fb 48 06 8c 	st.w	sp[1676],r8
800077f0:	58 78       	cp.w	r8,7
800077f2:	e0 89 00 04 	brgt	800077fa <_vfprintf_r+0x18ca>
800077f6:	2f 83       	sub	r3,-8
800077f8:	c0 b8       	rjmp	8000780e <_vfprintf_r+0x18de>
800077fa:	fa ca f9 78 	sub	r10,sp,-1672
800077fe:	02 9b       	mov	r11,r1
80007800:	08 9c       	mov	r12,r4
80007802:	fe b0 f3 89 	rcall	80005f14 <__sprint_r>
80007806:	e0 81 03 18 	brne	80007e36 <_vfprintf_r+0x1f06>
8000780a:	fa c3 f9 e0 	sub	r3,sp,-1568
8000780e:	ed b5 00 08 	bld	r5,0x8
80007812:	c0 b0       	breq	80007828 <_vfprintf_r+0x18f8>
80007814:	fa f8 06 90 	ld.w	r8,sp[1680]
80007818:	87 12       	st.w	r3[0x4],r2
8000781a:	87 06       	st.w	r3[0x0],r6
8000781c:	f0 02 00 02 	add	r2,r8,r2
80007820:	fb 42 06 90 	st.w	sp[1680],r2
80007824:	e0 8f 01 d4 	bral	80007bcc <_vfprintf_r+0x1c9c>
80007828:	e0 40 00 65 	cp.w	r0,101
8000782c:	e0 8a 01 d6 	brle	80007bd8 <_vfprintf_r+0x1ca8>
80007830:	30 08       	mov	r8,0
80007832:	30 09       	mov	r9,0
80007834:	40 5b       	lddsp	r11,sp[0x14]
80007836:	40 7a       	lddsp	r10,sp[0x1c]
80007838:	e0 a0 19 5e 	rcall	8000aaf4 <__avr32_f64_cmp_eq>
8000783c:	c7 90       	breq	8000792e <_vfprintf_r+0x19fe>
8000783e:	fa f8 06 90 	ld.w	r8,sp[1680]
80007842:	fe c9 bf 3e 	sub	r9,pc,-16578
80007846:	2f f8       	sub	r8,-1
80007848:	87 09       	st.w	r3[0x0],r9
8000784a:	fb 48 06 90 	st.w	sp[1680],r8
8000784e:	30 19       	mov	r9,1
80007850:	fa f8 06 8c 	ld.w	r8,sp[1676]
80007854:	87 19       	st.w	r3[0x4],r9
80007856:	2f f8       	sub	r8,-1
80007858:	fb 48 06 8c 	st.w	sp[1676],r8
8000785c:	58 78       	cp.w	r8,7
8000785e:	e0 89 00 05 	brgt	80007868 <_vfprintf_r+0x1938>
80007862:	2f 83       	sub	r3,-8
80007864:	c0 c8       	rjmp	8000787c <_vfprintf_r+0x194c>
80007866:	d7 03       	nop
80007868:	fa ca f9 78 	sub	r10,sp,-1672
8000786c:	02 9b       	mov	r11,r1
8000786e:	08 9c       	mov	r12,r4
80007870:	fe b0 f3 52 	rcall	80005f14 <__sprint_r>
80007874:	e0 81 02 e1 	brne	80007e36 <_vfprintf_r+0x1f06>
80007878:	fa c3 f9 e0 	sub	r3,sp,-1568
8000787c:	fa f8 06 ac 	ld.w	r8,sp[1708]
80007880:	40 6c       	lddsp	r12,sp[0x18]
80007882:	18 38       	cp.w	r8,r12
80007884:	c0 55       	brlt	8000788e <_vfprintf_r+0x195e>
80007886:	ed b5 00 00 	bld	r5,0x0
8000788a:	e0 81 02 6b 	brne	80007d60 <_vfprintf_r+0x1e30>
8000788e:	fa f8 06 90 	ld.w	r8,sp[1680]
80007892:	2f f8       	sub	r8,-1
80007894:	40 cb       	lddsp	r11,sp[0x30]
80007896:	fb 48 06 90 	st.w	sp[1680],r8
8000789a:	30 19       	mov	r9,1
8000789c:	fa f8 06 8c 	ld.w	r8,sp[1676]
800078a0:	87 0b       	st.w	r3[0x0],r11
800078a2:	2f f8       	sub	r8,-1
800078a4:	87 19       	st.w	r3[0x4],r9
800078a6:	fb 48 06 8c 	st.w	sp[1676],r8
800078aa:	58 78       	cp.w	r8,7
800078ac:	e0 89 00 04 	brgt	800078b4 <_vfprintf_r+0x1984>
800078b0:	2f 83       	sub	r3,-8
800078b2:	c0 b8       	rjmp	800078c8 <_vfprintf_r+0x1998>
800078b4:	fa ca f9 78 	sub	r10,sp,-1672
800078b8:	02 9b       	mov	r11,r1
800078ba:	08 9c       	mov	r12,r4
800078bc:	fe b0 f3 2c 	rcall	80005f14 <__sprint_r>
800078c0:	e0 81 02 bb 	brne	80007e36 <_vfprintf_r+0x1f06>
800078c4:	fa c3 f9 e0 	sub	r3,sp,-1568
800078c8:	40 66       	lddsp	r6,sp[0x18]
800078ca:	20 16       	sub	r6,1
800078cc:	58 06       	cp.w	r6,0
800078ce:	e0 89 00 1d 	brgt	80007908 <_vfprintf_r+0x19d8>
800078d2:	e0 8f 02 47 	bral	80007d60 <_vfprintf_r+0x1e30>
800078d6:	2f 09       	sub	r9,-16
800078d8:	2f f8       	sub	r8,-1
800078da:	fb 49 06 90 	st.w	sp[1680],r9
800078de:	87 02       	st.w	r3[0x0],r2
800078e0:	87 10       	st.w	r3[0x4],r0
800078e2:	fb 48 06 8c 	st.w	sp[1676],r8
800078e6:	58 78       	cp.w	r8,7
800078e8:	e0 89 00 04 	brgt	800078f0 <_vfprintf_r+0x19c0>
800078ec:	2f 83       	sub	r3,-8
800078ee:	c0 b8       	rjmp	80007904 <_vfprintf_r+0x19d4>
800078f0:	fa ca f9 78 	sub	r10,sp,-1672
800078f4:	02 9b       	mov	r11,r1
800078f6:	08 9c       	mov	r12,r4
800078f8:	fe b0 f3 0e 	rcall	80005f14 <__sprint_r>
800078fc:	e0 81 02 9d 	brne	80007e36 <_vfprintf_r+0x1f06>
80007900:	fa c3 f9 e0 	sub	r3,sp,-1568
80007904:	21 06       	sub	r6,16
80007906:	c0 48       	rjmp	8000790e <_vfprintf_r+0x19de>
80007908:	fe c2 bf f0 	sub	r2,pc,-16400
8000790c:	31 00       	mov	r0,16
8000790e:	fa f9 06 90 	ld.w	r9,sp[1680]
80007912:	fa f8 06 8c 	ld.w	r8,sp[1676]
80007916:	fe ca bf fe 	sub	r10,pc,-16386
8000791a:	59 06       	cp.w	r6,16
8000791c:	fe 99 ff dd 	brgt	800078d6 <_vfprintf_r+0x19a6>
80007920:	0c 09       	add	r9,r6
80007922:	87 0a       	st.w	r3[0x0],r10
80007924:	fb 49 06 90 	st.w	sp[1680],r9
80007928:	2f f8       	sub	r8,-1
8000792a:	87 16       	st.w	r3[0x4],r6
8000792c:	c5 39       	rjmp	80007bd2 <_vfprintf_r+0x1ca2>
8000792e:	fa fa 06 ac 	ld.w	r10,sp[1708]
80007932:	58 0a       	cp.w	r10,0
80007934:	e0 89 00 92 	brgt	80007a58 <_vfprintf_r+0x1b28>
80007938:	fa f8 06 90 	ld.w	r8,sp[1680]
8000793c:	fe c9 c0 38 	sub	r9,pc,-16328
80007940:	2f f8       	sub	r8,-1
80007942:	87 09       	st.w	r3[0x0],r9
80007944:	fb 48 06 90 	st.w	sp[1680],r8
80007948:	30 19       	mov	r9,1
8000794a:	fa f8 06 8c 	ld.w	r8,sp[1676]
8000794e:	87 19       	st.w	r3[0x4],r9
80007950:	2f f8       	sub	r8,-1
80007952:	fb 48 06 8c 	st.w	sp[1676],r8
80007956:	58 78       	cp.w	r8,7
80007958:	e0 89 00 04 	brgt	80007960 <_vfprintf_r+0x1a30>
8000795c:	2f 83       	sub	r3,-8
8000795e:	c0 b8       	rjmp	80007974 <_vfprintf_r+0x1a44>
80007960:	fa ca f9 78 	sub	r10,sp,-1672
80007964:	02 9b       	mov	r11,r1
80007966:	08 9c       	mov	r12,r4
80007968:	fe b0 f2 d6 	rcall	80005f14 <__sprint_r>
8000796c:	e0 81 02 65 	brne	80007e36 <_vfprintf_r+0x1f06>
80007970:	fa c3 f9 e0 	sub	r3,sp,-1568
80007974:	fa f8 06 ac 	ld.w	r8,sp[1708]
80007978:	58 08       	cp.w	r8,0
8000797a:	c0 81       	brne	8000798a <_vfprintf_r+0x1a5a>
8000797c:	40 6a       	lddsp	r10,sp[0x18]
8000797e:	58 0a       	cp.w	r10,0
80007980:	c0 51       	brne	8000798a <_vfprintf_r+0x1a5a>
80007982:	ed b5 00 00 	bld	r5,0x0
80007986:	e0 81 01 ed 	brne	80007d60 <_vfprintf_r+0x1e30>
8000798a:	40 c9       	lddsp	r9,sp[0x30]
8000798c:	fa f8 06 90 	ld.w	r8,sp[1680]
80007990:	2f f8       	sub	r8,-1
80007992:	87 09       	st.w	r3[0x0],r9
80007994:	fb 48 06 90 	st.w	sp[1680],r8
80007998:	30 19       	mov	r9,1
8000799a:	fa f8 06 8c 	ld.w	r8,sp[1676]
8000799e:	87 19       	st.w	r3[0x4],r9
800079a0:	2f f8       	sub	r8,-1
800079a2:	fb 48 06 8c 	st.w	sp[1676],r8
800079a6:	58 78       	cp.w	r8,7
800079a8:	e0 89 00 04 	brgt	800079b0 <_vfprintf_r+0x1a80>
800079ac:	2f 83       	sub	r3,-8
800079ae:	c0 b8       	rjmp	800079c4 <_vfprintf_r+0x1a94>
800079b0:	fa ca f9 78 	sub	r10,sp,-1672
800079b4:	02 9b       	mov	r11,r1
800079b6:	08 9c       	mov	r12,r4
800079b8:	fe b0 f2 ae 	rcall	80005f14 <__sprint_r>
800079bc:	e0 81 02 3d 	brne	80007e36 <_vfprintf_r+0x1f06>
800079c0:	fa c3 f9 e0 	sub	r3,sp,-1568
800079c4:	fa f2 06 ac 	ld.w	r2,sp[1708]
800079c8:	5c 32       	neg	r2
800079ca:	58 02       	cp.w	r2,0
800079cc:	e0 89 00 1d 	brgt	80007a06 <_vfprintf_r+0x1ad6>
800079d0:	c3 d8       	rjmp	80007a4a <_vfprintf_r+0x1b1a>
800079d2:	2f 09       	sub	r9,-16
800079d4:	2f f8       	sub	r8,-1
800079d6:	31 0e       	mov	lr,16
800079d8:	fb 49 06 90 	st.w	sp[1680],r9
800079dc:	87 00       	st.w	r3[0x0],r0
800079de:	87 1e       	st.w	r3[0x4],lr
800079e0:	fb 48 06 8c 	st.w	sp[1676],r8
800079e4:	58 78       	cp.w	r8,7
800079e6:	e0 89 00 04 	brgt	800079ee <_vfprintf_r+0x1abe>
800079ea:	2f 83       	sub	r3,-8
800079ec:	c0 b8       	rjmp	80007a02 <_vfprintf_r+0x1ad2>
800079ee:	fa ca f9 78 	sub	r10,sp,-1672
800079f2:	02 9b       	mov	r11,r1
800079f4:	08 9c       	mov	r12,r4
800079f6:	fe b0 f2 8f 	rcall	80005f14 <__sprint_r>
800079fa:	e0 81 02 1e 	brne	80007e36 <_vfprintf_r+0x1f06>
800079fe:	fa c3 f9 e0 	sub	r3,sp,-1568
80007a02:	21 02       	sub	r2,16
80007a04:	c0 38       	rjmp	80007a0a <_vfprintf_r+0x1ada>
80007a06:	fe c0 c0 ee 	sub	r0,pc,-16146
80007a0a:	fa f9 06 90 	ld.w	r9,sp[1680]
80007a0e:	fa f8 06 8c 	ld.w	r8,sp[1676]
80007a12:	fe ca c0 fa 	sub	r10,pc,-16134
80007a16:	59 02       	cp.w	r2,16
80007a18:	fe 99 ff dd 	brgt	800079d2 <_vfprintf_r+0x1aa2>
80007a1c:	04 09       	add	r9,r2
80007a1e:	2f f8       	sub	r8,-1
80007a20:	87 0a       	st.w	r3[0x0],r10
80007a22:	fb 49 06 90 	st.w	sp[1680],r9
80007a26:	87 12       	st.w	r3[0x4],r2
80007a28:	fb 48 06 8c 	st.w	sp[1676],r8
80007a2c:	58 78       	cp.w	r8,7
80007a2e:	e0 89 00 04 	brgt	80007a36 <_vfprintf_r+0x1b06>
80007a32:	2f 83       	sub	r3,-8
80007a34:	c0 b8       	rjmp	80007a4a <_vfprintf_r+0x1b1a>
80007a36:	fa ca f9 78 	sub	r10,sp,-1672
80007a3a:	02 9b       	mov	r11,r1
80007a3c:	08 9c       	mov	r12,r4
80007a3e:	fe b0 f2 6b 	rcall	80005f14 <__sprint_r>
80007a42:	e0 81 01 fa 	brne	80007e36 <_vfprintf_r+0x1f06>
80007a46:	fa c3 f9 e0 	sub	r3,sp,-1568
80007a4a:	40 6c       	lddsp	r12,sp[0x18]
80007a4c:	fa f8 06 90 	ld.w	r8,sp[1680]
80007a50:	87 06       	st.w	r3[0x0],r6
80007a52:	87 1c       	st.w	r3[0x4],r12
80007a54:	18 08       	add	r8,r12
80007a56:	cb 98       	rjmp	80007bc8 <_vfprintf_r+0x1c98>
80007a58:	fa f9 06 90 	ld.w	r9,sp[1680]
80007a5c:	fa f8 06 8c 	ld.w	r8,sp[1676]
80007a60:	40 6b       	lddsp	r11,sp[0x18]
80007a62:	16 3a       	cp.w	r10,r11
80007a64:	c6 f5       	brlt	80007b42 <_vfprintf_r+0x1c12>
80007a66:	16 09       	add	r9,r11
80007a68:	2f f8       	sub	r8,-1
80007a6a:	87 06       	st.w	r3[0x0],r6
80007a6c:	fb 49 06 90 	st.w	sp[1680],r9
80007a70:	87 1b       	st.w	r3[0x4],r11
80007a72:	fb 48 06 8c 	st.w	sp[1676],r8
80007a76:	58 78       	cp.w	r8,7
80007a78:	e0 89 00 04 	brgt	80007a80 <_vfprintf_r+0x1b50>
80007a7c:	2f 83       	sub	r3,-8
80007a7e:	c0 b8       	rjmp	80007a94 <_vfprintf_r+0x1b64>
80007a80:	fa ca f9 78 	sub	r10,sp,-1672
80007a84:	02 9b       	mov	r11,r1
80007a86:	08 9c       	mov	r12,r4
80007a88:	fe b0 f2 46 	rcall	80005f14 <__sprint_r>
80007a8c:	e0 81 01 d5 	brne	80007e36 <_vfprintf_r+0x1f06>
80007a90:	fa c3 f9 e0 	sub	r3,sp,-1568
80007a94:	fa f6 06 ac 	ld.w	r6,sp[1708]
80007a98:	40 6a       	lddsp	r10,sp[0x18]
80007a9a:	14 16       	sub	r6,r10
80007a9c:	58 06       	cp.w	r6,0
80007a9e:	e0 89 00 1c 	brgt	80007ad6 <_vfprintf_r+0x1ba6>
80007aa2:	c3 d8       	rjmp	80007b1c <_vfprintf_r+0x1bec>
80007aa4:	2f 09       	sub	r9,-16
80007aa6:	2f f8       	sub	r8,-1
80007aa8:	fb 49 06 90 	st.w	sp[1680],r9
80007aac:	87 02       	st.w	r3[0x0],r2
80007aae:	87 10       	st.w	r3[0x4],r0
80007ab0:	fb 48 06 8c 	st.w	sp[1676],r8
80007ab4:	58 78       	cp.w	r8,7
80007ab6:	e0 89 00 04 	brgt	80007abe <_vfprintf_r+0x1b8e>
80007aba:	2f 83       	sub	r3,-8
80007abc:	c0 b8       	rjmp	80007ad2 <_vfprintf_r+0x1ba2>
80007abe:	fa ca f9 78 	sub	r10,sp,-1672
80007ac2:	02 9b       	mov	r11,r1
80007ac4:	08 9c       	mov	r12,r4
80007ac6:	fe b0 f2 27 	rcall	80005f14 <__sprint_r>
80007aca:	e0 81 01 b6 	brne	80007e36 <_vfprintf_r+0x1f06>
80007ace:	fa c3 f9 e0 	sub	r3,sp,-1568
80007ad2:	21 06       	sub	r6,16
80007ad4:	c0 48       	rjmp	80007adc <_vfprintf_r+0x1bac>
80007ad6:	fe c2 c1 be 	sub	r2,pc,-15938
80007ada:	31 00       	mov	r0,16
80007adc:	fa f9 06 90 	ld.w	r9,sp[1680]
80007ae0:	fa f8 06 8c 	ld.w	r8,sp[1676]
80007ae4:	fe ca c1 cc 	sub	r10,pc,-15924
80007ae8:	59 06       	cp.w	r6,16
80007aea:	fe 99 ff dd 	brgt	80007aa4 <_vfprintf_r+0x1b74>
80007aee:	0c 09       	add	r9,r6
80007af0:	2f f8       	sub	r8,-1
80007af2:	87 0a       	st.w	r3[0x0],r10
80007af4:	fb 49 06 90 	st.w	sp[1680],r9
80007af8:	87 16       	st.w	r3[0x4],r6
80007afa:	fb 48 06 8c 	st.w	sp[1676],r8
80007afe:	58 78       	cp.w	r8,7
80007b00:	e0 89 00 04 	brgt	80007b08 <_vfprintf_r+0x1bd8>
80007b04:	2f 83       	sub	r3,-8
80007b06:	c0 b8       	rjmp	80007b1c <_vfprintf_r+0x1bec>
80007b08:	fa ca f9 78 	sub	r10,sp,-1672
80007b0c:	02 9b       	mov	r11,r1
80007b0e:	08 9c       	mov	r12,r4
80007b10:	fe b0 f2 02 	rcall	80005f14 <__sprint_r>
80007b14:	e0 81 01 91 	brne	80007e36 <_vfprintf_r+0x1f06>
80007b18:	fa c3 f9 e0 	sub	r3,sp,-1568
80007b1c:	ed b5 00 00 	bld	r5,0x0
80007b20:	e0 81 01 20 	brne	80007d60 <_vfprintf_r+0x1e30>
80007b24:	40 c9       	lddsp	r9,sp[0x30]
80007b26:	fa f8 06 90 	ld.w	r8,sp[1680]
80007b2a:	2f f8       	sub	r8,-1
80007b2c:	87 09       	st.w	r3[0x0],r9
80007b2e:	fb 48 06 90 	st.w	sp[1680],r8
80007b32:	30 19       	mov	r9,1
80007b34:	fa f8 06 8c 	ld.w	r8,sp[1676]
80007b38:	87 19       	st.w	r3[0x4],r9
80007b3a:	2f f8       	sub	r8,-1
80007b3c:	fb 48 06 8c 	st.w	sp[1676],r8
80007b40:	c0 29       	rjmp	80007d44 <_vfprintf_r+0x1e14>
80007b42:	14 09       	add	r9,r10
80007b44:	2f f8       	sub	r8,-1
80007b46:	fb 49 06 90 	st.w	sp[1680],r9
80007b4a:	87 06       	st.w	r3[0x0],r6
80007b4c:	87 1a       	st.w	r3[0x4],r10
80007b4e:	fb 48 06 8c 	st.w	sp[1676],r8
80007b52:	58 78       	cp.w	r8,7
80007b54:	e0 89 00 04 	brgt	80007b5c <_vfprintf_r+0x1c2c>
80007b58:	2f 83       	sub	r3,-8
80007b5a:	c0 b8       	rjmp	80007b70 <_vfprintf_r+0x1c40>
80007b5c:	fa ca f9 78 	sub	r10,sp,-1672
80007b60:	02 9b       	mov	r11,r1
80007b62:	08 9c       	mov	r12,r4
80007b64:	fe b0 f1 d8 	rcall	80005f14 <__sprint_r>
80007b68:	e0 81 01 67 	brne	80007e36 <_vfprintf_r+0x1f06>
80007b6c:	fa c3 f9 e0 	sub	r3,sp,-1568
80007b70:	40 c8       	lddsp	r8,sp[0x30]
80007b72:	87 08       	st.w	r3[0x0],r8
80007b74:	fa f8 06 90 	ld.w	r8,sp[1680]
80007b78:	2f f8       	sub	r8,-1
80007b7a:	30 19       	mov	r9,1
80007b7c:	fb 48 06 90 	st.w	sp[1680],r8
80007b80:	87 19       	st.w	r3[0x4],r9
80007b82:	fa f8 06 8c 	ld.w	r8,sp[1676]
80007b86:	2f f8       	sub	r8,-1
80007b88:	fb 48 06 8c 	st.w	sp[1676],r8
80007b8c:	fa f2 06 ac 	ld.w	r2,sp[1708]
80007b90:	58 78       	cp.w	r8,7
80007b92:	e0 89 00 04 	brgt	80007b9a <_vfprintf_r+0x1c6a>
80007b96:	2f 83       	sub	r3,-8
80007b98:	c0 b8       	rjmp	80007bae <_vfprintf_r+0x1c7e>
80007b9a:	fa ca f9 78 	sub	r10,sp,-1672
80007b9e:	02 9b       	mov	r11,r1
80007ba0:	08 9c       	mov	r12,r4
80007ba2:	fe b0 f1 b9 	rcall	80005f14 <__sprint_r>
80007ba6:	e0 81 01 48 	brne	80007e36 <_vfprintf_r+0x1f06>
80007baa:	fa c3 f9 e0 	sub	r3,sp,-1568
80007bae:	04 06       	add	r6,r2
80007bb0:	fa f8 06 ac 	ld.w	r8,sp[1708]
80007bb4:	87 06       	st.w	r3[0x0],r6
80007bb6:	fa f9 06 90 	ld.w	r9,sp[1680]
80007bba:	40 66       	lddsp	r6,sp[0x18]
80007bbc:	40 6e       	lddsp	lr,sp[0x18]
80007bbe:	10 16       	sub	r6,r8
80007bc0:	f2 08 01 08 	sub	r8,r9,r8
80007bc4:	87 16       	st.w	r3[0x4],r6
80007bc6:	1c 08       	add	r8,lr
80007bc8:	fb 48 06 90 	st.w	sp[1680],r8
80007bcc:	fa f8 06 8c 	ld.w	r8,sp[1676]
80007bd0:	2f f8       	sub	r8,-1
80007bd2:	fb 48 06 8c 	st.w	sp[1676],r8
80007bd6:	cb 78       	rjmp	80007d44 <_vfprintf_r+0x1e14>
80007bd8:	40 6c       	lddsp	r12,sp[0x18]
80007bda:	58 1c       	cp.w	r12,1
80007bdc:	e0 89 00 06 	brgt	80007be8 <_vfprintf_r+0x1cb8>
80007be0:	ed b5 00 00 	bld	r5,0x0
80007be4:	e0 81 00 85 	brne	80007cee <_vfprintf_r+0x1dbe>
80007be8:	fa f8 06 90 	ld.w	r8,sp[1680]
80007bec:	2f f8       	sub	r8,-1
80007bee:	30 19       	mov	r9,1
80007bf0:	fb 48 06 90 	st.w	sp[1680],r8
80007bf4:	87 06       	st.w	r3[0x0],r6
80007bf6:	fa f8 06 8c 	ld.w	r8,sp[1676]
80007bfa:	87 19       	st.w	r3[0x4],r9
80007bfc:	2f f8       	sub	r8,-1
80007bfe:	fb 48 06 8c 	st.w	sp[1676],r8
80007c02:	58 78       	cp.w	r8,7
80007c04:	e0 89 00 04 	brgt	80007c0c <_vfprintf_r+0x1cdc>
80007c08:	2f 83       	sub	r3,-8
80007c0a:	c0 b8       	rjmp	80007c20 <_vfprintf_r+0x1cf0>
80007c0c:	fa ca f9 78 	sub	r10,sp,-1672
80007c10:	02 9b       	mov	r11,r1
80007c12:	08 9c       	mov	r12,r4
80007c14:	fe b0 f1 80 	rcall	80005f14 <__sprint_r>
80007c18:	e0 81 01 0f 	brne	80007e36 <_vfprintf_r+0x1f06>
80007c1c:	fa c3 f9 e0 	sub	r3,sp,-1568
80007c20:	fa f8 06 90 	ld.w	r8,sp[1680]
80007c24:	2f f8       	sub	r8,-1
80007c26:	40 cb       	lddsp	r11,sp[0x30]
80007c28:	fb 48 06 90 	st.w	sp[1680],r8
80007c2c:	30 19       	mov	r9,1
80007c2e:	fa f8 06 8c 	ld.w	r8,sp[1676]
80007c32:	87 0b       	st.w	r3[0x0],r11
80007c34:	2f f8       	sub	r8,-1
80007c36:	87 19       	st.w	r3[0x4],r9
80007c38:	fb 48 06 8c 	st.w	sp[1676],r8
80007c3c:	58 78       	cp.w	r8,7
80007c3e:	e0 89 00 05 	brgt	80007c48 <_vfprintf_r+0x1d18>
80007c42:	2f 83       	sub	r3,-8
80007c44:	c0 c8       	rjmp	80007c5c <_vfprintf_r+0x1d2c>
80007c46:	d7 03       	nop
80007c48:	fa ca f9 78 	sub	r10,sp,-1672
80007c4c:	02 9b       	mov	r11,r1
80007c4e:	08 9c       	mov	r12,r4
80007c50:	fe b0 f1 62 	rcall	80005f14 <__sprint_r>
80007c54:	e0 81 00 f1 	brne	80007e36 <_vfprintf_r+0x1f06>
80007c58:	fa c3 f9 e0 	sub	r3,sp,-1568
80007c5c:	30 08       	mov	r8,0
80007c5e:	30 09       	mov	r9,0
80007c60:	40 5b       	lddsp	r11,sp[0x14]
80007c62:	40 7a       	lddsp	r10,sp[0x1c]
80007c64:	e0 a0 17 48 	rcall	8000aaf4 <__avr32_f64_cmp_eq>
80007c68:	40 68       	lddsp	r8,sp[0x18]
80007c6a:	20 18       	sub	r8,1
80007c6c:	58 0c       	cp.w	r12,0
80007c6e:	c0 d1       	brne	80007c88 <_vfprintf_r+0x1d58>
80007c70:	2f f6       	sub	r6,-1
80007c72:	87 18       	st.w	r3[0x4],r8
80007c74:	87 06       	st.w	r3[0x0],r6
80007c76:	fa f6 06 90 	ld.w	r6,sp[1680]
80007c7a:	10 06       	add	r6,r8
80007c7c:	fa f8 06 8c 	ld.w	r8,sp[1676]
80007c80:	fb 46 06 90 	st.w	sp[1680],r6
80007c84:	2f f8       	sub	r8,-1
80007c86:	c3 18       	rjmp	80007ce8 <_vfprintf_r+0x1db8>
80007c88:	10 96       	mov	r6,r8
80007c8a:	58 08       	cp.w	r8,0
80007c8c:	e0 89 00 1c 	brgt	80007cc4 <_vfprintf_r+0x1d94>
80007c90:	c4 b8       	rjmp	80007d26 <_vfprintf_r+0x1df6>
80007c92:	2f 09       	sub	r9,-16
80007c94:	2f f8       	sub	r8,-1
80007c96:	fb 49 06 90 	st.w	sp[1680],r9
80007c9a:	87 02       	st.w	r3[0x0],r2
80007c9c:	87 10       	st.w	r3[0x4],r0
80007c9e:	fb 48 06 8c 	st.w	sp[1676],r8
80007ca2:	58 78       	cp.w	r8,7
80007ca4:	e0 89 00 04 	brgt	80007cac <_vfprintf_r+0x1d7c>
80007ca8:	2f 83       	sub	r3,-8
80007caa:	c0 b8       	rjmp	80007cc0 <_vfprintf_r+0x1d90>
80007cac:	fa ca f9 78 	sub	r10,sp,-1672
80007cb0:	02 9b       	mov	r11,r1
80007cb2:	08 9c       	mov	r12,r4
80007cb4:	fe b0 f1 30 	rcall	80005f14 <__sprint_r>
80007cb8:	e0 81 00 bf 	brne	80007e36 <_vfprintf_r+0x1f06>
80007cbc:	fa c3 f9 e0 	sub	r3,sp,-1568
80007cc0:	21 06       	sub	r6,16
80007cc2:	c0 48       	rjmp	80007cca <_vfprintf_r+0x1d9a>
80007cc4:	fe c2 c3 ac 	sub	r2,pc,-15444
80007cc8:	31 00       	mov	r0,16
80007cca:	fa f9 06 90 	ld.w	r9,sp[1680]
80007cce:	fa f8 06 8c 	ld.w	r8,sp[1676]
80007cd2:	fe ca c3 ba 	sub	r10,pc,-15430
80007cd6:	59 06       	cp.w	r6,16
80007cd8:	fe 99 ff dd 	brgt	80007c92 <_vfprintf_r+0x1d62>
80007cdc:	0c 09       	add	r9,r6
80007cde:	87 0a       	st.w	r3[0x0],r10
80007ce0:	fb 49 06 90 	st.w	sp[1680],r9
80007ce4:	2f f8       	sub	r8,-1
80007ce6:	87 16       	st.w	r3[0x4],r6
80007ce8:	fb 48 06 8c 	st.w	sp[1676],r8
80007cec:	c0 e8       	rjmp	80007d08 <_vfprintf_r+0x1dd8>
80007cee:	fa f8 06 90 	ld.w	r8,sp[1680]
80007cf2:	2f f8       	sub	r8,-1
80007cf4:	30 19       	mov	r9,1
80007cf6:	fb 48 06 90 	st.w	sp[1680],r8
80007cfa:	87 06       	st.w	r3[0x0],r6
80007cfc:	fa f8 06 8c 	ld.w	r8,sp[1676]
80007d00:	87 19       	st.w	r3[0x4],r9
80007d02:	2f f8       	sub	r8,-1
80007d04:	fb 48 06 8c 	st.w	sp[1676],r8
80007d08:	58 78       	cp.w	r8,7
80007d0a:	e0 89 00 04 	brgt	80007d12 <_vfprintf_r+0x1de2>
80007d0e:	2f 83       	sub	r3,-8
80007d10:	c0 b8       	rjmp	80007d26 <_vfprintf_r+0x1df6>
80007d12:	fa ca f9 78 	sub	r10,sp,-1672
80007d16:	02 9b       	mov	r11,r1
80007d18:	08 9c       	mov	r12,r4
80007d1a:	fe b0 f0 fd 	rcall	80005f14 <__sprint_r>
80007d1e:	e0 81 00 8c 	brne	80007e36 <_vfprintf_r+0x1f06>
80007d22:	fa c3 f9 e0 	sub	r3,sp,-1568
80007d26:	40 ea       	lddsp	r10,sp[0x38]
80007d28:	fa f8 06 90 	ld.w	r8,sp[1680]
80007d2c:	14 08       	add	r8,r10
80007d2e:	fa c9 f9 64 	sub	r9,sp,-1692
80007d32:	fb 48 06 90 	st.w	sp[1680],r8
80007d36:	87 1a       	st.w	r3[0x4],r10
80007d38:	fa f8 06 8c 	ld.w	r8,sp[1676]
80007d3c:	87 09       	st.w	r3[0x0],r9
80007d3e:	2f f8       	sub	r8,-1
80007d40:	fb 48 06 8c 	st.w	sp[1676],r8
80007d44:	58 78       	cp.w	r8,7
80007d46:	e0 89 00 04 	brgt	80007d4e <_vfprintf_r+0x1e1e>
80007d4a:	2f 83       	sub	r3,-8
80007d4c:	c0 a8       	rjmp	80007d60 <_vfprintf_r+0x1e30>
80007d4e:	fa ca f9 78 	sub	r10,sp,-1672
80007d52:	02 9b       	mov	r11,r1
80007d54:	08 9c       	mov	r12,r4
80007d56:	fe b0 f0 df 	rcall	80005f14 <__sprint_r>
80007d5a:	c6 e1       	brne	80007e36 <_vfprintf_r+0x1f06>
80007d5c:	fa c3 f9 e0 	sub	r3,sp,-1568
80007d60:	e2 15 00 04 	andl	r5,0x4,COH
80007d64:	c3 f0       	breq	80007de2 <_vfprintf_r+0x1eb2>
80007d66:	40 86       	lddsp	r6,sp[0x20]
80007d68:	40 39       	lddsp	r9,sp[0xc]
80007d6a:	12 16       	sub	r6,r9
80007d6c:	58 06       	cp.w	r6,0
80007d6e:	e0 89 00 1a 	brgt	80007da2 <_vfprintf_r+0x1e72>
80007d72:	c3 88       	rjmp	80007de2 <_vfprintf_r+0x1eb2>
80007d74:	2f 09       	sub	r9,-16
80007d76:	2f f8       	sub	r8,-1
80007d78:	fb 49 06 90 	st.w	sp[1680],r9
80007d7c:	87 05       	st.w	r3[0x0],r5
80007d7e:	87 12       	st.w	r3[0x4],r2
80007d80:	fb 48 06 8c 	st.w	sp[1676],r8
80007d84:	58 78       	cp.w	r8,7
80007d86:	e0 89 00 04 	brgt	80007d8e <_vfprintf_r+0x1e5e>
80007d8a:	2f 83       	sub	r3,-8
80007d8c:	c0 98       	rjmp	80007d9e <_vfprintf_r+0x1e6e>
80007d8e:	00 9a       	mov	r10,r0
80007d90:	02 9b       	mov	r11,r1
80007d92:	08 9c       	mov	r12,r4
80007d94:	fe b0 f0 c0 	rcall	80005f14 <__sprint_r>
80007d98:	c4 f1       	brne	80007e36 <_vfprintf_r+0x1f06>
80007d9a:	fa c3 f9 e0 	sub	r3,sp,-1568
80007d9e:	21 06       	sub	r6,16
80007da0:	c0 68       	rjmp	80007dac <_vfprintf_r+0x1e7c>
80007da2:	fe c5 c4 9a 	sub	r5,pc,-15206
80007da6:	31 02       	mov	r2,16
80007da8:	fa c0 f9 78 	sub	r0,sp,-1672
80007dac:	fa f9 06 90 	ld.w	r9,sp[1680]
80007db0:	fa f8 06 8c 	ld.w	r8,sp[1676]
80007db4:	fe ca c4 ac 	sub	r10,pc,-15188
80007db8:	59 06       	cp.w	r6,16
80007dba:	fe 99 ff dd 	brgt	80007d74 <_vfprintf_r+0x1e44>
80007dbe:	0c 09       	add	r9,r6
80007dc0:	2f f8       	sub	r8,-1
80007dc2:	87 0a       	st.w	r3[0x0],r10
80007dc4:	87 16       	st.w	r3[0x4],r6
80007dc6:	fb 49 06 90 	st.w	sp[1680],r9
80007dca:	fb 48 06 8c 	st.w	sp[1676],r8
80007dce:	58 78       	cp.w	r8,7
80007dd0:	e0 8a 00 09 	brle	80007de2 <_vfprintf_r+0x1eb2>
80007dd4:	fa ca f9 78 	sub	r10,sp,-1672
80007dd8:	02 9b       	mov	r11,r1
80007dda:	08 9c       	mov	r12,r4
80007ddc:	fe b0 f0 9c 	rcall	80005f14 <__sprint_r>
80007de0:	c2 b1       	brne	80007e36 <_vfprintf_r+0x1f06>
80007de2:	40 bc       	lddsp	r12,sp[0x2c]
80007de4:	40 36       	lddsp	r6,sp[0xc]
80007de6:	40 8e       	lddsp	lr,sp[0x20]
80007de8:	ec 0e 0c 48 	max	r8,r6,lr
80007dec:	10 0c       	add	r12,r8
80007dee:	50 bc       	stdsp	sp[0x2c],r12
80007df0:	fa f8 06 90 	ld.w	r8,sp[1680]
80007df4:	58 08       	cp.w	r8,0
80007df6:	c0 80       	breq	80007e06 <_vfprintf_r+0x1ed6>
80007df8:	fa ca f9 78 	sub	r10,sp,-1672
80007dfc:	02 9b       	mov	r11,r1
80007dfe:	08 9c       	mov	r12,r4
80007e00:	fe b0 f0 8a 	rcall	80005f14 <__sprint_r>
80007e04:	c1 91       	brne	80007e36 <_vfprintf_r+0x1f06>
80007e06:	30 08       	mov	r8,0
80007e08:	fa c3 f9 e0 	sub	r3,sp,-1568
80007e0c:	fb 48 06 8c 	st.w	sp[1676],r8
80007e10:	fe 9f f1 1d 	bral	8000604a <_vfprintf_r+0x11a>
80007e14:	08 95       	mov	r5,r4
80007e16:	fa f8 06 90 	ld.w	r8,sp[1680]
80007e1a:	58 08       	cp.w	r8,0
80007e1c:	c0 80       	breq	80007e2c <_vfprintf_r+0x1efc>
80007e1e:	08 9c       	mov	r12,r4
80007e20:	fa ca f9 78 	sub	r10,sp,-1672
80007e24:	02 9b       	mov	r11,r1
80007e26:	fe b0 f0 77 	rcall	80005f14 <__sprint_r>
80007e2a:	c0 61       	brne	80007e36 <_vfprintf_r+0x1f06>
80007e2c:	30 08       	mov	r8,0
80007e2e:	fb 48 06 8c 	st.w	sp[1676],r8
80007e32:	c0 28       	rjmp	80007e36 <_vfprintf_r+0x1f06>
80007e34:	40 41       	lddsp	r1,sp[0x10]
80007e36:	82 68       	ld.sh	r8,r1[0xc]
80007e38:	ed b8 00 06 	bld	r8,0x6
80007e3c:	c0 31       	brne	80007e42 <_vfprintf_r+0x1f12>
80007e3e:	3f fb       	mov	r11,-1
80007e40:	50 bb       	stdsp	sp[0x2c],r11
80007e42:	40 bc       	lddsp	r12,sp[0x2c]
80007e44:	fe 3d f9 44 	sub	sp,-1724
80007e48:	d8 32       	popm	r0-r7,pc
80007e4a:	d7 03       	nop

80007e4c <__swsetup_r>:
80007e4c:	d4 21       	pushm	r4-r7,lr
80007e4e:	e0 68 01 e4 	mov	r8,484
80007e52:	18 96       	mov	r6,r12
80007e54:	16 97       	mov	r7,r11
80007e56:	70 0c       	ld.w	r12,r8[0x0]
80007e58:	58 0c       	cp.w	r12,0
80007e5a:	c0 60       	breq	80007e66 <__swsetup_r+0x1a>
80007e5c:	78 68       	ld.w	r8,r12[0x18]
80007e5e:	58 08       	cp.w	r8,0
80007e60:	c0 31       	brne	80007e66 <__swsetup_r+0x1a>
80007e62:	e0 a0 07 c5 	rcall	80008dec <__sinit>
80007e66:	fe c8 c3 2a 	sub	r8,pc,-15574
80007e6a:	10 37       	cp.w	r7,r8
80007e6c:	c0 61       	brne	80007e78 <__swsetup_r+0x2c>
80007e6e:	e0 68 01 e4 	mov	r8,484
80007e72:	70 08       	ld.w	r8,r8[0x0]
80007e74:	70 07       	ld.w	r7,r8[0x0]
80007e76:	c1 28       	rjmp	80007e9a <__swsetup_r+0x4e>
80007e78:	fe c8 c3 1c 	sub	r8,pc,-15588
80007e7c:	10 37       	cp.w	r7,r8
80007e7e:	c0 61       	brne	80007e8a <__swsetup_r+0x3e>
80007e80:	e0 68 01 e4 	mov	r8,484
80007e84:	70 08       	ld.w	r8,r8[0x0]
80007e86:	70 17       	ld.w	r7,r8[0x4]
80007e88:	c0 98       	rjmp	80007e9a <__swsetup_r+0x4e>
80007e8a:	fe c8 c3 0e 	sub	r8,pc,-15602
80007e8e:	10 37       	cp.w	r7,r8
80007e90:	c0 51       	brne	80007e9a <__swsetup_r+0x4e>
80007e92:	e0 68 01 e4 	mov	r8,484
80007e96:	70 08       	ld.w	r8,r8[0x0]
80007e98:	70 27       	ld.w	r7,r8[0x8]
80007e9a:	8e 68       	ld.sh	r8,r7[0xc]
80007e9c:	ed b8 00 03 	bld	r8,0x3
80007ea0:	c1 e0       	breq	80007edc <__swsetup_r+0x90>
80007ea2:	ed b8 00 04 	bld	r8,0x4
80007ea6:	c3 e1       	brne	80007f22 <__swsetup_r+0xd6>
80007ea8:	ed b8 00 02 	bld	r8,0x2
80007eac:	c1 51       	brne	80007ed6 <__swsetup_r+0x8a>
80007eae:	6e db       	ld.w	r11,r7[0x34]
80007eb0:	58 0b       	cp.w	r11,0
80007eb2:	c0 a0       	breq	80007ec6 <__swsetup_r+0x7a>
80007eb4:	ee c8 ff bc 	sub	r8,r7,-68
80007eb8:	10 3b       	cp.w	r11,r8
80007eba:	c0 40       	breq	80007ec2 <__swsetup_r+0x76>
80007ebc:	0c 9c       	mov	r12,r6
80007ebe:	e0 a0 08 31 	rcall	80008f20 <_free_r>
80007ec2:	30 08       	mov	r8,0
80007ec4:	8f d8       	st.w	r7[0x34],r8
80007ec6:	8e 68       	ld.sh	r8,r7[0xc]
80007ec8:	e0 18 ff db 	andl	r8,0xffdb
80007ecc:	ae 68       	st.h	r7[0xc],r8
80007ece:	30 08       	mov	r8,0
80007ed0:	8f 18       	st.w	r7[0x4],r8
80007ed2:	6e 48       	ld.w	r8,r7[0x10]
80007ed4:	8f 08       	st.w	r7[0x0],r8
80007ed6:	8e 68       	ld.sh	r8,r7[0xc]
80007ed8:	a3 b8       	sbr	r8,0x3
80007eda:	ae 68       	st.h	r7[0xc],r8
80007edc:	6e 48       	ld.w	r8,r7[0x10]
80007ede:	58 08       	cp.w	r8,0
80007ee0:	c0 b1       	brne	80007ef6 <__swsetup_r+0xaa>
80007ee2:	8e 68       	ld.sh	r8,r7[0xc]
80007ee4:	e2 18 02 80 	andl	r8,0x280,COH
80007ee8:	e0 48 02 00 	cp.w	r8,512
80007eec:	c0 50       	breq	80007ef6 <__swsetup_r+0xaa>
80007eee:	0c 9c       	mov	r12,r6
80007ef0:	0e 9b       	mov	r11,r7
80007ef2:	e0 a0 0a 51 	rcall	80009394 <__smakebuf_r>
80007ef6:	8e 69       	ld.sh	r9,r7[0xc]
80007ef8:	f1 d9 c0 01 	bfextu	r8,r9,0x0,0x1
80007efc:	c0 70       	breq	80007f0a <__swsetup_r+0xbe>
80007efe:	30 08       	mov	r8,0
80007f00:	8f 28       	st.w	r7[0x8],r8
80007f02:	6e 58       	ld.w	r8,r7[0x14]
80007f04:	5c 38       	neg	r8
80007f06:	8f 68       	st.w	r7[0x18],r8
80007f08:	c0 68       	rjmp	80007f14 <__swsetup_r+0xc8>
80007f0a:	ed b9 00 01 	bld	r9,0x1
80007f0e:	c0 20       	breq	80007f12 <__swsetup_r+0xc6>
80007f10:	6e 58       	ld.w	r8,r7[0x14]
80007f12:	8f 28       	st.w	r7[0x8],r8
80007f14:	6e 48       	ld.w	r8,r7[0x10]
80007f16:	58 08       	cp.w	r8,0
80007f18:	c0 61       	brne	80007f24 <__swsetup_r+0xd8>
80007f1a:	8e 68       	ld.sh	r8,r7[0xc]
80007f1c:	ed b8 00 07 	bld	r8,0x7
80007f20:	c0 21       	brne	80007f24 <__swsetup_r+0xd8>
80007f22:	dc 2a       	popm	r4-r7,pc,r12=-1
80007f24:	d8 2a       	popm	r4-r7,pc,r12=0
80007f26:	d7 03       	nop

80007f28 <quorem>:
80007f28:	d4 31       	pushm	r0-r7,lr
80007f2a:	20 2d       	sub	sp,8
80007f2c:	18 97       	mov	r7,r12
80007f2e:	78 48       	ld.w	r8,r12[0x10]
80007f30:	76 46       	ld.w	r6,r11[0x10]
80007f32:	0c 38       	cp.w	r8,r6
80007f34:	c0 34       	brge	80007f3a <quorem+0x12>
80007f36:	30 0c       	mov	r12,0
80007f38:	c8 58       	rjmp	80008042 <quorem+0x11a>
80007f3a:	ec c2 ff fc 	sub	r2,r6,-4
80007f3e:	f6 c3 ff ec 	sub	r3,r11,-20
80007f42:	f6 02 03 29 	ld.w	r9,r11[r2<<0x2]
80007f46:	f8 02 03 2c 	ld.w	r12,r12[r2<<0x2]
80007f4a:	2f f9       	sub	r9,-1
80007f4c:	20 16       	sub	r6,1
80007f4e:	f8 09 0d 08 	divu	r8,r12,r9
80007f52:	f6 02 00 22 	add	r2,r11,r2<<0x2
80007f56:	ee c4 ff ec 	sub	r4,r7,-20
80007f5a:	10 95       	mov	r5,r8
80007f5c:	58 08       	cp.w	r8,0
80007f5e:	c4 10       	breq	80007fe0 <quorem+0xb8>
80007f60:	30 09       	mov	r9,0
80007f62:	06 9a       	mov	r10,r3
80007f64:	08 98       	mov	r8,r4
80007f66:	12 91       	mov	r1,r9
80007f68:	50 0b       	stdsp	sp[0x0],r11
80007f6a:	70 0e       	ld.w	lr,r8[0x0]
80007f6c:	b1 8e       	lsr	lr,0x10
80007f6e:	50 1e       	stdsp	sp[0x4],lr
80007f70:	15 0e       	ld.w	lr,r10++
80007f72:	fc 00 16 10 	lsr	r0,lr,0x10
80007f76:	fd de c0 10 	bfextu	lr,lr,0x0,0x10
80007f7a:	ea 0e 03 41 	mac	r1,r5,lr
80007f7e:	fd d1 c0 10 	bfextu	lr,r1,0x0,0x10
80007f82:	b1 81       	lsr	r1,0x10
80007f84:	40 1b       	lddsp	r11,sp[0x4]
80007f86:	ea 00 02 40 	mul	r0,r5,r0
80007f8a:	e2 00 00 00 	add	r0,r1,r0
80007f8e:	e3 d0 c0 10 	bfextu	r1,r0,0x0,0x10
80007f92:	02 1b       	sub	r11,r1
80007f94:	50 1b       	stdsp	sp[0x4],r11
80007f96:	70 0b       	ld.w	r11,r8[0x0]
80007f98:	e3 db c0 10 	bfextu	r1,r11,0x0,0x10
80007f9c:	02 09       	add	r9,r1
80007f9e:	f2 0e 01 0e 	sub	lr,r9,lr
80007fa2:	b0 1e       	st.h	r8[0x2],lr
80007fa4:	fc 09 14 10 	asr	r9,lr,0x10
80007fa8:	40 1e       	lddsp	lr,sp[0x4]
80007faa:	fc 09 00 09 	add	r9,lr,r9
80007fae:	b0 09       	st.h	r8[0x0],r9
80007fb0:	e0 01 16 10 	lsr	r1,r0,0x10
80007fb4:	2f c8       	sub	r8,-4
80007fb6:	b1 49       	asr	r9,0x10
80007fb8:	04 3a       	cp.w	r10,r2
80007fba:	fe 98 ff d8 	brls	80007f6a <quorem+0x42>
80007fbe:	40 0b       	lddsp	r11,sp[0x0]
80007fc0:	58 0c       	cp.w	r12,0
80007fc2:	c0 f1       	brne	80007fe0 <quorem+0xb8>
80007fc4:	ec c8 ff fb 	sub	r8,r6,-5
80007fc8:	ee 08 00 28 	add	r8,r7,r8<<0x2
80007fcc:	c0 28       	rjmp	80007fd0 <quorem+0xa8>
80007fce:	20 16       	sub	r6,1
80007fd0:	20 48       	sub	r8,4
80007fd2:	08 38       	cp.w	r8,r4
80007fd4:	e0 88 00 05 	brls	80007fde <quorem+0xb6>
80007fd8:	70 09       	ld.w	r9,r8[0x0]
80007fda:	58 09       	cp.w	r9,0
80007fdc:	cf 90       	breq	80007fce <quorem+0xa6>
80007fde:	8f 46       	st.w	r7[0x10],r6
80007fe0:	0e 9c       	mov	r12,r7
80007fe2:	e0 a0 0d 03 	rcall	800099e8 <__mcmp>
80007fe6:	c2 d5       	brlt	80008040 <quorem+0x118>
80007fe8:	2f f5       	sub	r5,-1
80007fea:	08 98       	mov	r8,r4
80007fec:	30 09       	mov	r9,0
80007fee:	07 0b       	ld.w	r11,r3++
80007ff0:	f6 0a 16 10 	lsr	r10,r11,0x10
80007ff4:	70 0c       	ld.w	r12,r8[0x0]
80007ff6:	f7 db c0 10 	bfextu	r11,r11,0x0,0x10
80007ffa:	f8 0e 16 10 	lsr	lr,r12,0x10
80007ffe:	14 1e       	sub	lr,r10
80008000:	f5 dc c0 10 	bfextu	r10,r12,0x0,0x10
80008004:	16 1a       	sub	r10,r11
80008006:	12 0a       	add	r10,r9
80008008:	b0 1a       	st.h	r8[0x2],r10
8000800a:	b1 4a       	asr	r10,0x10
8000800c:	fc 0a 00 09 	add	r9,lr,r10
80008010:	b0 09       	st.h	r8[0x0],r9
80008012:	2f c8       	sub	r8,-4
80008014:	b1 49       	asr	r9,0x10
80008016:	04 33       	cp.w	r3,r2
80008018:	fe 98 ff eb 	brls	80007fee <quorem+0xc6>
8000801c:	ec c8 ff fb 	sub	r8,r6,-5
80008020:	ee 08 03 29 	ld.w	r9,r7[r8<<0x2]
80008024:	58 09       	cp.w	r9,0
80008026:	c0 d1       	brne	80008040 <quorem+0x118>
80008028:	ee 08 00 28 	add	r8,r7,r8<<0x2
8000802c:	c0 28       	rjmp	80008030 <quorem+0x108>
8000802e:	20 16       	sub	r6,1
80008030:	20 48       	sub	r8,4
80008032:	08 38       	cp.w	r8,r4
80008034:	e0 88 00 05 	brls	8000803e <quorem+0x116>
80008038:	70 09       	ld.w	r9,r8[0x0]
8000803a:	58 09       	cp.w	r9,0
8000803c:	cf 90       	breq	8000802e <quorem+0x106>
8000803e:	8f 46       	st.w	r7[0x10],r6
80008040:	0a 9c       	mov	r12,r5
80008042:	2f ed       	sub	sp,-8
80008044:	d8 32       	popm	r0-r7,pc
80008046:	d7 03       	nop

80008048 <_dtoa_r>:
80008048:	d4 31       	pushm	r0-r7,lr
8000804a:	21 ad       	sub	sp,104
8000804c:	fa c4 ff 74 	sub	r4,sp,-140
80008050:	18 97       	mov	r7,r12
80008052:	16 95       	mov	r5,r11
80008054:	68 2c       	ld.w	r12,r4[0x8]
80008056:	50 c9       	stdsp	sp[0x30],r9
80008058:	68 16       	ld.w	r6,r4[0x4]
8000805a:	68 09       	ld.w	r9,r4[0x0]
8000805c:	50 e8       	stdsp	sp[0x38],r8
8000805e:	14 94       	mov	r4,r10
80008060:	51 2c       	stdsp	sp[0x48],r12
80008062:	fa e5 00 08 	st.d	sp[8],r4
80008066:	51 59       	stdsp	sp[0x54],r9
80008068:	6e 95       	ld.w	r5,r7[0x24]
8000806a:	58 05       	cp.w	r5,0
8000806c:	c0 91       	brne	8000807e <_dtoa_r+0x36>
8000806e:	31 0c       	mov	r12,16
80008070:	e0 a0 09 f0 	rcall	80009450 <malloc>
80008074:	99 35       	st.w	r12[0xc],r5
80008076:	8f 9c       	st.w	r7[0x24],r12
80008078:	99 15       	st.w	r12[0x4],r5
8000807a:	99 25       	st.w	r12[0x8],r5
8000807c:	99 05       	st.w	r12[0x0],r5
8000807e:	6e 99       	ld.w	r9,r7[0x24]
80008080:	72 08       	ld.w	r8,r9[0x0]
80008082:	58 08       	cp.w	r8,0
80008084:	c0 f0       	breq	800080a2 <_dtoa_r+0x5a>
80008086:	72 1a       	ld.w	r10,r9[0x4]
80008088:	91 1a       	st.w	r8[0x4],r10
8000808a:	30 1a       	mov	r10,1
8000808c:	72 19       	ld.w	r9,r9[0x4]
8000808e:	f4 09 09 49 	lsl	r9,r10,r9
80008092:	10 9b       	mov	r11,r8
80008094:	91 29       	st.w	r8[0x8],r9
80008096:	0e 9c       	mov	r12,r7
80008098:	e0 a0 0c c2 	rcall	80009a1c <_Bfree>
8000809c:	6e 98       	ld.w	r8,r7[0x24]
8000809e:	30 09       	mov	r9,0
800080a0:	91 09       	st.w	r8[0x0],r9
800080a2:	40 28       	lddsp	r8,sp[0x8]
800080a4:	10 94       	mov	r4,r8
800080a6:	58 08       	cp.w	r8,0
800080a8:	c0 64       	brge	800080b4 <_dtoa_r+0x6c>
800080aa:	f1 d8 c0 1f 	bfextu	r8,r8,0x0,0x1f
800080ae:	50 28       	stdsp	sp[0x8],r8
800080b0:	30 18       	mov	r8,1
800080b2:	c0 28       	rjmp	800080b6 <_dtoa_r+0x6e>
800080b4:	30 08       	mov	r8,0
800080b6:	8d 08       	st.w	r6[0x0],r8
800080b8:	30 0c       	mov	r12,0
800080ba:	ea 1c 7f f0 	orh	r12,0x7ff0
800080be:	40 26       	lddsp	r6,sp[0x8]
800080c0:	0c 98       	mov	r8,r6
800080c2:	e6 18 7f f0 	andh	r8,0x7ff0,COH
800080c6:	18 38       	cp.w	r8,r12
800080c8:	c1 f1       	brne	80008106 <_dtoa_r+0xbe>
800080ca:	e0 68 27 0f 	mov	r8,9999
800080ce:	41 5b       	lddsp	r11,sp[0x54]
800080d0:	97 08       	st.w	r11[0x0],r8
800080d2:	40 3a       	lddsp	r10,sp[0xc]
800080d4:	58 0a       	cp.w	r10,0
800080d6:	c0 71       	brne	800080e4 <_dtoa_r+0x9c>
800080d8:	ed d6 c0 14 	bfextu	r6,r6,0x0,0x14
800080dc:	c0 41       	brne	800080e4 <_dtoa_r+0x9c>
800080de:	fe cc c5 b2 	sub	r12,pc,-14926
800080e2:	c0 38       	rjmp	800080e8 <_dtoa_r+0xa0>
800080e4:	fe cc c5 ac 	sub	r12,pc,-14932
800080e8:	41 29       	lddsp	r9,sp[0x48]
800080ea:	58 09       	cp.w	r9,0
800080ec:	e0 80 05 a8 	breq	80008c3c <_dtoa_r+0xbf4>
800080f0:	f8 c8 ff fd 	sub	r8,r12,-3
800080f4:	f8 c9 ff f8 	sub	r9,r12,-8
800080f8:	11 8b       	ld.ub	r11,r8[0x0]
800080fa:	30 0a       	mov	r10,0
800080fc:	f4 0b 18 00 	cp.b	r11,r10
80008100:	f2 08 17 10 	movne	r8,r9
80008104:	c1 78       	rjmp	80008132 <_dtoa_r+0xea>
80008106:	fa ea 00 08 	ld.d	r10,sp[8]
8000810a:	30 08       	mov	r8,0
8000810c:	fa eb 00 3c 	st.d	sp[60],r10
80008110:	30 09       	mov	r9,0
80008112:	e0 a0 14 f1 	rcall	8000aaf4 <__avr32_f64_cmp_eq>
80008116:	c1 20       	breq	8000813a <_dtoa_r+0xf2>
80008118:	30 18       	mov	r8,1
8000811a:	41 5a       	lddsp	r10,sp[0x54]
8000811c:	95 08       	st.w	r10[0x0],r8
8000811e:	41 29       	lddsp	r9,sp[0x48]
80008120:	fe c8 c8 1c 	sub	r8,pc,-14308
80008124:	58 09       	cp.w	r9,0
80008126:	c0 41       	brne	8000812e <_dtoa_r+0xe6>
80008128:	10 9c       	mov	r12,r8
8000812a:	e0 8f 05 89 	bral	80008c3c <_dtoa_r+0xbf4>
8000812e:	10 9c       	mov	r12,r8
80008130:	2f f8       	sub	r8,-1
80008132:	41 25       	lddsp	r5,sp[0x48]
80008134:	8b 08       	st.w	r5[0x0],r8
80008136:	e0 8f 05 83 	bral	80008c3c <_dtoa_r+0xbf4>
8000813a:	fa c8 ff 9c 	sub	r8,sp,-100
8000813e:	fa c9 ff a0 	sub	r9,sp,-96
80008142:	fa ea 00 3c 	ld.d	r10,sp[60]
80008146:	0e 9c       	mov	r12,r7
80008148:	eb d6 c2 8b 	bfextu	r5,r6,0x14,0xb
8000814c:	e0 a0 0c ba 	rcall	80009ac0 <__d2b>
80008150:	18 93       	mov	r3,r12
80008152:	58 05       	cp.w	r5,0
80008154:	c0 d0       	breq	8000816e <_dtoa_r+0x126>
80008156:	fa ea 00 3c 	ld.d	r10,sp[60]
8000815a:	30 04       	mov	r4,0
8000815c:	f1 db c0 14 	bfextu	r8,r11,0x0,0x14
80008160:	ea c5 03 ff 	sub	r5,r5,1023
80008164:	10 9b       	mov	r11,r8
80008166:	51 74       	stdsp	sp[0x5c],r4
80008168:	ea 1b 3f f0 	orh	r11,0x3ff0
8000816c:	c2 68       	rjmp	800081b8 <_dtoa_r+0x170>
8000816e:	41 88       	lddsp	r8,sp[0x60]
80008170:	41 9c       	lddsp	r12,sp[0x64]
80008172:	10 0c       	add	r12,r8
80008174:	f8 c5 fb ce 	sub	r5,r12,-1074
80008178:	e0 45 00 20 	cp.w	r5,32
8000817c:	e0 8a 00 0e 	brle	80008198 <_dtoa_r+0x150>
80008180:	f8 cc fb ee 	sub	r12,r12,-1042
80008184:	40 3b       	lddsp	r11,sp[0xc]
80008186:	ea 08 11 40 	rsub	r8,r5,64
8000818a:	f6 0c 0a 4c 	lsr	r12,r11,r12
8000818e:	ec 08 09 46 	lsl	r6,r6,r8
80008192:	0c 4c       	or	r12,r6
80008194:	c0 78       	rjmp	800081a2 <_dtoa_r+0x15a>
80008196:	d7 03       	nop
80008198:	ea 0c 11 20 	rsub	r12,r5,32
8000819c:	40 3a       	lddsp	r10,sp[0xc]
8000819e:	f4 0c 09 4c 	lsl	r12,r10,r12
800081a2:	e0 a0 14 34 	rcall	8000aa0a <__avr32_u32_to_f64>
800081a6:	30 08       	mov	r8,0
800081a8:	ea 18 fe 10 	orh	r8,0xfe10
800081ac:	30 19       	mov	r9,1
800081ae:	ea c5 04 33 	sub	r5,r5,1075
800081b2:	f0 0b 00 0b 	add	r11,r8,r11
800081b6:	51 79       	stdsp	sp[0x5c],r9
800081b8:	30 08       	mov	r8,0
800081ba:	30 09       	mov	r9,0
800081bc:	ea 19 3f f8 	orh	r9,0x3ff8
800081c0:	e0 a0 12 ba 	rcall	8000a734 <__avr32_f64_sub>
800081c4:	e0 68 43 61 	mov	r8,17249
800081c8:	ea 18 63 6f 	orh	r8,0x636f
800081cc:	e0 69 87 a7 	mov	r9,34727
800081d0:	ea 19 3f d2 	orh	r9,0x3fd2
800081d4:	e0 a0 11 c4 	rcall	8000a55c <__avr32_f64_mul>
800081d8:	e0 68 c8 b3 	mov	r8,51379
800081dc:	ea 18 8b 60 	orh	r8,0x8b60
800081e0:	e0 69 8a 28 	mov	r9,35368
800081e4:	ea 19 3f c6 	orh	r9,0x3fc6
800081e8:	e0 a0 13 74 	rcall	8000a8d0 <__avr32_f64_add>
800081ec:	0a 9c       	mov	r12,r5
800081ee:	14 90       	mov	r0,r10
800081f0:	16 91       	mov	r1,r11
800081f2:	e0 a0 14 10 	rcall	8000aa12 <__avr32_s32_to_f64>
800081f6:	e0 68 79 fb 	mov	r8,31227
800081fa:	ea 18 50 9f 	orh	r8,0x509f
800081fe:	e0 69 44 13 	mov	r9,17427
80008202:	ea 19 3f d3 	orh	r9,0x3fd3
80008206:	e0 a0 11 ab 	rcall	8000a55c <__avr32_f64_mul>
8000820a:	14 98       	mov	r8,r10
8000820c:	16 99       	mov	r9,r11
8000820e:	00 9a       	mov	r10,r0
80008210:	02 9b       	mov	r11,r1
80008212:	e0 a0 13 5f 	rcall	8000a8d0 <__avr32_f64_add>
80008216:	14 90       	mov	r0,r10
80008218:	16 91       	mov	r1,r11
8000821a:	e0 a0 13 e5 	rcall	8000a9e4 <__avr32_f64_to_s32>
8000821e:	30 08       	mov	r8,0
80008220:	18 96       	mov	r6,r12
80008222:	30 09       	mov	r9,0
80008224:	00 9a       	mov	r10,r0
80008226:	02 9b       	mov	r11,r1
80008228:	e0 a0 14 af 	rcall	8000ab86 <__avr32_f64_cmp_lt>
8000822c:	c0 f0       	breq	8000824a <_dtoa_r+0x202>
8000822e:	0c 9c       	mov	r12,r6
80008230:	e0 a0 13 f1 	rcall	8000aa12 <__avr32_s32_to_f64>
80008234:	14 98       	mov	r8,r10
80008236:	16 99       	mov	r9,r11
80008238:	00 9a       	mov	r10,r0
8000823a:	02 9b       	mov	r11,r1
8000823c:	e0 a0 14 5c 	rcall	8000aaf4 <__avr32_f64_cmp_eq>
80008240:	ec c8 00 01 	sub	r8,r6,1
80008244:	58 0c       	cp.w	r12,0
80008246:	f0 06 17 00 	moveq	r6,r8
8000824a:	59 66       	cp.w	r6,22
8000824c:	e0 88 00 05 	brls	80008256 <_dtoa_r+0x20e>
80008250:	30 18       	mov	r8,1
80008252:	51 48       	stdsp	sp[0x50],r8
80008254:	c1 38       	rjmp	8000827a <_dtoa_r+0x232>
80008256:	fe c8 c6 66 	sub	r8,pc,-14746
8000825a:	fa ea 00 3c 	ld.d	r10,sp[60]
8000825e:	f0 06 02 38 	ld.d	r8,r8[r6<<0x3]
80008262:	e0 a0 14 92 	rcall	8000ab86 <__avr32_f64_cmp_lt>
80008266:	ec c8 00 01 	sub	r8,r6,1
8000826a:	58 0c       	cp.w	r12,0
8000826c:	f0 06 17 10 	movne	r6,r8
80008270:	f9 bc 01 00 	movne	r12,0
80008274:	f9 bc 00 00 	moveq	r12,0
80008278:	51 4c       	stdsp	sp[0x50],r12
8000827a:	41 90       	lddsp	r0,sp[0x64]
8000827c:	20 10       	sub	r0,1
8000827e:	0a 10       	sub	r0,r5
80008280:	c0 46       	brmi	80008288 <_dtoa_r+0x240>
80008282:	50 40       	stdsp	sp[0x10],r0
80008284:	30 00       	mov	r0,0
80008286:	c0 48       	rjmp	8000828e <_dtoa_r+0x246>
80008288:	30 05       	mov	r5,0
8000828a:	5c 30       	neg	r0
8000828c:	50 45       	stdsp	sp[0x10],r5
8000828e:	58 06       	cp.w	r6,0
80008290:	c0 75       	brlt	8000829e <_dtoa_r+0x256>
80008292:	40 44       	lddsp	r4,sp[0x10]
80008294:	51 16       	stdsp	sp[0x44],r6
80008296:	0c 04       	add	r4,r6
80008298:	30 02       	mov	r2,0
8000829a:	50 44       	stdsp	sp[0x10],r4
8000829c:	c0 68       	rjmp	800082a8 <_dtoa_r+0x260>
8000829e:	30 0c       	mov	r12,0
800082a0:	0c 10       	sub	r0,r6
800082a2:	ec 02 11 00 	rsub	r2,r6,0
800082a6:	51 1c       	stdsp	sp[0x44],r12
800082a8:	40 cb       	lddsp	r11,sp[0x30]
800082aa:	58 9b       	cp.w	r11,9
800082ac:	e0 8b 00 1e 	brhi	800082e8 <_dtoa_r+0x2a0>
800082b0:	16 99       	mov	r9,r11
800082b2:	30 14       	mov	r4,1
800082b4:	20 49       	sub	r9,4
800082b6:	30 08       	mov	r8,0
800082b8:	58 5b       	cp.w	r11,5
800082ba:	e0 8a 00 04 	brle	800082c2 <_dtoa_r+0x27a>
800082be:	50 c9       	stdsp	sp[0x30],r9
800082c0:	10 94       	mov	r4,r8
800082c2:	40 ca       	lddsp	r10,sp[0x30]
800082c4:	58 3a       	cp.w	r10,3
800082c6:	c2 e0       	breq	80008322 <_dtoa_r+0x2da>
800082c8:	e0 89 00 05 	brgt	800082d2 <_dtoa_r+0x28a>
800082cc:	58 2a       	cp.w	r10,2
800082ce:	c1 01       	brne	800082ee <_dtoa_r+0x2a6>
800082d0:	c1 88       	rjmp	80008300 <_dtoa_r+0x2b8>
800082d2:	40 c9       	lddsp	r9,sp[0x30]
800082d4:	58 49       	cp.w	r9,4
800082d6:	c0 60       	breq	800082e2 <_dtoa_r+0x29a>
800082d8:	58 59       	cp.w	r9,5
800082da:	c0 a1       	brne	800082ee <_dtoa_r+0x2a6>
800082dc:	30 18       	mov	r8,1
800082de:	50 d8       	stdsp	sp[0x34],r8
800082e0:	c2 38       	rjmp	80008326 <_dtoa_r+0x2de>
800082e2:	30 15       	mov	r5,1
800082e4:	50 d5       	stdsp	sp[0x34],r5
800082e6:	c0 f8       	rjmp	80008304 <_dtoa_r+0x2bc>
800082e8:	30 0c       	mov	r12,0
800082ea:	30 14       	mov	r4,1
800082ec:	50 cc       	stdsp	sp[0x30],r12
800082ee:	3f fb       	mov	r11,-1
800082f0:	30 1a       	mov	r10,1
800082f2:	30 09       	mov	r9,0
800082f4:	50 9b       	stdsp	sp[0x24],r11
800082f6:	50 da       	stdsp	sp[0x34],r10
800082f8:	16 91       	mov	r1,r11
800082fa:	31 28       	mov	r8,18
800082fc:	50 e9       	stdsp	sp[0x38],r9
800082fe:	c2 18       	rjmp	80008340 <_dtoa_r+0x2f8>
80008300:	30 08       	mov	r8,0
80008302:	50 d8       	stdsp	sp[0x34],r8
80008304:	40 e5       	lddsp	r5,sp[0x38]
80008306:	58 05       	cp.w	r5,0
80008308:	e0 89 00 08 	brgt	80008318 <_dtoa_r+0x2d0>
8000830c:	30 1c       	mov	r12,1
8000830e:	50 9c       	stdsp	sp[0x24],r12
80008310:	18 91       	mov	r1,r12
80008312:	18 98       	mov	r8,r12
80008314:	50 ec       	stdsp	sp[0x38],r12
80008316:	c1 58       	rjmp	80008340 <_dtoa_r+0x2f8>
80008318:	40 eb       	lddsp	r11,sp[0x38]
8000831a:	50 9b       	stdsp	sp[0x24],r11
8000831c:	16 91       	mov	r1,r11
8000831e:	16 98       	mov	r8,r11
80008320:	c1 08       	rjmp	80008340 <_dtoa_r+0x2f8>
80008322:	30 0a       	mov	r10,0
80008324:	50 da       	stdsp	sp[0x34],r10
80008326:	40 e9       	lddsp	r9,sp[0x38]
80008328:	ec 09 00 09 	add	r9,r6,r9
8000832c:	50 99       	stdsp	sp[0x24],r9
8000832e:	12 98       	mov	r8,r9
80008330:	2f f8       	sub	r8,-1
80008332:	58 08       	cp.w	r8,0
80008334:	e0 89 00 05 	brgt	8000833e <_dtoa_r+0x2f6>
80008338:	10 91       	mov	r1,r8
8000833a:	30 18       	mov	r8,1
8000833c:	c0 28       	rjmp	80008340 <_dtoa_r+0x2f8>
8000833e:	10 91       	mov	r1,r8
80008340:	30 09       	mov	r9,0
80008342:	6e 9a       	ld.w	r10,r7[0x24]
80008344:	95 19       	st.w	r10[0x4],r9
80008346:	30 49       	mov	r9,4
80008348:	c0 68       	rjmp	80008354 <_dtoa_r+0x30c>
8000834a:	d7 03       	nop
8000834c:	6a 1a       	ld.w	r10,r5[0x4]
8000834e:	a1 79       	lsl	r9,0x1
80008350:	2f fa       	sub	r10,-1
80008352:	8b 1a       	st.w	r5[0x4],r10
80008354:	6e 95       	ld.w	r5,r7[0x24]
80008356:	f2 ca ff ec 	sub	r10,r9,-20
8000835a:	10 3a       	cp.w	r10,r8
8000835c:	fe 98 ff f8 	brls	8000834c <_dtoa_r+0x304>
80008360:	6a 1b       	ld.w	r11,r5[0x4]
80008362:	0e 9c       	mov	r12,r7
80008364:	e0 a0 0b 76 	rcall	80009a50 <_Balloc>
80008368:	58 e1       	cp.w	r1,14
8000836a:	5f 88       	srls	r8
8000836c:	8b 0c       	st.w	r5[0x0],r12
8000836e:	f1 e4 00 04 	and	r4,r8,r4
80008372:	6e 98       	ld.w	r8,r7[0x24]
80008374:	70 08       	ld.w	r8,r8[0x0]
80008376:	50 88       	stdsp	sp[0x20],r8
80008378:	e0 80 01 8f 	breq	80008696 <_dtoa_r+0x64e>
8000837c:	58 06       	cp.w	r6,0
8000837e:	e0 8a 00 43 	brle	80008404 <_dtoa_r+0x3bc>
80008382:	f3 d6 c0 04 	bfextu	r9,r6,0x0,0x4
80008386:	fe c8 c7 96 	sub	r8,pc,-14442
8000838a:	f0 09 02 34 	ld.d	r4,r8[r9<<0x3]
8000838e:	fa e5 00 18 	st.d	sp[24],r4
80008392:	ec 04 14 04 	asr	r4,r6,0x4
80008396:	ed b4 00 04 	bld	r4,0x4
8000839a:	c0 30       	breq	800083a0 <_dtoa_r+0x358>
8000839c:	30 25       	mov	r5,2
8000839e:	c1 08       	rjmp	800083be <_dtoa_r+0x376>
800083a0:	fe c8 c6 e8 	sub	r8,pc,-14616
800083a4:	f0 e8 00 20 	ld.d	r8,r8[32]
800083a8:	fa ea 00 3c 	ld.d	r10,sp[60]
800083ac:	e9 d4 c0 04 	bfextu	r4,r4,0x0,0x4
800083b0:	e0 a0 14 20 	rcall	8000abf0 <__avr32_f64_div>
800083b4:	30 35       	mov	r5,3
800083b6:	14 98       	mov	r8,r10
800083b8:	16 99       	mov	r9,r11
800083ba:	fa e9 00 08 	st.d	sp[8],r8
800083be:	fe cc c7 06 	sub	r12,pc,-14586
800083c2:	50 a3       	stdsp	sp[0x28],r3
800083c4:	0c 93       	mov	r3,r6
800083c6:	18 96       	mov	r6,r12
800083c8:	c0 f8       	rjmp	800083e6 <_dtoa_r+0x39e>
800083ca:	fa ea 00 18 	ld.d	r10,sp[24]
800083ce:	ed b4 00 00 	bld	r4,0x0
800083d2:	c0 81       	brne	800083e2 <_dtoa_r+0x39a>
800083d4:	ec e8 00 00 	ld.d	r8,r6[0]
800083d8:	2f f5       	sub	r5,-1
800083da:	e0 a0 10 c1 	rcall	8000a55c <__avr32_f64_mul>
800083de:	fa eb 00 18 	st.d	sp[24],r10
800083e2:	a1 54       	asr	r4,0x1
800083e4:	2f 86       	sub	r6,-8
800083e6:	58 04       	cp.w	r4,0
800083e8:	cf 11       	brne	800083ca <_dtoa_r+0x382>
800083ea:	fa e8 00 18 	ld.d	r8,sp[24]
800083ee:	fa ea 00 08 	ld.d	r10,sp[8]
800083f2:	06 96       	mov	r6,r3
800083f4:	e0 a0 13 fe 	rcall	8000abf0 <__avr32_f64_div>
800083f8:	40 a3       	lddsp	r3,sp[0x28]
800083fa:	14 98       	mov	r8,r10
800083fc:	16 99       	mov	r9,r11
800083fe:	fa e9 00 08 	st.d	sp[8],r8
80008402:	c2 f8       	rjmp	80008460 <_dtoa_r+0x418>
80008404:	ec 08 11 00 	rsub	r8,r6,0
80008408:	c0 31       	brne	8000840e <_dtoa_r+0x3c6>
8000840a:	30 25       	mov	r5,2
8000840c:	c2 a8       	rjmp	80008460 <_dtoa_r+0x418>
8000840e:	fe cc c7 56 	sub	r12,pc,-14506
80008412:	f0 04 14 04 	asr	r4,r8,0x4
80008416:	50 1c       	stdsp	sp[0x4],r12
80008418:	f1 d8 c0 04 	bfextu	r8,r8,0x0,0x4
8000841c:	fe c9 c8 2c 	sub	r9,pc,-14292
80008420:	fa ea 00 3c 	ld.d	r10,sp[60]
80008424:	f2 08 02 38 	ld.d	r8,r9[r8<<0x3]
80008428:	e0 a0 10 9a 	rcall	8000a55c <__avr32_f64_mul>
8000842c:	40 1c       	lddsp	r12,sp[0x4]
8000842e:	50 63       	stdsp	sp[0x18],r3
80008430:	30 25       	mov	r5,2
80008432:	0c 93       	mov	r3,r6
80008434:	fa eb 00 08 	st.d	sp[8],r10
80008438:	18 96       	mov	r6,r12
8000843a:	c0 f8       	rjmp	80008458 <_dtoa_r+0x410>
8000843c:	fa ea 00 08 	ld.d	r10,sp[8]
80008440:	ed b4 00 00 	bld	r4,0x0
80008444:	c0 81       	brne	80008454 <_dtoa_r+0x40c>
80008446:	ec e8 00 00 	ld.d	r8,r6[0]
8000844a:	2f f5       	sub	r5,-1
8000844c:	e0 a0 10 88 	rcall	8000a55c <__avr32_f64_mul>
80008450:	fa eb 00 08 	st.d	sp[8],r10
80008454:	a1 54       	asr	r4,0x1
80008456:	2f 86       	sub	r6,-8
80008458:	58 04       	cp.w	r4,0
8000845a:	cf 11       	brne	8000843c <_dtoa_r+0x3f4>
8000845c:	06 96       	mov	r6,r3
8000845e:	40 63       	lddsp	r3,sp[0x18]
80008460:	41 4a       	lddsp	r10,sp[0x50]
80008462:	58 0a       	cp.w	r10,0
80008464:	c2 c0       	breq	800084bc <_dtoa_r+0x474>
80008466:	fa e8 00 08 	ld.d	r8,sp[8]
8000846a:	58 01       	cp.w	r1,0
8000846c:	5f 94       	srgt	r4
8000846e:	fa e9 00 18 	st.d	sp[24],r8
80008472:	30 08       	mov	r8,0
80008474:	30 09       	mov	r9,0
80008476:	ea 19 3f f0 	orh	r9,0x3ff0
8000847a:	fa ea 00 18 	ld.d	r10,sp[24]
8000847e:	e0 a0 13 84 	rcall	8000ab86 <__avr32_f64_cmp_lt>
80008482:	f9 bc 00 00 	moveq	r12,0
80008486:	f9 bc 01 01 	movne	r12,1
8000848a:	e9 ec 00 0c 	and	r12,r4,r12
8000848e:	c1 70       	breq	800084bc <_dtoa_r+0x474>
80008490:	40 98       	lddsp	r8,sp[0x24]
80008492:	58 08       	cp.w	r8,0
80008494:	e0 8a 00 fd 	brle	8000868e <_dtoa_r+0x646>
80008498:	30 08       	mov	r8,0
8000849a:	30 09       	mov	r9,0
8000849c:	ea 19 40 24 	orh	r9,0x4024
800084a0:	ec c4 00 01 	sub	r4,r6,1
800084a4:	fa ea 00 18 	ld.d	r10,sp[24]
800084a8:	2f f5       	sub	r5,-1
800084aa:	50 64       	stdsp	sp[0x18],r4
800084ac:	e0 a0 10 58 	rcall	8000a55c <__avr32_f64_mul>
800084b0:	40 94       	lddsp	r4,sp[0x24]
800084b2:	14 98       	mov	r8,r10
800084b4:	16 99       	mov	r9,r11
800084b6:	fa e9 00 08 	st.d	sp[8],r8
800084ba:	c0 38       	rjmp	800084c0 <_dtoa_r+0x478>
800084bc:	50 66       	stdsp	sp[0x18],r6
800084be:	02 94       	mov	r4,r1
800084c0:	0a 9c       	mov	r12,r5
800084c2:	e0 a0 12 a8 	rcall	8000aa12 <__avr32_s32_to_f64>
800084c6:	fa e8 00 08 	ld.d	r8,sp[8]
800084ca:	e0 a0 10 49 	rcall	8000a55c <__avr32_f64_mul>
800084ce:	30 08       	mov	r8,0
800084d0:	30 09       	mov	r9,0
800084d2:	ea 19 40 1c 	orh	r9,0x401c
800084d6:	e0 a0 11 fd 	rcall	8000a8d0 <__avr32_f64_add>
800084da:	14 98       	mov	r8,r10
800084dc:	16 99       	mov	r9,r11
800084de:	fa e9 00 28 	st.d	sp[40],r8
800084e2:	30 08       	mov	r8,0
800084e4:	ea 18 fc c0 	orh	r8,0xfcc0
800084e8:	40 a5       	lddsp	r5,sp[0x28]
800084ea:	10 05       	add	r5,r8
800084ec:	50 a5       	stdsp	sp[0x28],r5
800084ee:	58 04       	cp.w	r4,0
800084f0:	c2 21       	brne	80008534 <_dtoa_r+0x4ec>
800084f2:	fa ea 00 08 	ld.d	r10,sp[8]
800084f6:	30 08       	mov	r8,0
800084f8:	30 09       	mov	r9,0
800084fa:	ea 19 40 14 	orh	r9,0x4014
800084fe:	e0 a0 11 1b 	rcall	8000a734 <__avr32_f64_sub>
80008502:	40 bc       	lddsp	r12,sp[0x2c]
80008504:	fa eb 00 08 	st.d	sp[8],r10
80008508:	14 98       	mov	r8,r10
8000850a:	16 99       	mov	r9,r11
8000850c:	18 9a       	mov	r10,r12
8000850e:	0a 9b       	mov	r11,r5
80008510:	e0 a0 13 3b 	rcall	8000ab86 <__avr32_f64_cmp_lt>
80008514:	e0 81 02 5b 	brne	800089ca <_dtoa_r+0x982>
80008518:	0a 98       	mov	r8,r5
8000851a:	40 b9       	lddsp	r9,sp[0x2c]
8000851c:	ee 18 80 00 	eorh	r8,0x8000
80008520:	fa ea 00 08 	ld.d	r10,sp[8]
80008524:	10 95       	mov	r5,r8
80008526:	12 98       	mov	r8,r9
80008528:	0a 99       	mov	r9,r5
8000852a:	e0 a0 13 2e 	rcall	8000ab86 <__avr32_f64_cmp_lt>
8000852e:	e0 81 02 45 	brne	800089b8 <_dtoa_r+0x970>
80008532:	ca e8       	rjmp	8000868e <_dtoa_r+0x646>
80008534:	fe c9 c9 44 	sub	r9,pc,-14012
80008538:	e8 c8 00 01 	sub	r8,r4,1
8000853c:	40 d5       	lddsp	r5,sp[0x34]
8000853e:	58 05       	cp.w	r5,0
80008540:	c5 40       	breq	800085e8 <_dtoa_r+0x5a0>
80008542:	30 0c       	mov	r12,0
80008544:	f2 08 02 38 	ld.d	r8,r9[r8<<0x3]
80008548:	51 3c       	stdsp	sp[0x4c],r12
8000854a:	30 0a       	mov	r10,0
8000854c:	30 0b       	mov	r11,0
8000854e:	ea 1b 3f e0 	orh	r11,0x3fe0
80008552:	e0 a0 13 4f 	rcall	8000abf0 <__avr32_f64_div>
80008556:	fa e8 00 28 	ld.d	r8,sp[40]
8000855a:	40 85       	lddsp	r5,sp[0x20]
8000855c:	e0 a0 10 ec 	rcall	8000a734 <__avr32_f64_sub>
80008560:	fa eb 00 28 	st.d	sp[40],r10
80008564:	fa ea 00 08 	ld.d	r10,sp[8]
80008568:	e0 a0 12 3e 	rcall	8000a9e4 <__avr32_f64_to_s32>
8000856c:	51 6c       	stdsp	sp[0x58],r12
8000856e:	e0 a0 12 52 	rcall	8000aa12 <__avr32_s32_to_f64>
80008572:	14 98       	mov	r8,r10
80008574:	16 99       	mov	r9,r11
80008576:	fa ea 00 08 	ld.d	r10,sp[8]
8000857a:	e0 a0 10 dd 	rcall	8000a734 <__avr32_f64_sub>
8000857e:	fa eb 00 08 	st.d	sp[8],r10
80008582:	41 68       	lddsp	r8,sp[0x58]
80008584:	2d 08       	sub	r8,-48
80008586:	0a c8       	st.b	r5++,r8
80008588:	41 39       	lddsp	r9,sp[0x4c]
8000858a:	2f f9       	sub	r9,-1
8000858c:	51 39       	stdsp	sp[0x4c],r9
8000858e:	fa e8 00 28 	ld.d	r8,sp[40]
80008592:	e0 a0 12 fa 	rcall	8000ab86 <__avr32_f64_cmp_lt>
80008596:	e0 81 03 43 	brne	80008c1c <_dtoa_r+0xbd4>
8000859a:	fa e8 00 08 	ld.d	r8,sp[8]
8000859e:	30 0a       	mov	r10,0
800085a0:	30 0b       	mov	r11,0
800085a2:	ea 1b 3f f0 	orh	r11,0x3ff0
800085a6:	e0 a0 10 c7 	rcall	8000a734 <__avr32_f64_sub>
800085aa:	fa e8 00 28 	ld.d	r8,sp[40]
800085ae:	e0 a0 12 ec 	rcall	8000ab86 <__avr32_f64_cmp_lt>
800085b2:	fa ea 00 28 	ld.d	r10,sp[40]
800085b6:	30 08       	mov	r8,0
800085b8:	30 09       	mov	r9,0
800085ba:	ea 19 40 24 	orh	r9,0x4024
800085be:	58 0c       	cp.w	r12,0
800085c0:	e0 81 00 e0 	brne	80008780 <_dtoa_r+0x738>
800085c4:	41 3c       	lddsp	r12,sp[0x4c]
800085c6:	08 3c       	cp.w	r12,r4
800085c8:	c6 34       	brge	8000868e <_dtoa_r+0x646>
800085ca:	e0 a0 0f c9 	rcall	8000a55c <__avr32_f64_mul>
800085ce:	30 08       	mov	r8,0
800085d0:	fa eb 00 28 	st.d	sp[40],r10
800085d4:	30 09       	mov	r9,0
800085d6:	ea 19 40 24 	orh	r9,0x4024
800085da:	fa ea 00 08 	ld.d	r10,sp[8]
800085de:	e0 a0 0f bf 	rcall	8000a55c <__avr32_f64_mul>
800085e2:	fa eb 00 08 	st.d	sp[8],r10
800085e6:	cb fb       	rjmp	80008564 <_dtoa_r+0x51c>
800085e8:	40 85       	lddsp	r5,sp[0x20]
800085ea:	08 05       	add	r5,r4
800085ec:	f2 08 02 3a 	ld.d	r10,r9[r8<<0x3]
800085f0:	51 35       	stdsp	sp[0x4c],r5
800085f2:	fa e8 00 28 	ld.d	r8,sp[40]
800085f6:	40 85       	lddsp	r5,sp[0x20]
800085f8:	e0 a0 0f b2 	rcall	8000a55c <__avr32_f64_mul>
800085fc:	fa eb 00 28 	st.d	sp[40],r10
80008600:	fa ea 00 08 	ld.d	r10,sp[8]
80008604:	e0 a0 11 f0 	rcall	8000a9e4 <__avr32_f64_to_s32>
80008608:	51 6c       	stdsp	sp[0x58],r12
8000860a:	e0 a0 12 04 	rcall	8000aa12 <__avr32_s32_to_f64>
8000860e:	14 98       	mov	r8,r10
80008610:	16 99       	mov	r9,r11
80008612:	fa ea 00 08 	ld.d	r10,sp[8]
80008616:	e0 a0 10 8f 	rcall	8000a734 <__avr32_f64_sub>
8000861a:	fa eb 00 08 	st.d	sp[8],r10
8000861e:	41 68       	lddsp	r8,sp[0x58]
80008620:	2d 08       	sub	r8,-48
80008622:	0a c8       	st.b	r5++,r8
80008624:	41 3c       	lddsp	r12,sp[0x4c]
80008626:	18 35       	cp.w	r5,r12
80008628:	c2 a1       	brne	8000867c <_dtoa_r+0x634>
8000862a:	30 08       	mov	r8,0
8000862c:	30 09       	mov	r9,0
8000862e:	ea 19 3f e0 	orh	r9,0x3fe0
80008632:	fa ea 00 28 	ld.d	r10,sp[40]
80008636:	e0 a0 11 4d 	rcall	8000a8d0 <__avr32_f64_add>
8000863a:	40 85       	lddsp	r5,sp[0x20]
8000863c:	fa e8 00 08 	ld.d	r8,sp[8]
80008640:	08 05       	add	r5,r4
80008642:	e0 a0 12 a2 	rcall	8000ab86 <__avr32_f64_cmp_lt>
80008646:	e0 81 00 9d 	brne	80008780 <_dtoa_r+0x738>
8000864a:	fa e8 00 28 	ld.d	r8,sp[40]
8000864e:	30 0a       	mov	r10,0
80008650:	30 0b       	mov	r11,0
80008652:	ea 1b 3f e0 	orh	r11,0x3fe0
80008656:	e0 a0 10 6f 	rcall	8000a734 <__avr32_f64_sub>
8000865a:	14 98       	mov	r8,r10
8000865c:	16 99       	mov	r9,r11
8000865e:	fa ea 00 08 	ld.d	r10,sp[8]
80008662:	e0 a0 12 92 	rcall	8000ab86 <__avr32_f64_cmp_lt>
80008666:	c1 40       	breq	8000868e <_dtoa_r+0x646>
80008668:	33 09       	mov	r9,48
8000866a:	0a 98       	mov	r8,r5
8000866c:	11 7a       	ld.ub	r10,--r8
8000866e:	f2 0a 18 00 	cp.b	r10,r9
80008672:	e0 81 02 d5 	brne	80008c1c <_dtoa_r+0xbd4>
80008676:	10 95       	mov	r5,r8
80008678:	cf 9b       	rjmp	8000866a <_dtoa_r+0x622>
8000867a:	d7 03       	nop
8000867c:	30 08       	mov	r8,0
8000867e:	30 09       	mov	r9,0
80008680:	ea 19 40 24 	orh	r9,0x4024
80008684:	e0 a0 0f 6c 	rcall	8000a55c <__avr32_f64_mul>
80008688:	fa eb 00 08 	st.d	sp[8],r10
8000868c:	cb ab       	rjmp	80008600 <_dtoa_r+0x5b8>
8000868e:	fa ea 00 3c 	ld.d	r10,sp[60]
80008692:	fa eb 00 08 	st.d	sp[8],r10
80008696:	58 e6       	cp.w	r6,14
80008698:	5f ab       	srle	r11
8000869a:	41 8a       	lddsp	r10,sp[0x60]
8000869c:	30 08       	mov	r8,0
8000869e:	f4 09 11 ff 	rsub	r9,r10,-1
800086a2:	f7 e9 03 f9 	and	r9,r11,r9>>0x1f
800086a6:	f0 09 18 00 	cp.b	r9,r8
800086aa:	e0 80 00 84 	breq	800087b2 <_dtoa_r+0x76a>
800086ae:	40 ea       	lddsp	r10,sp[0x38]
800086b0:	58 01       	cp.w	r1,0
800086b2:	5f a9       	srle	r9
800086b4:	f3 ea 03 f9 	and	r9,r9,r10>>0x1f
800086b8:	fe ca ca c8 	sub	r10,pc,-13624
800086bc:	f4 06 02 34 	ld.d	r4,r10[r6<<0x3]
800086c0:	fa e5 00 10 	st.d	sp[16],r4
800086c4:	f0 09 18 00 	cp.b	r9,r8
800086c8:	c1 50       	breq	800086f2 <_dtoa_r+0x6aa>
800086ca:	58 01       	cp.w	r1,0
800086cc:	e0 81 01 76 	brne	800089b8 <_dtoa_r+0x970>
800086d0:	30 08       	mov	r8,0
800086d2:	30 09       	mov	r9,0
800086d4:	ea 19 40 14 	orh	r9,0x4014
800086d8:	08 9a       	mov	r10,r4
800086da:	0a 9b       	mov	r11,r5
800086dc:	e0 a0 0f 40 	rcall	8000a55c <__avr32_f64_mul>
800086e0:	fa e8 00 08 	ld.d	r8,sp[8]
800086e4:	e0 a0 12 1c 	rcall	8000ab1c <__avr32_f64_cmp_ge>
800086e8:	e0 81 01 68 	brne	800089b8 <_dtoa_r+0x970>
800086ec:	02 92       	mov	r2,r1
800086ee:	e0 8f 01 70 	bral	800089ce <_dtoa_r+0x986>
800086f2:	40 85       	lddsp	r5,sp[0x20]
800086f4:	30 14       	mov	r4,1
800086f6:	fa e8 00 10 	ld.d	r8,sp[16]
800086fa:	fa ea 00 08 	ld.d	r10,sp[8]
800086fe:	e0 a0 12 79 	rcall	8000abf0 <__avr32_f64_div>
80008702:	e0 a0 11 71 	rcall	8000a9e4 <__avr32_f64_to_s32>
80008706:	18 92       	mov	r2,r12
80008708:	e0 a0 11 85 	rcall	8000aa12 <__avr32_s32_to_f64>
8000870c:	fa e8 00 10 	ld.d	r8,sp[16]
80008710:	e0 a0 0f 26 	rcall	8000a55c <__avr32_f64_mul>
80008714:	14 98       	mov	r8,r10
80008716:	16 99       	mov	r9,r11
80008718:	fa ea 00 08 	ld.d	r10,sp[8]
8000871c:	e0 a0 10 0c 	rcall	8000a734 <__avr32_f64_sub>
80008720:	fa eb 00 08 	st.d	sp[8],r10
80008724:	e4 c8 ff d0 	sub	r8,r2,-48
80008728:	0a c8       	st.b	r5++,r8
8000872a:	30 09       	mov	r9,0
8000872c:	ea 19 40 24 	orh	r9,0x4024
80008730:	30 08       	mov	r8,0
80008732:	02 34       	cp.w	r4,r1
80008734:	c3 31       	brne	8000879a <_dtoa_r+0x752>
80008736:	fa e8 00 08 	ld.d	r8,sp[8]
8000873a:	e0 a0 10 cb 	rcall	8000a8d0 <__avr32_f64_add>
8000873e:	16 91       	mov	r1,r11
80008740:	14 90       	mov	r0,r10
80008742:	14 98       	mov	r8,r10
80008744:	02 99       	mov	r9,r1
80008746:	fa ea 00 10 	ld.d	r10,sp[16]
8000874a:	e0 a0 12 1e 	rcall	8000ab86 <__avr32_f64_cmp_lt>
8000874e:	c1 a1       	brne	80008782 <_dtoa_r+0x73a>
80008750:	fa e8 00 10 	ld.d	r8,sp[16]
80008754:	00 9a       	mov	r10,r0
80008756:	02 9b       	mov	r11,r1
80008758:	e0 a0 11 ce 	rcall	8000aaf4 <__avr32_f64_cmp_eq>
8000875c:	e0 80 02 5f 	breq	80008c1a <_dtoa_r+0xbd2>
80008760:	e5 d2 c0 01 	bfextu	r2,r2,0x0,0x1
80008764:	c0 f1       	brne	80008782 <_dtoa_r+0x73a>
80008766:	e0 8f 02 5a 	bral	80008c1a <_dtoa_r+0xbd2>
8000876a:	40 8a       	lddsp	r10,sp[0x20]
8000876c:	14 38       	cp.w	r8,r10
8000876e:	c0 30       	breq	80008774 <_dtoa_r+0x72c>
80008770:	10 95       	mov	r5,r8
80008772:	c0 98       	rjmp	80008784 <_dtoa_r+0x73c>
80008774:	33 08       	mov	r8,48
80008776:	40 89       	lddsp	r9,sp[0x20]
80008778:	2f f6       	sub	r6,-1
8000877a:	b2 88       	st.b	r9[0x0],r8
8000877c:	40 88       	lddsp	r8,sp[0x20]
8000877e:	c0 88       	rjmp	8000878e <_dtoa_r+0x746>
80008780:	40 66       	lddsp	r6,sp[0x18]
80008782:	33 99       	mov	r9,57
80008784:	0a 98       	mov	r8,r5
80008786:	11 7a       	ld.ub	r10,--r8
80008788:	f2 0a 18 00 	cp.b	r10,r9
8000878c:	ce f0       	breq	8000876a <_dtoa_r+0x722>
8000878e:	50 66       	stdsp	sp[0x18],r6
80008790:	11 89       	ld.ub	r9,r8[0x0]
80008792:	2f f9       	sub	r9,-1
80008794:	b0 89       	st.b	r8[0x0],r9
80008796:	e0 8f 02 43 	bral	80008c1c <_dtoa_r+0xbd4>
8000879a:	e0 a0 0e e1 	rcall	8000a55c <__avr32_f64_mul>
8000879e:	2f f4       	sub	r4,-1
800087a0:	fa eb 00 08 	st.d	sp[8],r10
800087a4:	30 08       	mov	r8,0
800087a6:	30 09       	mov	r9,0
800087a8:	e0 a0 11 a6 	rcall	8000aaf4 <__avr32_f64_cmp_eq>
800087ac:	ca 50       	breq	800086f6 <_dtoa_r+0x6ae>
800087ae:	e0 8f 02 36 	bral	80008c1a <_dtoa_r+0xbd2>
800087b2:	40 d8       	lddsp	r8,sp[0x34]
800087b4:	58 08       	cp.w	r8,0
800087b6:	c0 51       	brne	800087c0 <_dtoa_r+0x778>
800087b8:	04 98       	mov	r8,r2
800087ba:	00 95       	mov	r5,r0
800087bc:	40 d4       	lddsp	r4,sp[0x34]
800087be:	c3 48       	rjmp	80008826 <_dtoa_r+0x7de>
800087c0:	40 c5       	lddsp	r5,sp[0x30]
800087c2:	58 15       	cp.w	r5,1
800087c4:	e0 89 00 0e 	brgt	800087e0 <_dtoa_r+0x798>
800087c8:	41 74       	lddsp	r4,sp[0x5c]
800087ca:	58 04       	cp.w	r4,0
800087cc:	c0 40       	breq	800087d4 <_dtoa_r+0x78c>
800087ce:	f4 c9 fb cd 	sub	r9,r10,-1075
800087d2:	c0 48       	rjmp	800087da <_dtoa_r+0x792>
800087d4:	41 99       	lddsp	r9,sp[0x64]
800087d6:	f2 09 11 36 	rsub	r9,r9,54
800087da:	04 98       	mov	r8,r2
800087dc:	00 95       	mov	r5,r0
800087de:	c1 98       	rjmp	80008810 <_dtoa_r+0x7c8>
800087e0:	e2 c8 00 01 	sub	r8,r1,1
800087e4:	10 32       	cp.w	r2,r8
800087e6:	c0 55       	brlt	800087f0 <_dtoa_r+0x7a8>
800087e8:	e4 08 01 08 	sub	r8,r2,r8
800087ec:	c0 88       	rjmp	800087fc <_dtoa_r+0x7b4>
800087ee:	d7 03       	nop
800087f0:	04 18       	sub	r8,r2
800087f2:	41 1c       	lddsp	r12,sp[0x44]
800087f4:	10 02       	add	r2,r8
800087f6:	10 0c       	add	r12,r8
800087f8:	30 08       	mov	r8,0
800087fa:	51 1c       	stdsp	sp[0x44],r12
800087fc:	e0 01 01 05 	sub	r5,r0,r1
80008800:	30 09       	mov	r9,0
80008802:	0a 9b       	mov	r11,r5
80008804:	00 95       	mov	r5,r0
80008806:	58 01       	cp.w	r1,0
80008808:	c0 35       	brlt	8000880e <_dtoa_r+0x7c6>
8000880a:	02 99       	mov	r9,r1
8000880c:	c0 28       	rjmp	80008810 <_dtoa_r+0x7c8>
8000880e:	16 95       	mov	r5,r11
80008810:	40 4b       	lddsp	r11,sp[0x10]
80008812:	12 0b       	add	r11,r9
80008814:	50 08       	stdsp	sp[0x0],r8
80008816:	50 4b       	stdsp	sp[0x10],r11
80008818:	12 00       	add	r0,r9
8000881a:	30 1b       	mov	r11,1
8000881c:	0e 9c       	mov	r12,r7
8000881e:	e0 a0 0a cd 	rcall	80009db8 <__i2b>
80008822:	40 08       	lddsp	r8,sp[0x0]
80008824:	18 94       	mov	r4,r12
80008826:	40 4a       	lddsp	r10,sp[0x10]
80008828:	58 05       	cp.w	r5,0
8000882a:	5f 99       	srgt	r9
8000882c:	58 0a       	cp.w	r10,0
8000882e:	5f 9a       	srgt	r10
80008830:	f5 e9 00 09 	and	r9,r10,r9
80008834:	c0 80       	breq	80008844 <_dtoa_r+0x7fc>
80008836:	40 4c       	lddsp	r12,sp[0x10]
80008838:	f8 05 0d 49 	min	r9,r12,r5
8000883c:	12 1c       	sub	r12,r9
8000883e:	12 10       	sub	r0,r9
80008840:	50 4c       	stdsp	sp[0x10],r12
80008842:	12 15       	sub	r5,r9
80008844:	58 02       	cp.w	r2,0
80008846:	e0 8a 00 27 	brle	80008894 <_dtoa_r+0x84c>
8000884a:	40 db       	lddsp	r11,sp[0x34]
8000884c:	58 0b       	cp.w	r11,0
8000884e:	c1 d0       	breq	80008888 <_dtoa_r+0x840>
80008850:	58 08       	cp.w	r8,0
80008852:	e0 8a 00 17 	brle	80008880 <_dtoa_r+0x838>
80008856:	10 9a       	mov	r10,r8
80008858:	50 08       	stdsp	sp[0x0],r8
8000885a:	08 9b       	mov	r11,r4
8000885c:	0e 9c       	mov	r12,r7
8000885e:	e0 a0 0a f3 	rcall	80009e44 <__pow5mult>
80008862:	06 9a       	mov	r10,r3
80008864:	18 9b       	mov	r11,r12
80008866:	18 94       	mov	r4,r12
80008868:	0e 9c       	mov	r12,r7
8000886a:	e0 a0 0a 27 	rcall	80009cb8 <__multiply>
8000886e:	18 99       	mov	r9,r12
80008870:	06 9b       	mov	r11,r3
80008872:	50 19       	stdsp	sp[0x4],r9
80008874:	0e 9c       	mov	r12,r7
80008876:	e0 a0 08 d3 	rcall	80009a1c <_Bfree>
8000887a:	40 19       	lddsp	r9,sp[0x4]
8000887c:	40 08       	lddsp	r8,sp[0x0]
8000887e:	12 93       	mov	r3,r9
80008880:	e4 08 01 0a 	sub	r10,r2,r8
80008884:	c0 80       	breq	80008894 <_dtoa_r+0x84c>
80008886:	c0 28       	rjmp	8000888a <_dtoa_r+0x842>
80008888:	04 9a       	mov	r10,r2
8000888a:	06 9b       	mov	r11,r3
8000888c:	0e 9c       	mov	r12,r7
8000888e:	e0 a0 0a db 	rcall	80009e44 <__pow5mult>
80008892:	18 93       	mov	r3,r12
80008894:	30 1b       	mov	r11,1
80008896:	0e 9c       	mov	r12,r7
80008898:	e0 a0 0a 90 	rcall	80009db8 <__i2b>
8000889c:	41 1a       	lddsp	r10,sp[0x44]
8000889e:	18 92       	mov	r2,r12
800088a0:	58 0a       	cp.w	r10,0
800088a2:	e0 8a 00 07 	brle	800088b0 <_dtoa_r+0x868>
800088a6:	18 9b       	mov	r11,r12
800088a8:	0e 9c       	mov	r12,r7
800088aa:	e0 a0 0a cd 	rcall	80009e44 <__pow5mult>
800088ae:	18 92       	mov	r2,r12
800088b0:	40 c9       	lddsp	r9,sp[0x30]
800088b2:	58 19       	cp.w	r9,1
800088b4:	e0 89 00 14 	brgt	800088dc <_dtoa_r+0x894>
800088b8:	40 38       	lddsp	r8,sp[0xc]
800088ba:	58 08       	cp.w	r8,0
800088bc:	c1 01       	brne	800088dc <_dtoa_r+0x894>
800088be:	40 29       	lddsp	r9,sp[0x8]
800088c0:	f1 d9 c0 14 	bfextu	r8,r9,0x0,0x14
800088c4:	c0 c1       	brne	800088dc <_dtoa_r+0x894>
800088c6:	12 98       	mov	r8,r9
800088c8:	e6 18 7f f0 	andh	r8,0x7ff0,COH
800088cc:	c0 80       	breq	800088dc <_dtoa_r+0x894>
800088ce:	40 4c       	lddsp	r12,sp[0x10]
800088d0:	30 1b       	mov	r11,1
800088d2:	2f fc       	sub	r12,-1
800088d4:	2f f0       	sub	r0,-1
800088d6:	50 4c       	stdsp	sp[0x10],r12
800088d8:	50 6b       	stdsp	sp[0x18],r11
800088da:	c0 38       	rjmp	800088e0 <_dtoa_r+0x898>
800088dc:	30 0a       	mov	r10,0
800088de:	50 6a       	stdsp	sp[0x18],r10
800088e0:	41 19       	lddsp	r9,sp[0x44]
800088e2:	58 09       	cp.w	r9,0
800088e4:	c0 31       	brne	800088ea <_dtoa_r+0x8a2>
800088e6:	30 1c       	mov	r12,1
800088e8:	c0 98       	rjmp	800088fa <_dtoa_r+0x8b2>
800088ea:	64 48       	ld.w	r8,r2[0x10]
800088ec:	2f c8       	sub	r8,-4
800088ee:	e4 08 03 2c 	ld.w	r12,r2[r8<<0x2]
800088f2:	e0 a0 07 f9 	rcall	800098e4 <__hi0bits>
800088f6:	f8 0c 11 20 	rsub	r12,r12,32
800088fa:	40 4b       	lddsp	r11,sp[0x10]
800088fc:	f8 0b 00 08 	add	r8,r12,r11
80008900:	f1 d8 c0 05 	bfextu	r8,r8,0x0,0x5
80008904:	c0 c0       	breq	8000891c <_dtoa_r+0x8d4>
80008906:	f0 08 11 20 	rsub	r8,r8,32
8000890a:	58 48       	cp.w	r8,4
8000890c:	e0 8a 00 06 	brle	80008918 <_dtoa_r+0x8d0>
80008910:	20 48       	sub	r8,4
80008912:	10 0b       	add	r11,r8
80008914:	50 4b       	stdsp	sp[0x10],r11
80008916:	c0 78       	rjmp	80008924 <_dtoa_r+0x8dc>
80008918:	58 48       	cp.w	r8,4
8000891a:	c0 70       	breq	80008928 <_dtoa_r+0x8e0>
8000891c:	40 4a       	lddsp	r10,sp[0x10]
8000891e:	2e 48       	sub	r8,-28
80008920:	10 0a       	add	r10,r8
80008922:	50 4a       	stdsp	sp[0x10],r10
80008924:	10 00       	add	r0,r8
80008926:	10 05       	add	r5,r8
80008928:	58 00       	cp.w	r0,0
8000892a:	e0 8a 00 08 	brle	8000893a <_dtoa_r+0x8f2>
8000892e:	06 9b       	mov	r11,r3
80008930:	00 9a       	mov	r10,r0
80008932:	0e 9c       	mov	r12,r7
80008934:	e0 a0 09 7e 	rcall	80009c30 <__lshift>
80008938:	18 93       	mov	r3,r12
8000893a:	40 49       	lddsp	r9,sp[0x10]
8000893c:	58 09       	cp.w	r9,0
8000893e:	e0 8a 00 08 	brle	8000894e <_dtoa_r+0x906>
80008942:	04 9b       	mov	r11,r2
80008944:	12 9a       	mov	r10,r9
80008946:	0e 9c       	mov	r12,r7
80008948:	e0 a0 09 74 	rcall	80009c30 <__lshift>
8000894c:	18 92       	mov	r2,r12
8000894e:	41 48       	lddsp	r8,sp[0x50]
80008950:	58 08       	cp.w	r8,0
80008952:	c1 b0       	breq	80008988 <_dtoa_r+0x940>
80008954:	04 9b       	mov	r11,r2
80008956:	06 9c       	mov	r12,r3
80008958:	e0 a0 08 48 	rcall	800099e8 <__mcmp>
8000895c:	c1 64       	brge	80008988 <_dtoa_r+0x940>
8000895e:	06 9b       	mov	r11,r3
80008960:	30 09       	mov	r9,0
80008962:	30 aa       	mov	r10,10
80008964:	0e 9c       	mov	r12,r7
80008966:	e0 a0 0a 31 	rcall	80009dc8 <__multadd>
8000896a:	20 16       	sub	r6,1
8000896c:	18 93       	mov	r3,r12
8000896e:	40 dc       	lddsp	r12,sp[0x34]
80008970:	58 0c       	cp.w	r12,0
80008972:	c0 31       	brne	80008978 <_dtoa_r+0x930>
80008974:	40 91       	lddsp	r1,sp[0x24]
80008976:	c0 98       	rjmp	80008988 <_dtoa_r+0x940>
80008978:	08 9b       	mov	r11,r4
8000897a:	40 91       	lddsp	r1,sp[0x24]
8000897c:	30 09       	mov	r9,0
8000897e:	30 aa       	mov	r10,10
80008980:	0e 9c       	mov	r12,r7
80008982:	e0 a0 0a 23 	rcall	80009dc8 <__multadd>
80008986:	18 94       	mov	r4,r12
80008988:	58 01       	cp.w	r1,0
8000898a:	5f a9       	srle	r9
8000898c:	40 cb       	lddsp	r11,sp[0x30]
8000898e:	58 2b       	cp.w	r11,2
80008990:	5f 98       	srgt	r8
80008992:	f3 e8 00 08 	and	r8,r9,r8
80008996:	c2 50       	breq	800089e0 <_dtoa_r+0x998>
80008998:	58 01       	cp.w	r1,0
8000899a:	c1 11       	brne	800089bc <_dtoa_r+0x974>
8000899c:	04 9b       	mov	r11,r2
8000899e:	02 99       	mov	r9,r1
800089a0:	30 5a       	mov	r10,5
800089a2:	0e 9c       	mov	r12,r7
800089a4:	e0 a0 0a 12 	rcall	80009dc8 <__multadd>
800089a8:	18 92       	mov	r2,r12
800089aa:	18 9b       	mov	r11,r12
800089ac:	06 9c       	mov	r12,r3
800089ae:	e0 a0 08 1d 	rcall	800099e8 <__mcmp>
800089b2:	e0 89 00 0f 	brgt	800089d0 <_dtoa_r+0x988>
800089b6:	c0 38       	rjmp	800089bc <_dtoa_r+0x974>
800089b8:	30 02       	mov	r2,0
800089ba:	04 94       	mov	r4,r2
800089bc:	40 ea       	lddsp	r10,sp[0x38]
800089be:	30 09       	mov	r9,0
800089c0:	5c da       	com	r10
800089c2:	40 85       	lddsp	r5,sp[0x20]
800089c4:	50 6a       	stdsp	sp[0x18],r10
800089c6:	50 49       	stdsp	sp[0x10],r9
800089c8:	c1 39       	rjmp	80008bee <_dtoa_r+0xba6>
800089ca:	08 92       	mov	r2,r4
800089cc:	40 66       	lddsp	r6,sp[0x18]
800089ce:	04 94       	mov	r4,r2
800089d0:	2f f6       	sub	r6,-1
800089d2:	50 66       	stdsp	sp[0x18],r6
800089d4:	33 18       	mov	r8,49
800089d6:	40 85       	lddsp	r5,sp[0x20]
800089d8:	0a c8       	st.b	r5++,r8
800089da:	30 08       	mov	r8,0
800089dc:	50 48       	stdsp	sp[0x10],r8
800089de:	c0 89       	rjmp	80008bee <_dtoa_r+0xba6>
800089e0:	40 dc       	lddsp	r12,sp[0x34]
800089e2:	58 0c       	cp.w	r12,0
800089e4:	e0 80 00 b9 	breq	80008b56 <_dtoa_r+0xb0e>
800089e8:	58 05       	cp.w	r5,0
800089ea:	e0 8a 00 08 	brle	800089fa <_dtoa_r+0x9b2>
800089ee:	08 9b       	mov	r11,r4
800089f0:	0a 9a       	mov	r10,r5
800089f2:	0e 9c       	mov	r12,r7
800089f4:	e0 a0 09 1e 	rcall	80009c30 <__lshift>
800089f8:	18 94       	mov	r4,r12
800089fa:	40 6b       	lddsp	r11,sp[0x18]
800089fc:	58 0b       	cp.w	r11,0
800089fe:	c0 31       	brne	80008a04 <_dtoa_r+0x9bc>
80008a00:	08 9c       	mov	r12,r4
80008a02:	c1 38       	rjmp	80008a28 <_dtoa_r+0x9e0>
80008a04:	68 1b       	ld.w	r11,r4[0x4]
80008a06:	0e 9c       	mov	r12,r7
80008a08:	e0 a0 08 24 	rcall	80009a50 <_Balloc>
80008a0c:	68 4a       	ld.w	r10,r4[0x10]
80008a0e:	18 95       	mov	r5,r12
80008a10:	e8 cb ff f4 	sub	r11,r4,-12
80008a14:	2f ea       	sub	r10,-2
80008a16:	2f 4c       	sub	r12,-12
80008a18:	a3 6a       	lsl	r10,0x2
80008a1a:	fe b0 e7 81 	rcall	8000591c <memcpy>
80008a1e:	0a 9b       	mov	r11,r5
80008a20:	30 1a       	mov	r10,1
80008a22:	0e 9c       	mov	r12,r7
80008a24:	e0 a0 09 06 	rcall	80009c30 <__lshift>
80008a28:	50 44       	stdsp	sp[0x10],r4
80008a2a:	40 3a       	lddsp	r10,sp[0xc]
80008a2c:	30 19       	mov	r9,1
80008a2e:	f5 da c0 01 	bfextu	r10,r10,0x0,0x1
80008a32:	18 94       	mov	r4,r12
80008a34:	50 da       	stdsp	sp[0x34],r10
80008a36:	40 85       	lddsp	r5,sp[0x20]
80008a38:	50 69       	stdsp	sp[0x18],r9
80008a3a:	50 26       	stdsp	sp[0x8],r6
80008a3c:	50 e1       	stdsp	sp[0x38],r1
80008a3e:	04 9b       	mov	r11,r2
80008a40:	06 9c       	mov	r12,r3
80008a42:	fe b0 fa 73 	rcall	80007f28 <quorem>
80008a46:	40 4b       	lddsp	r11,sp[0x10]
80008a48:	f8 c0 ff d0 	sub	r0,r12,-48
80008a4c:	06 9c       	mov	r12,r3
80008a4e:	e0 a0 07 cd 	rcall	800099e8 <__mcmp>
80008a52:	08 9a       	mov	r10,r4
80008a54:	50 9c       	stdsp	sp[0x24],r12
80008a56:	04 9b       	mov	r11,r2
80008a58:	0e 9c       	mov	r12,r7
80008a5a:	e0 a0 08 83 	rcall	80009b60 <__mdiff>
80008a5e:	18 91       	mov	r1,r12
80008a60:	78 38       	ld.w	r8,r12[0xc]
80008a62:	58 08       	cp.w	r8,0
80008a64:	c0 30       	breq	80008a6a <_dtoa_r+0xa22>
80008a66:	30 16       	mov	r6,1
80008a68:	c0 68       	rjmp	80008a74 <_dtoa_r+0xa2c>
80008a6a:	18 9b       	mov	r11,r12
80008a6c:	06 9c       	mov	r12,r3
80008a6e:	e0 a0 07 bd 	rcall	800099e8 <__mcmp>
80008a72:	18 96       	mov	r6,r12
80008a74:	0e 9c       	mov	r12,r7
80008a76:	02 9b       	mov	r11,r1
80008a78:	e0 a0 07 d2 	rcall	80009a1c <_Bfree>
80008a7c:	40 cc       	lddsp	r12,sp[0x30]
80008a7e:	ed ec 10 08 	or	r8,r6,r12
80008a82:	c1 11       	brne	80008aa4 <_dtoa_r+0xa5c>
80008a84:	40 db       	lddsp	r11,sp[0x34]
80008a86:	58 0b       	cp.w	r11,0
80008a88:	c0 e1       	brne	80008aa4 <_dtoa_r+0xa5c>
80008a8a:	40 26       	lddsp	r6,sp[0x8]
80008a8c:	e0 40 00 39 	cp.w	r0,57
80008a90:	c3 40       	breq	80008af8 <_dtoa_r+0xab0>
80008a92:	50 66       	stdsp	sp[0x18],r6
80008a94:	40 9a       	lddsp	r10,sp[0x24]
80008a96:	e0 c8 ff ff 	sub	r8,r0,-1
80008a9a:	58 0a       	cp.w	r10,0
80008a9c:	f0 00 17 90 	movgt	r0,r8
80008aa0:	0a c0       	st.b	r5++,r0
80008aa2:	ca 68       	rjmp	80008bee <_dtoa_r+0xba6>
80008aa4:	40 99       	lddsp	r9,sp[0x24]
80008aa6:	58 09       	cp.w	r9,0
80008aa8:	c0 85       	brlt	80008ab8 <_dtoa_r+0xa70>
80008aaa:	12 98       	mov	r8,r9
80008aac:	40 cc       	lddsp	r12,sp[0x30]
80008aae:	18 48       	or	r8,r12
80008ab0:	c1 d1       	brne	80008aea <_dtoa_r+0xaa2>
80008ab2:	40 db       	lddsp	r11,sp[0x34]
80008ab4:	58 0b       	cp.w	r11,0
80008ab6:	c1 a1       	brne	80008aea <_dtoa_r+0xaa2>
80008ab8:	0c 99       	mov	r9,r6
80008aba:	40 26       	lddsp	r6,sp[0x8]
80008abc:	58 09       	cp.w	r9,0
80008abe:	e0 8a 00 21 	brle	80008b00 <_dtoa_r+0xab8>
80008ac2:	06 9b       	mov	r11,r3
80008ac4:	30 1a       	mov	r10,1
80008ac6:	0e 9c       	mov	r12,r7
80008ac8:	e0 a0 08 b4 	rcall	80009c30 <__lshift>
80008acc:	04 9b       	mov	r11,r2
80008ace:	18 93       	mov	r3,r12
80008ad0:	e0 a0 07 8c 	rcall	800099e8 <__mcmp>
80008ad4:	e0 89 00 06 	brgt	80008ae0 <_dtoa_r+0xa98>
80008ad8:	c1 41       	brne	80008b00 <_dtoa_r+0xab8>
80008ada:	ed b0 00 00 	bld	r0,0x0
80008ade:	c1 11       	brne	80008b00 <_dtoa_r+0xab8>
80008ae0:	e0 40 00 39 	cp.w	r0,57
80008ae4:	c0 a0       	breq	80008af8 <_dtoa_r+0xab0>
80008ae6:	2f f0       	sub	r0,-1
80008ae8:	c0 c8       	rjmp	80008b00 <_dtoa_r+0xab8>
80008aea:	58 06       	cp.w	r6,0
80008aec:	e0 8a 00 0c 	brle	80008b04 <_dtoa_r+0xabc>
80008af0:	40 26       	lddsp	r6,sp[0x8]
80008af2:	e0 40 00 39 	cp.w	r0,57
80008af6:	c0 41       	brne	80008afe <_dtoa_r+0xab6>
80008af8:	33 98       	mov	r8,57
80008afa:	0a c8       	st.b	r5++,r8
80008afc:	c6 78       	rjmp	80008bca <_dtoa_r+0xb82>
80008afe:	2f f0       	sub	r0,-1
80008b00:	0a c0       	st.b	r5++,r0
80008b02:	c7 58       	rjmp	80008bec <_dtoa_r+0xba4>
80008b04:	0a c0       	st.b	r5++,r0
80008b06:	40 6a       	lddsp	r10,sp[0x18]
80008b08:	40 e9       	lddsp	r9,sp[0x38]
80008b0a:	12 3a       	cp.w	r10,r9
80008b0c:	c4 30       	breq	80008b92 <_dtoa_r+0xb4a>
80008b0e:	06 9b       	mov	r11,r3
80008b10:	30 09       	mov	r9,0
80008b12:	30 aa       	mov	r10,10
80008b14:	0e 9c       	mov	r12,r7
80008b16:	e0 a0 09 59 	rcall	80009dc8 <__multadd>
80008b1a:	40 48       	lddsp	r8,sp[0x10]
80008b1c:	18 93       	mov	r3,r12
80008b1e:	08 38       	cp.w	r8,r4
80008b20:	c0 91       	brne	80008b32 <_dtoa_r+0xaea>
80008b22:	10 9b       	mov	r11,r8
80008b24:	30 09       	mov	r9,0
80008b26:	30 aa       	mov	r10,10
80008b28:	0e 9c       	mov	r12,r7
80008b2a:	e0 a0 09 4f 	rcall	80009dc8 <__multadd>
80008b2e:	50 4c       	stdsp	sp[0x10],r12
80008b30:	c0 e8       	rjmp	80008b4c <_dtoa_r+0xb04>
80008b32:	40 4b       	lddsp	r11,sp[0x10]
80008b34:	30 09       	mov	r9,0
80008b36:	30 aa       	mov	r10,10
80008b38:	0e 9c       	mov	r12,r7
80008b3a:	e0 a0 09 47 	rcall	80009dc8 <__multadd>
80008b3e:	08 9b       	mov	r11,r4
80008b40:	50 4c       	stdsp	sp[0x10],r12
80008b42:	30 09       	mov	r9,0
80008b44:	30 aa       	mov	r10,10
80008b46:	0e 9c       	mov	r12,r7
80008b48:	e0 a0 09 40 	rcall	80009dc8 <__multadd>
80008b4c:	18 94       	mov	r4,r12
80008b4e:	40 6c       	lddsp	r12,sp[0x18]
80008b50:	2f fc       	sub	r12,-1
80008b52:	50 6c       	stdsp	sp[0x18],r12
80008b54:	c7 5b       	rjmp	80008a3e <_dtoa_r+0x9f6>
80008b56:	30 18       	mov	r8,1
80008b58:	06 90       	mov	r0,r3
80008b5a:	40 85       	lddsp	r5,sp[0x20]
80008b5c:	08 93       	mov	r3,r4
80008b5e:	0c 94       	mov	r4,r6
80008b60:	10 96       	mov	r6,r8
80008b62:	04 9b       	mov	r11,r2
80008b64:	00 9c       	mov	r12,r0
80008b66:	fe b0 f9 e1 	rcall	80007f28 <quorem>
80008b6a:	2d 0c       	sub	r12,-48
80008b6c:	0a cc       	st.b	r5++,r12
80008b6e:	02 36       	cp.w	r6,r1
80008b70:	c0 a4       	brge	80008b84 <_dtoa_r+0xb3c>
80008b72:	00 9b       	mov	r11,r0
80008b74:	30 09       	mov	r9,0
80008b76:	30 aa       	mov	r10,10
80008b78:	0e 9c       	mov	r12,r7
80008b7a:	2f f6       	sub	r6,-1
80008b7c:	e0 a0 09 26 	rcall	80009dc8 <__multadd>
80008b80:	18 90       	mov	r0,r12
80008b82:	cf 0b       	rjmp	80008b62 <_dtoa_r+0xb1a>
80008b84:	08 96       	mov	r6,r4
80008b86:	30 0b       	mov	r11,0
80008b88:	06 94       	mov	r4,r3
80008b8a:	50 4b       	stdsp	sp[0x10],r11
80008b8c:	00 93       	mov	r3,r0
80008b8e:	18 90       	mov	r0,r12
80008b90:	c0 28       	rjmp	80008b94 <_dtoa_r+0xb4c>
80008b92:	40 26       	lddsp	r6,sp[0x8]
80008b94:	06 9b       	mov	r11,r3
80008b96:	30 1a       	mov	r10,1
80008b98:	0e 9c       	mov	r12,r7
80008b9a:	e0 a0 08 4b 	rcall	80009c30 <__lshift>
80008b9e:	04 9b       	mov	r11,r2
80008ba0:	18 93       	mov	r3,r12
80008ba2:	e0 a0 07 23 	rcall	800099e8 <__mcmp>
80008ba6:	e0 89 00 12 	brgt	80008bca <_dtoa_r+0xb82>
80008baa:	c1 b1       	brne	80008be0 <_dtoa_r+0xb98>
80008bac:	e1 d0 c0 01 	bfextu	r0,r0,0x0,0x1
80008bb0:	c0 d1       	brne	80008bca <_dtoa_r+0xb82>
80008bb2:	c1 78       	rjmp	80008be0 <_dtoa_r+0xb98>
80008bb4:	40 89       	lddsp	r9,sp[0x20]
80008bb6:	12 38       	cp.w	r8,r9
80008bb8:	c0 30       	breq	80008bbe <_dtoa_r+0xb76>
80008bba:	10 95       	mov	r5,r8
80008bbc:	c0 88       	rjmp	80008bcc <_dtoa_r+0xb84>
80008bbe:	2f f6       	sub	r6,-1
80008bc0:	50 66       	stdsp	sp[0x18],r6
80008bc2:	33 18       	mov	r8,49
80008bc4:	40 8c       	lddsp	r12,sp[0x20]
80008bc6:	b8 88       	st.b	r12[0x0],r8
80008bc8:	c1 38       	rjmp	80008bee <_dtoa_r+0xba6>
80008bca:	33 9a       	mov	r10,57
80008bcc:	0a 98       	mov	r8,r5
80008bce:	11 79       	ld.ub	r9,--r8
80008bd0:	f4 09 18 00 	cp.b	r9,r10
80008bd4:	cf 00       	breq	80008bb4 <_dtoa_r+0xb6c>
80008bd6:	2f f9       	sub	r9,-1
80008bd8:	b0 89       	st.b	r8[0x0],r9
80008bda:	c0 98       	rjmp	80008bec <_dtoa_r+0xba4>
80008bdc:	10 95       	mov	r5,r8
80008bde:	c0 28       	rjmp	80008be2 <_dtoa_r+0xb9a>
80008be0:	33 09       	mov	r9,48
80008be2:	0a 98       	mov	r8,r5
80008be4:	11 7a       	ld.ub	r10,--r8
80008be6:	f2 0a 18 00 	cp.b	r10,r9
80008bea:	cf 90       	breq	80008bdc <_dtoa_r+0xb94>
80008bec:	50 66       	stdsp	sp[0x18],r6
80008bee:	04 9b       	mov	r11,r2
80008bf0:	0e 9c       	mov	r12,r7
80008bf2:	e0 a0 07 15 	rcall	80009a1c <_Bfree>
80008bf6:	58 04       	cp.w	r4,0
80008bf8:	c1 20       	breq	80008c1c <_dtoa_r+0xbd4>
80008bfa:	40 4b       	lddsp	r11,sp[0x10]
80008bfc:	08 3b       	cp.w	r11,r4
80008bfe:	5f 19       	srne	r9
80008c00:	58 0b       	cp.w	r11,0
80008c02:	5f 18       	srne	r8
80008c04:	f3 e8 00 08 	and	r8,r9,r8
80008c08:	c0 40       	breq	80008c10 <_dtoa_r+0xbc8>
80008c0a:	0e 9c       	mov	r12,r7
80008c0c:	e0 a0 07 08 	rcall	80009a1c <_Bfree>
80008c10:	08 9b       	mov	r11,r4
80008c12:	0e 9c       	mov	r12,r7
80008c14:	e0 a0 07 04 	rcall	80009a1c <_Bfree>
80008c18:	c0 28       	rjmp	80008c1c <_dtoa_r+0xbd4>
80008c1a:	50 66       	stdsp	sp[0x18],r6
80008c1c:	06 9b       	mov	r11,r3
80008c1e:	0e 9c       	mov	r12,r7
80008c20:	e0 a0 06 fe 	rcall	80009a1c <_Bfree>
80008c24:	30 08       	mov	r8,0
80008c26:	aa 88       	st.b	r5[0x0],r8
80008c28:	40 68       	lddsp	r8,sp[0x18]
80008c2a:	41 5a       	lddsp	r10,sp[0x54]
80008c2c:	2f f8       	sub	r8,-1
80008c2e:	95 08       	st.w	r10[0x0],r8
80008c30:	41 29       	lddsp	r9,sp[0x48]
80008c32:	58 09       	cp.w	r9,0
80008c34:	c0 30       	breq	80008c3a <_dtoa_r+0xbf2>
80008c36:	41 28       	lddsp	r8,sp[0x48]
80008c38:	91 05       	st.w	r8[0x0],r5
80008c3a:	40 8c       	lddsp	r12,sp[0x20]
80008c3c:	2e 6d       	sub	sp,-104
80008c3e:	d8 32       	popm	r0-r7,pc

80008c40 <_fflush_r>:
80008c40:	d4 21       	pushm	r4-r7,lr
80008c42:	16 97       	mov	r7,r11
80008c44:	18 96       	mov	r6,r12
80008c46:	76 48       	ld.w	r8,r11[0x10]
80008c48:	58 08       	cp.w	r8,0
80008c4a:	c7 d0       	breq	80008d44 <_fflush_r+0x104>
80008c4c:	58 0c       	cp.w	r12,0
80008c4e:	c0 50       	breq	80008c58 <_fflush_r+0x18>
80008c50:	78 68       	ld.w	r8,r12[0x18]
80008c52:	58 08       	cp.w	r8,0
80008c54:	c0 21       	brne	80008c58 <_fflush_r+0x18>
80008c56:	cc bc       	rcall	80008dec <__sinit>
80008c58:	fe c8 d1 1c 	sub	r8,pc,-12004
80008c5c:	10 37       	cp.w	r7,r8
80008c5e:	c0 31       	brne	80008c64 <_fflush_r+0x24>
80008c60:	6c 07       	ld.w	r7,r6[0x0]
80008c62:	c0 c8       	rjmp	80008c7a <_fflush_r+0x3a>
80008c64:	fe c8 d1 08 	sub	r8,pc,-12024
80008c68:	10 37       	cp.w	r7,r8
80008c6a:	c0 31       	brne	80008c70 <_fflush_r+0x30>
80008c6c:	6c 17       	ld.w	r7,r6[0x4]
80008c6e:	c0 68       	rjmp	80008c7a <_fflush_r+0x3a>
80008c70:	fe c8 d0 f4 	sub	r8,pc,-12044
80008c74:	10 37       	cp.w	r7,r8
80008c76:	c0 21       	brne	80008c7a <_fflush_r+0x3a>
80008c78:	6c 27       	ld.w	r7,r6[0x8]
80008c7a:	8e 6a       	ld.sh	r10,r7[0xc]
80008c7c:	ed ba 00 03 	bld	r10,0x3
80008c80:	c4 10       	breq	80008d02 <_fflush_r+0xc2>
80008c82:	ab ba       	sbr	r10,0xb
80008c84:	ae 6a       	st.h	r7[0xc],r10
80008c86:	6e 18       	ld.w	r8,r7[0x4]
80008c88:	58 08       	cp.w	r8,0
80008c8a:	e0 89 00 06 	brgt	80008c96 <_fflush_r+0x56>
80008c8e:	6f 08       	ld.w	r8,r7[0x40]
80008c90:	58 08       	cp.w	r8,0
80008c92:	e0 8a 00 59 	brle	80008d44 <_fflush_r+0x104>
80008c96:	6e b8       	ld.w	r8,r7[0x2c]
80008c98:	58 08       	cp.w	r8,0
80008c9a:	c5 50       	breq	80008d44 <_fflush_r+0x104>
80008c9c:	e2 1a 10 00 	andl	r10,0x1000,COH
80008ca0:	c0 30       	breq	80008ca6 <_fflush_r+0x66>
80008ca2:	6f 55       	ld.w	r5,r7[0x54]
80008ca4:	c0 f8       	rjmp	80008cc2 <_fflush_r+0x82>
80008ca6:	30 19       	mov	r9,1
80008ca8:	6e 8b       	ld.w	r11,r7[0x20]
80008caa:	0c 9c       	mov	r12,r6
80008cac:	5d 18       	icall	r8
80008cae:	18 95       	mov	r5,r12
80008cb0:	5b fc       	cp.w	r12,-1
80008cb2:	c0 81       	brne	80008cc2 <_fflush_r+0x82>
80008cb4:	6c 38       	ld.w	r8,r6[0xc]
80008cb6:	59 d8       	cp.w	r8,29
80008cb8:	c4 60       	breq	80008d44 <_fflush_r+0x104>
80008cba:	8e 68       	ld.sh	r8,r7[0xc]
80008cbc:	a7 a8       	sbr	r8,0x6
80008cbe:	ae 68       	st.h	r7[0xc],r8
80008cc0:	d8 22       	popm	r4-r7,pc
80008cc2:	8e 68       	ld.sh	r8,r7[0xc]
80008cc4:	ed b8 00 02 	bld	r8,0x2
80008cc8:	c0 81       	brne	80008cd8 <_fflush_r+0x98>
80008cca:	6e 18       	ld.w	r8,r7[0x4]
80008ccc:	10 15       	sub	r5,r8
80008cce:	6e d8       	ld.w	r8,r7[0x34]
80008cd0:	58 08       	cp.w	r8,0
80008cd2:	c0 30       	breq	80008cd8 <_fflush_r+0x98>
80008cd4:	6f 08       	ld.w	r8,r7[0x40]
80008cd6:	10 15       	sub	r5,r8
80008cd8:	6e b8       	ld.w	r8,r7[0x2c]
80008cda:	0c 9c       	mov	r12,r6
80008cdc:	30 09       	mov	r9,0
80008cde:	0a 9a       	mov	r10,r5
80008ce0:	6e 8b       	ld.w	r11,r7[0x20]
80008ce2:	5d 18       	icall	r8
80008ce4:	8e 68       	ld.sh	r8,r7[0xc]
80008ce6:	0a 3c       	cp.w	r12,r5
80008ce8:	c2 61       	brne	80008d34 <_fflush_r+0xf4>
80008cea:	ab d8       	cbr	r8,0xb
80008cec:	30 0c       	mov	r12,0
80008cee:	6e 49       	ld.w	r9,r7[0x10]
80008cf0:	ae 68       	st.h	r7[0xc],r8
80008cf2:	8f 1c       	st.w	r7[0x4],r12
80008cf4:	8f 09       	st.w	r7[0x0],r9
80008cf6:	ed b8 00 0c 	bld	r8,0xc
80008cfa:	c2 51       	brne	80008d44 <_fflush_r+0x104>
80008cfc:	ef 45 00 54 	st.w	r7[84],r5
80008d00:	d8 22       	popm	r4-r7,pc
80008d02:	6e 45       	ld.w	r5,r7[0x10]
80008d04:	58 05       	cp.w	r5,0
80008d06:	c1 f0       	breq	80008d44 <_fflush_r+0x104>
80008d08:	6e 04       	ld.w	r4,r7[0x0]
80008d0a:	8f 05       	st.w	r7[0x0],r5
80008d0c:	f5 da c0 02 	bfextu	r10,r10,0x0,0x2
80008d10:	c0 30       	breq	80008d16 <_fflush_r+0xd6>
80008d12:	30 08       	mov	r8,0
80008d14:	c0 28       	rjmp	80008d18 <_fflush_r+0xd8>
80008d16:	6e 58       	ld.w	r8,r7[0x14]
80008d18:	8f 28       	st.w	r7[0x8],r8
80008d1a:	0a 14       	sub	r4,r5
80008d1c:	c1 18       	rjmp	80008d3e <_fflush_r+0xfe>
80008d1e:	08 99       	mov	r9,r4
80008d20:	0a 9a       	mov	r10,r5
80008d22:	6e a8       	ld.w	r8,r7[0x28]
80008d24:	6e 8b       	ld.w	r11,r7[0x20]
80008d26:	0c 9c       	mov	r12,r6
80008d28:	5d 18       	icall	r8
80008d2a:	18 14       	sub	r4,r12
80008d2c:	58 0c       	cp.w	r12,0
80008d2e:	e0 89 00 07 	brgt	80008d3c <_fflush_r+0xfc>
80008d32:	8e 68       	ld.sh	r8,r7[0xc]
80008d34:	a7 a8       	sbr	r8,0x6
80008d36:	3f fc       	mov	r12,-1
80008d38:	ae 68       	st.h	r7[0xc],r8
80008d3a:	d8 22       	popm	r4-r7,pc
80008d3c:	18 05       	add	r5,r12
80008d3e:	58 04       	cp.w	r4,0
80008d40:	fe 99 ff ef 	brgt	80008d1e <_fflush_r+0xde>
80008d44:	d8 2a       	popm	r4-r7,pc,r12=0
80008d46:	d7 03       	nop

80008d48 <__sfp_lock_acquire>:
80008d48:	5e fc       	retal	r12

80008d4a <__sfp_lock_release>:
80008d4a:	5e fc       	retal	r12

80008d4c <_cleanup_r>:
80008d4c:	d4 01       	pushm	lr
80008d4e:	fe cb e8 6e 	sub	r11,pc,-6034
80008d52:	e0 a0 02 f7 	rcall	80009340 <_fwalk>
80008d56:	d8 02       	popm	pc

80008d58 <__sfmoreglue>:
80008d58:	d4 21       	pushm	r4-r7,lr
80008d5a:	16 95       	mov	r5,r11
80008d5c:	f6 06 10 5c 	mul	r6,r11,92
80008d60:	ec cb ff f4 	sub	r11,r6,-12
80008d64:	e0 a0 03 7e 	rcall	80009460 <_malloc_r>
80008d68:	18 97       	mov	r7,r12
80008d6a:	c0 90       	breq	80008d7c <__sfmoreglue+0x24>
80008d6c:	99 15       	st.w	r12[0x4],r5
80008d6e:	30 0b       	mov	r11,0
80008d70:	2f 4c       	sub	r12,-12
80008d72:	0c 9a       	mov	r10,r6
80008d74:	8f 2c       	st.w	r7[0x8],r12
80008d76:	8f 0b       	st.w	r7[0x0],r11
80008d78:	fe b0 e6 76 	rcall	80005a64 <memset>
80008d7c:	0e 9c       	mov	r12,r7
80008d7e:	d8 22       	popm	r4-r7,pc

80008d80 <__sfp>:
80008d80:	d4 21       	pushm	r4-r7,lr
80008d82:	fe c8 d1 e2 	sub	r8,pc,-11806
80008d86:	18 96       	mov	r6,r12
80008d88:	70 07       	ld.w	r7,r8[0x0]
80008d8a:	6e 68       	ld.w	r8,r7[0x18]
80008d8c:	58 08       	cp.w	r8,0
80008d8e:	c0 31       	brne	80008d94 <__sfp+0x14>
80008d90:	0e 9c       	mov	r12,r7
80008d92:	c2 dc       	rcall	80008dec <__sinit>
80008d94:	ee c7 ff 28 	sub	r7,r7,-216
80008d98:	30 05       	mov	r5,0
80008d9a:	6e 2c       	ld.w	r12,r7[0x8]
80008d9c:	6e 18       	ld.w	r8,r7[0x4]
80008d9e:	c0 68       	rjmp	80008daa <__sfp+0x2a>
80008da0:	98 69       	ld.sh	r9,r12[0xc]
80008da2:	ea 09 19 00 	cp.h	r9,r5
80008da6:	c1 10       	breq	80008dc8 <__sfp+0x48>
80008da8:	2a 4c       	sub	r12,-92
80008daa:	20 18       	sub	r8,1
80008dac:	cf a7       	brpl	80008da0 <__sfp+0x20>
80008dae:	6e 08       	ld.w	r8,r7[0x0]
80008db0:	58 08       	cp.w	r8,0
80008db2:	c0 61       	brne	80008dbe <__sfp+0x3e>
80008db4:	30 4b       	mov	r11,4
80008db6:	0c 9c       	mov	r12,r6
80008db8:	cd 0f       	rcall	80008d58 <__sfmoreglue>
80008dba:	8f 0c       	st.w	r7[0x0],r12
80008dbc:	c0 30       	breq	80008dc2 <__sfp+0x42>
80008dbe:	6e 07       	ld.w	r7,r7[0x0]
80008dc0:	ce db       	rjmp	80008d9a <__sfp+0x1a>
80008dc2:	30 c8       	mov	r8,12
80008dc4:	8d 38       	st.w	r6[0xc],r8
80008dc6:	d8 22       	popm	r4-r7,pc
80008dc8:	30 08       	mov	r8,0
80008dca:	f9 48 00 4c 	st.w	r12[76],r8
80008dce:	99 08       	st.w	r12[0x0],r8
80008dd0:	99 28       	st.w	r12[0x8],r8
80008dd2:	99 18       	st.w	r12[0x4],r8
80008dd4:	99 48       	st.w	r12[0x10],r8
80008dd6:	99 58       	st.w	r12[0x14],r8
80008dd8:	99 68       	st.w	r12[0x18],r8
80008dda:	99 d8       	st.w	r12[0x34],r8
80008ddc:	99 e8       	st.w	r12[0x38],r8
80008dde:	f9 48 00 48 	st.w	r12[72],r8
80008de2:	3f f8       	mov	r8,-1
80008de4:	b8 78       	st.h	r12[0xe],r8
80008de6:	30 18       	mov	r8,1
80008de8:	b8 68       	st.h	r12[0xc],r8
80008dea:	d8 22       	popm	r4-r7,pc

80008dec <__sinit>:
80008dec:	d4 21       	pushm	r4-r7,lr
80008dee:	18 96       	mov	r6,r12
80008df0:	78 67       	ld.w	r7,r12[0x18]
80008df2:	58 07       	cp.w	r7,0
80008df4:	c4 91       	brne	80008e86 <__sinit+0x9a>
80008df6:	fe c8 00 aa 	sub	r8,pc,170
80008dfa:	30 15       	mov	r5,1
80008dfc:	99 a8       	st.w	r12[0x28],r8
80008dfe:	f9 47 00 d8 	st.w	r12[216],r7
80008e02:	f9 47 00 dc 	st.w	r12[220],r7
80008e06:	f9 47 00 e0 	st.w	r12[224],r7
80008e0a:	99 65       	st.w	r12[0x18],r5
80008e0c:	cb af       	rcall	80008d80 <__sfp>
80008e0e:	8d 0c       	st.w	r6[0x0],r12
80008e10:	0c 9c       	mov	r12,r6
80008e12:	cb 7f       	rcall	80008d80 <__sfp>
80008e14:	8d 1c       	st.w	r6[0x4],r12
80008e16:	0c 9c       	mov	r12,r6
80008e18:	cb 4f       	rcall	80008d80 <__sfp>
80008e1a:	6c 09       	ld.w	r9,r6[0x0]
80008e1c:	30 48       	mov	r8,4
80008e1e:	93 07       	st.w	r9[0x0],r7
80008e20:	b2 68       	st.h	r9[0xc],r8
80008e22:	93 17       	st.w	r9[0x4],r7
80008e24:	93 27       	st.w	r9[0x8],r7
80008e26:	6c 18       	ld.w	r8,r6[0x4]
80008e28:	b2 77       	st.h	r9[0xe],r7
80008e2a:	93 47       	st.w	r9[0x10],r7
80008e2c:	93 57       	st.w	r9[0x14],r7
80008e2e:	93 67       	st.w	r9[0x18],r7
80008e30:	93 89       	st.w	r9[0x20],r9
80008e32:	91 07       	st.w	r8[0x0],r7
80008e34:	91 17       	st.w	r8[0x4],r7
80008e36:	91 27       	st.w	r8[0x8],r7
80008e38:	fe ce eb e8 	sub	lr,pc,-5144
80008e3c:	fe cb ec 18 	sub	r11,pc,-5096
80008e40:	93 9e       	st.w	r9[0x24],lr
80008e42:	93 ab       	st.w	r9[0x28],r11
80008e44:	fe ca ec 40 	sub	r10,pc,-5056
80008e48:	fe c4 ec 4c 	sub	r4,pc,-5044
80008e4c:	93 ba       	st.w	r9[0x2c],r10
80008e4e:	93 c4       	st.w	r9[0x30],r4
80008e50:	30 99       	mov	r9,9
80008e52:	b0 69       	st.h	r8[0xc],r9
80008e54:	b0 75       	st.h	r8[0xe],r5
80008e56:	91 c4       	st.w	r8[0x30],r4
80008e58:	91 47       	st.w	r8[0x10],r7
80008e5a:	91 57       	st.w	r8[0x14],r7
80008e5c:	91 67       	st.w	r8[0x18],r7
80008e5e:	91 88       	st.w	r8[0x20],r8
80008e60:	91 9e       	st.w	r8[0x24],lr
80008e62:	91 ab       	st.w	r8[0x28],r11
80008e64:	91 ba       	st.w	r8[0x2c],r10
80008e66:	8d 2c       	st.w	r6[0x8],r12
80008e68:	31 28       	mov	r8,18
80008e6a:	99 07       	st.w	r12[0x0],r7
80008e6c:	b8 68       	st.h	r12[0xc],r8
80008e6e:	99 17       	st.w	r12[0x4],r7
80008e70:	99 27       	st.w	r12[0x8],r7
80008e72:	30 28       	mov	r8,2
80008e74:	b8 78       	st.h	r12[0xe],r8
80008e76:	99 c4       	st.w	r12[0x30],r4
80008e78:	99 67       	st.w	r12[0x18],r7
80008e7a:	99 9e       	st.w	r12[0x24],lr
80008e7c:	99 ab       	st.w	r12[0x28],r11
80008e7e:	99 ba       	st.w	r12[0x2c],r10
80008e80:	99 47       	st.w	r12[0x10],r7
80008e82:	99 57       	st.w	r12[0x14],r7
80008e84:	99 8c       	st.w	r12[0x20],r12
80008e86:	d8 22       	popm	r4-r7,pc

80008e88 <_malloc_trim_r>:
80008e88:	d4 21       	pushm	r4-r7,lr
80008e8a:	16 95       	mov	r5,r11
80008e8c:	18 97       	mov	r7,r12
80008e8e:	e0 a0 05 29 	rcall	800098e0 <__malloc_lock>
80008e92:	e0 64 01 e8 	mov	r4,488
80008e96:	68 28       	ld.w	r8,r4[0x8]
80008e98:	70 16       	ld.w	r6,r8[0x4]
80008e9a:	e0 16 ff fc 	andl	r6,0xfffc
80008e9e:	ec c8 ff 91 	sub	r8,r6,-111
80008ea2:	f0 05 01 05 	sub	r5,r8,r5
80008ea6:	e0 15 ff 80 	andl	r5,0xff80
80008eaa:	ea c5 00 80 	sub	r5,r5,128
80008eae:	e0 45 00 7f 	cp.w	r5,127
80008eb2:	e0 8a 00 25 	brle	80008efc <_malloc_trim_r+0x74>
80008eb6:	30 0b       	mov	r11,0
80008eb8:	0e 9c       	mov	r12,r7
80008eba:	e0 a0 09 91 	rcall	8000a1dc <_sbrk_r>
80008ebe:	68 28       	ld.w	r8,r4[0x8]
80008ec0:	0c 08       	add	r8,r6
80008ec2:	10 3c       	cp.w	r12,r8
80008ec4:	c1 c1       	brne	80008efc <_malloc_trim_r+0x74>
80008ec6:	ea 0b 11 00 	rsub	r11,r5,0
80008eca:	0e 9c       	mov	r12,r7
80008ecc:	e0 a0 09 88 	rcall	8000a1dc <_sbrk_r>
80008ed0:	5b fc       	cp.w	r12,-1
80008ed2:	c1 91       	brne	80008f04 <_malloc_trim_r+0x7c>
80008ed4:	30 0b       	mov	r11,0
80008ed6:	0e 9c       	mov	r12,r7
80008ed8:	e0 a0 09 82 	rcall	8000a1dc <_sbrk_r>
80008edc:	68 28       	ld.w	r8,r4[0x8]
80008ede:	f8 08 01 09 	sub	r9,r12,r8
80008ee2:	58 f9       	cp.w	r9,15
80008ee4:	e0 8a 00 0c 	brle	80008efc <_malloc_trim_r+0x74>
80008ee8:	a1 a9       	sbr	r9,0x0
80008eea:	91 19       	st.w	r8[0x4],r9
80008eec:	e0 68 05 f4 	mov	r8,1524
80008ef0:	70 09       	ld.w	r9,r8[0x0]
80008ef2:	e0 68 0f 38 	mov	r8,3896
80008ef6:	f8 09 01 09 	sub	r9,r12,r9
80008efa:	91 09       	st.w	r8[0x0],r9
80008efc:	0e 9c       	mov	r12,r7
80008efe:	e0 a0 04 f2 	rcall	800098e2 <__malloc_unlock>
80008f02:	d8 2a       	popm	r4-r7,pc,r12=0
80008f04:	68 28       	ld.w	r8,r4[0x8]
80008f06:	0a 16       	sub	r6,r5
80008f08:	a1 a6       	sbr	r6,0x0
80008f0a:	91 16       	st.w	r8[0x4],r6
80008f0c:	e0 68 0f 38 	mov	r8,3896
80008f10:	70 09       	ld.w	r9,r8[0x0]
80008f12:	0a 19       	sub	r9,r5
80008f14:	0e 9c       	mov	r12,r7
80008f16:	91 09       	st.w	r8[0x0],r9
80008f18:	e0 a0 04 e5 	rcall	800098e2 <__malloc_unlock>
80008f1c:	da 2a       	popm	r4-r7,pc,r12=1
80008f1e:	d7 03       	nop

80008f20 <_free_r>:
80008f20:	d4 21       	pushm	r4-r7,lr
80008f22:	16 96       	mov	r6,r11
80008f24:	18 97       	mov	r7,r12
80008f26:	58 0b       	cp.w	r11,0
80008f28:	e0 80 00 be 	breq	800090a4 <_free_r+0x184>
80008f2c:	e0 a0 04 da 	rcall	800098e0 <__malloc_lock>
80008f30:	20 86       	sub	r6,8
80008f32:	e0 6a 01 e8 	mov	r10,488
80008f36:	6c 18       	ld.w	r8,r6[0x4]
80008f38:	74 2e       	ld.w	lr,r10[0x8]
80008f3a:	f9 d8 c0 01 	bfextu	r12,r8,0x0,0x1
80008f3e:	a1 c8       	cbr	r8,0x0
80008f40:	ec 08 00 09 	add	r9,r6,r8
80008f44:	72 1b       	ld.w	r11,r9[0x4]
80008f46:	e0 1b ff fc 	andl	r11,0xfffc
80008f4a:	1c 39       	cp.w	r9,lr
80008f4c:	c1 e1       	brne	80008f88 <_free_r+0x68>
80008f4e:	f6 08 00 08 	add	r8,r11,r8
80008f52:	58 0c       	cp.w	r12,0
80008f54:	c0 81       	brne	80008f64 <_free_r+0x44>
80008f56:	6c 09       	ld.w	r9,r6[0x0]
80008f58:	12 16       	sub	r6,r9
80008f5a:	12 08       	add	r8,r9
80008f5c:	6c 3b       	ld.w	r11,r6[0xc]
80008f5e:	6c 29       	ld.w	r9,r6[0x8]
80008f60:	97 29       	st.w	r11[0x8],r9
80008f62:	93 3b       	st.w	r9[0xc],r11
80008f64:	10 99       	mov	r9,r8
80008f66:	95 26       	st.w	r10[0x8],r6
80008f68:	a1 a9       	sbr	r9,0x0
80008f6a:	8d 19       	st.w	r6[0x4],r9
80008f6c:	e0 69 05 f0 	mov	r9,1520
80008f70:	72 09       	ld.w	r9,r9[0x0]
80008f72:	12 38       	cp.w	r8,r9
80008f74:	c0 63       	brcs	80008f80 <_free_r+0x60>
80008f76:	e0 68 0f 34 	mov	r8,3892
80008f7a:	0e 9c       	mov	r12,r7
80008f7c:	70 0b       	ld.w	r11,r8[0x0]
80008f7e:	c8 5f       	rcall	80008e88 <_malloc_trim_r>
80008f80:	0e 9c       	mov	r12,r7
80008f82:	e0 a0 04 b0 	rcall	800098e2 <__malloc_unlock>
80008f86:	d8 22       	popm	r4-r7,pc
80008f88:	93 1b       	st.w	r9[0x4],r11
80008f8a:	58 0c       	cp.w	r12,0
80008f8c:	c0 30       	breq	80008f92 <_free_r+0x72>
80008f8e:	30 0c       	mov	r12,0
80008f90:	c0 e8       	rjmp	80008fac <_free_r+0x8c>
80008f92:	6c 0e       	ld.w	lr,r6[0x0]
80008f94:	f4 c5 ff f8 	sub	r5,r10,-8
80008f98:	1c 08       	add	r8,lr
80008f9a:	1c 16       	sub	r6,lr
80008f9c:	6c 2e       	ld.w	lr,r6[0x8]
80008f9e:	0a 3e       	cp.w	lr,r5
80008fa0:	c0 31       	brne	80008fa6 <_free_r+0x86>
80008fa2:	30 1c       	mov	r12,1
80008fa4:	c0 48       	rjmp	80008fac <_free_r+0x8c>
80008fa6:	6c 35       	ld.w	r5,r6[0xc]
80008fa8:	8b 2e       	st.w	r5[0x8],lr
80008faa:	9d 35       	st.w	lr[0xc],r5
80008fac:	f2 0b 00 0e 	add	lr,r9,r11
80008fb0:	7c 1e       	ld.w	lr,lr[0x4]
80008fb2:	ed be 00 00 	bld	lr,0x0
80008fb6:	c1 40       	breq	80008fde <_free_r+0xbe>
80008fb8:	16 08       	add	r8,r11
80008fba:	58 0c       	cp.w	r12,0
80008fbc:	c0 d1       	brne	80008fd6 <_free_r+0xb6>
80008fbe:	e0 6e 01 e8 	mov	lr,488
80008fc2:	72 2b       	ld.w	r11,r9[0x8]
80008fc4:	2f 8e       	sub	lr,-8
80008fc6:	1c 3b       	cp.w	r11,lr
80008fc8:	c0 71       	brne	80008fd6 <_free_r+0xb6>
80008fca:	97 36       	st.w	r11[0xc],r6
80008fcc:	97 26       	st.w	r11[0x8],r6
80008fce:	8d 2b       	st.w	r6[0x8],r11
80008fd0:	8d 3b       	st.w	r6[0xc],r11
80008fd2:	30 1c       	mov	r12,1
80008fd4:	c0 58       	rjmp	80008fde <_free_r+0xbe>
80008fd6:	72 2b       	ld.w	r11,r9[0x8]
80008fd8:	72 39       	ld.w	r9,r9[0xc]
80008fda:	93 2b       	st.w	r9[0x8],r11
80008fdc:	97 39       	st.w	r11[0xc],r9
80008fde:	10 99       	mov	r9,r8
80008fe0:	ec 08 09 08 	st.w	r6[r8],r8
80008fe4:	a1 a9       	sbr	r9,0x0
80008fe6:	8d 19       	st.w	r6[0x4],r9
80008fe8:	58 0c       	cp.w	r12,0
80008fea:	c5 a1       	brne	8000909e <_free_r+0x17e>
80008fec:	e0 48 01 ff 	cp.w	r8,511
80008ff0:	e0 8b 00 13 	brhi	80009016 <_free_r+0xf6>
80008ff4:	a3 98       	lsr	r8,0x3
80008ff6:	f4 08 00 39 	add	r9,r10,r8<<0x3
80008ffa:	72 2b       	ld.w	r11,r9[0x8]
80008ffc:	8d 39       	st.w	r6[0xc],r9
80008ffe:	8d 2b       	st.w	r6[0x8],r11
80009000:	97 36       	st.w	r11[0xc],r6
80009002:	93 26       	st.w	r9[0x8],r6
80009004:	a3 48       	asr	r8,0x2
80009006:	74 19       	ld.w	r9,r10[0x4]
80009008:	30 1b       	mov	r11,1
8000900a:	f6 08 09 48 	lsl	r8,r11,r8
8000900e:	f3 e8 10 08 	or	r8,r9,r8
80009012:	95 18       	st.w	r10[0x4],r8
80009014:	c4 58       	rjmp	8000909e <_free_r+0x17e>
80009016:	f0 0b 16 09 	lsr	r11,r8,0x9
8000901a:	58 4b       	cp.w	r11,4
8000901c:	e0 8b 00 06 	brhi	80009028 <_free_r+0x108>
80009020:	f0 0b 16 06 	lsr	r11,r8,0x6
80009024:	2c 8b       	sub	r11,-56
80009026:	c2 08       	rjmp	80009066 <_free_r+0x146>
80009028:	59 4b       	cp.w	r11,20
8000902a:	e0 8b 00 04 	brhi	80009032 <_free_r+0x112>
8000902e:	2a 5b       	sub	r11,-91
80009030:	c1 b8       	rjmp	80009066 <_free_r+0x146>
80009032:	e0 4b 00 54 	cp.w	r11,84
80009036:	e0 8b 00 06 	brhi	80009042 <_free_r+0x122>
8000903a:	f0 0b 16 0c 	lsr	r11,r8,0xc
8000903e:	29 2b       	sub	r11,-110
80009040:	c1 38       	rjmp	80009066 <_free_r+0x146>
80009042:	e0 4b 01 54 	cp.w	r11,340
80009046:	e0 8b 00 06 	brhi	80009052 <_free_r+0x132>
8000904a:	f0 0b 16 0f 	lsr	r11,r8,0xf
8000904e:	28 9b       	sub	r11,-119
80009050:	c0 b8       	rjmp	80009066 <_free_r+0x146>
80009052:	e0 4b 05 54 	cp.w	r11,1364
80009056:	e0 88 00 05 	brls	80009060 <_free_r+0x140>
8000905a:	37 eb       	mov	r11,126
8000905c:	c0 58       	rjmp	80009066 <_free_r+0x146>
8000905e:	d7 03       	nop
80009060:	f0 0b 16 12 	lsr	r11,r8,0x12
80009064:	28 4b       	sub	r11,-124
80009066:	f4 0b 00 3c 	add	r12,r10,r11<<0x3
8000906a:	78 29       	ld.w	r9,r12[0x8]
8000906c:	18 39       	cp.w	r9,r12
8000906e:	c0 e1       	brne	8000908a <_free_r+0x16a>
80009070:	74 18       	ld.w	r8,r10[0x4]
80009072:	a3 4b       	asr	r11,0x2
80009074:	30 1c       	mov	r12,1
80009076:	f8 0b 09 4b 	lsl	r11,r12,r11
8000907a:	f1 eb 10 0b 	or	r11,r8,r11
8000907e:	12 98       	mov	r8,r9
80009080:	95 1b       	st.w	r10[0x4],r11
80009082:	c0 a8       	rjmp	80009096 <_free_r+0x176>
80009084:	72 29       	ld.w	r9,r9[0x8]
80009086:	18 39       	cp.w	r9,r12
80009088:	c0 60       	breq	80009094 <_free_r+0x174>
8000908a:	72 1a       	ld.w	r10,r9[0x4]
8000908c:	e0 1a ff fc 	andl	r10,0xfffc
80009090:	14 38       	cp.w	r8,r10
80009092:	cf 93       	brcs	80009084 <_free_r+0x164>
80009094:	72 38       	ld.w	r8,r9[0xc]
80009096:	8d 38       	st.w	r6[0xc],r8
80009098:	8d 29       	st.w	r6[0x8],r9
8000909a:	93 36       	st.w	r9[0xc],r6
8000909c:	91 26       	st.w	r8[0x8],r6
8000909e:	0e 9c       	mov	r12,r7
800090a0:	e0 a0 04 21 	rcall	800098e2 <__malloc_unlock>
800090a4:	d8 22       	popm	r4-r7,pc
800090a6:	d7 03       	nop

800090a8 <__sfvwrite_r>:
800090a8:	d4 31       	pushm	r0-r7,lr
800090aa:	20 3d       	sub	sp,12
800090ac:	14 94       	mov	r4,r10
800090ae:	18 95       	mov	r5,r12
800090b0:	16 97       	mov	r7,r11
800090b2:	74 28       	ld.w	r8,r10[0x8]
800090b4:	58 08       	cp.w	r8,0
800090b6:	e0 80 01 41 	breq	80009338 <__sfvwrite_r+0x290>
800090ba:	96 68       	ld.sh	r8,r11[0xc]
800090bc:	ed b8 00 03 	bld	r8,0x3
800090c0:	c0 41       	brne	800090c8 <__sfvwrite_r+0x20>
800090c2:	76 48       	ld.w	r8,r11[0x10]
800090c4:	58 08       	cp.w	r8,0
800090c6:	c0 c1       	brne	800090de <__sfvwrite_r+0x36>
800090c8:	0e 9b       	mov	r11,r7
800090ca:	0a 9c       	mov	r12,r5
800090cc:	fe b0 f6 c0 	rcall	80007e4c <__swsetup_r>
800090d0:	c0 70       	breq	800090de <__sfvwrite_r+0x36>
800090d2:	8e 68       	ld.sh	r8,r7[0xc]
800090d4:	a7 a8       	sbr	r8,0x6
800090d6:	ae 68       	st.h	r7[0xc],r8
800090d8:	30 98       	mov	r8,9
800090da:	8b 38       	st.w	r5[0xc],r8
800090dc:	c2 c9       	rjmp	80009334 <__sfvwrite_r+0x28c>
800090de:	8e 63       	ld.sh	r3,r7[0xc]
800090e0:	68 00       	ld.w	r0,r4[0x0]
800090e2:	06 96       	mov	r6,r3
800090e4:	e2 16 00 02 	andl	r6,0x2,COH
800090e8:	c2 10       	breq	8000912a <__sfvwrite_r+0x82>
800090ea:	30 03       	mov	r3,0
800090ec:	e0 62 04 00 	mov	r2,1024
800090f0:	06 96       	mov	r6,r3
800090f2:	c0 48       	rjmp	800090fa <__sfvwrite_r+0x52>
800090f4:	60 03       	ld.w	r3,r0[0x0]
800090f6:	60 16       	ld.w	r6,r0[0x4]
800090f8:	2f 80       	sub	r0,-8
800090fa:	58 06       	cp.w	r6,0
800090fc:	cf c0       	breq	800090f4 <__sfvwrite_r+0x4c>
800090fe:	e0 46 04 00 	cp.w	r6,1024
80009102:	ec 09 17 80 	movls	r9,r6
80009106:	e4 09 17 b0 	movhi	r9,r2
8000910a:	06 9a       	mov	r10,r3
8000910c:	6e a8       	ld.w	r8,r7[0x28]
8000910e:	6e 8b       	ld.w	r11,r7[0x20]
80009110:	0a 9c       	mov	r12,r5
80009112:	5d 18       	icall	r8
80009114:	18 16       	sub	r6,r12
80009116:	58 0c       	cp.w	r12,0
80009118:	e0 8a 01 0b 	brle	8000932e <__sfvwrite_r+0x286>
8000911c:	68 28       	ld.w	r8,r4[0x8]
8000911e:	18 18       	sub	r8,r12
80009120:	89 28       	st.w	r4[0x8],r8
80009122:	e0 80 01 0b 	breq	80009338 <__sfvwrite_r+0x290>
80009126:	18 03       	add	r3,r12
80009128:	ce 9b       	rjmp	800090fa <__sfvwrite_r+0x52>
8000912a:	e7 d3 c0 01 	bfextu	r3,r3,0x0,0x1
8000912e:	c0 70       	breq	8000913c <__sfvwrite_r+0x94>
80009130:	50 06       	stdsp	sp[0x0],r6
80009132:	0c 93       	mov	r3,r6
80009134:	0c 91       	mov	r1,r6
80009136:	50 15       	stdsp	sp[0x4],r5
80009138:	08 92       	mov	r2,r4
8000913a:	c9 e8       	rjmp	80009276 <__sfvwrite_r+0x1ce>
8000913c:	06 96       	mov	r6,r3
8000913e:	08 91       	mov	r1,r4
80009140:	c0 48       	rjmp	80009148 <__sfvwrite_r+0xa0>
80009142:	60 03       	ld.w	r3,r0[0x0]
80009144:	60 16       	ld.w	r6,r0[0x4]
80009146:	2f 80       	sub	r0,-8
80009148:	58 06       	cp.w	r6,0
8000914a:	cf c0       	breq	80009142 <__sfvwrite_r+0x9a>
8000914c:	8e 68       	ld.sh	r8,r7[0xc]
8000914e:	6e 24       	ld.w	r4,r7[0x8]
80009150:	10 99       	mov	r9,r8
80009152:	e2 19 02 00 	andl	r9,0x200,COH
80009156:	c5 50       	breq	80009200 <__sfvwrite_r+0x158>
80009158:	08 36       	cp.w	r6,r4
8000915a:	c4 33       	brcs	800091e0 <__sfvwrite_r+0x138>
8000915c:	10 99       	mov	r9,r8
8000915e:	e2 19 04 80 	andl	r9,0x480,COH
80009162:	c3 f0       	breq	800091e0 <__sfvwrite_r+0x138>
80009164:	6e 4b       	ld.w	r11,r7[0x10]
80009166:	6e 09       	ld.w	r9,r7[0x0]
80009168:	16 19       	sub	r9,r11
8000916a:	50 09       	stdsp	sp[0x0],r9
8000916c:	6e 59       	ld.w	r9,r7[0x14]
8000916e:	10 9c       	mov	r12,r8
80009170:	f2 09 00 1a 	add	r10,r9,r9<<0x1
80009174:	30 28       	mov	r8,2
80009176:	f4 08 0c 08 	divs	r8,r10,r8
8000917a:	fa e9 00 04 	st.d	sp[4],r8
8000917e:	10 94       	mov	r4,r8
80009180:	40 09       	lddsp	r9,sp[0x0]
80009182:	e2 1c 04 00 	andl	r12,0x400,COH
80009186:	2f f9       	sub	r9,-1
80009188:	0c 09       	add	r9,r6
8000918a:	12 38       	cp.w	r8,r9
8000918c:	f2 04 17 30 	movlo	r4,r9
80009190:	58 0c       	cp.w	r12,0
80009192:	c1 00       	breq	800091b2 <__sfvwrite_r+0x10a>
80009194:	08 9b       	mov	r11,r4
80009196:	0a 9c       	mov	r12,r5
80009198:	c6 4d       	rcall	80009460 <_malloc_r>
8000919a:	18 92       	mov	r2,r12
8000919c:	c1 40       	breq	800091c4 <__sfvwrite_r+0x11c>
8000919e:	40 0a       	lddsp	r10,sp[0x0]
800091a0:	6e 4b       	ld.w	r11,r7[0x10]
800091a2:	fe b0 e3 bd 	rcall	8000591c <memcpy>
800091a6:	8e 68       	ld.sh	r8,r7[0xc]
800091a8:	e0 18 fb 7f 	andl	r8,0xfb7f
800091ac:	a7 b8       	sbr	r8,0x7
800091ae:	ae 68       	st.h	r7[0xc],r8
800091b0:	c0 d8       	rjmp	800091ca <__sfvwrite_r+0x122>
800091b2:	08 9a       	mov	r10,r4
800091b4:	0a 9c       	mov	r12,r5
800091b6:	e0 a0 06 8d 	rcall	80009ed0 <_realloc_r>
800091ba:	18 92       	mov	r2,r12
800091bc:	c0 71       	brne	800091ca <__sfvwrite_r+0x122>
800091be:	6e 4b       	ld.w	r11,r7[0x10]
800091c0:	0a 9c       	mov	r12,r5
800091c2:	ca fe       	rcall	80008f20 <_free_r>
800091c4:	30 c8       	mov	r8,12
800091c6:	8b 38       	st.w	r5[0xc],r8
800091c8:	cb 38       	rjmp	8000932e <__sfvwrite_r+0x286>
800091ca:	40 0a       	lddsp	r10,sp[0x0]
800091cc:	40 09       	lddsp	r9,sp[0x0]
800091ce:	e8 0a 01 0a 	sub	r10,r4,r10
800091d2:	e4 09 00 08 	add	r8,r2,r9
800091d6:	8f 54       	st.w	r7[0x14],r4
800091d8:	8f 2a       	st.w	r7[0x8],r10
800091da:	8f 08       	st.w	r7[0x0],r8
800091dc:	8f 42       	st.w	r7[0x10],r2
800091de:	0c 94       	mov	r4,r6
800091e0:	08 36       	cp.w	r6,r4
800091e2:	ec 04 17 30 	movlo	r4,r6
800091e6:	06 9b       	mov	r11,r3
800091e8:	08 9a       	mov	r10,r4
800091ea:	6e 0c       	ld.w	r12,r7[0x0]
800091ec:	e0 a0 03 5b 	rcall	800098a2 <memmove>
800091f0:	6e 08       	ld.w	r8,r7[0x0]
800091f2:	08 08       	add	r8,r4
800091f4:	8f 08       	st.w	r7[0x0],r8
800091f6:	6e 28       	ld.w	r8,r7[0x8]
800091f8:	08 18       	sub	r8,r4
800091fa:	0c 94       	mov	r4,r6
800091fc:	8f 28       	st.w	r7[0x8],r8
800091fe:	c3 08       	rjmp	8000925e <__sfvwrite_r+0x1b6>
80009200:	08 36       	cp.w	r6,r4
80009202:	5f ba       	srhi	r10
80009204:	6e 0c       	ld.w	r12,r7[0x0]
80009206:	6e 48       	ld.w	r8,r7[0x10]
80009208:	10 3c       	cp.w	r12,r8
8000920a:	5f b8       	srhi	r8
8000920c:	f5 e8 00 08 	and	r8,r10,r8
80009210:	f2 08 18 00 	cp.b	r8,r9
80009214:	c0 e0       	breq	80009230 <__sfvwrite_r+0x188>
80009216:	06 9b       	mov	r11,r3
80009218:	08 9a       	mov	r10,r4
8000921a:	e0 a0 03 44 	rcall	800098a2 <memmove>
8000921e:	6e 08       	ld.w	r8,r7[0x0]
80009220:	08 08       	add	r8,r4
80009222:	0e 9b       	mov	r11,r7
80009224:	8f 08       	st.w	r7[0x0],r8
80009226:	0a 9c       	mov	r12,r5
80009228:	fe b0 fd 0c 	rcall	80008c40 <_fflush_r>
8000922c:	c1 90       	breq	8000925e <__sfvwrite_r+0x1b6>
8000922e:	c8 08       	rjmp	8000932e <__sfvwrite_r+0x286>
80009230:	6e 59       	ld.w	r9,r7[0x14]
80009232:	12 36       	cp.w	r6,r9
80009234:	c0 a3       	brcs	80009248 <__sfvwrite_r+0x1a0>
80009236:	6e a8       	ld.w	r8,r7[0x28]
80009238:	06 9a       	mov	r10,r3
8000923a:	6e 8b       	ld.w	r11,r7[0x20]
8000923c:	0a 9c       	mov	r12,r5
8000923e:	5d 18       	icall	r8
80009240:	18 94       	mov	r4,r12
80009242:	e0 89 00 0e 	brgt	8000925e <__sfvwrite_r+0x1b6>
80009246:	c7 48       	rjmp	8000932e <__sfvwrite_r+0x286>
80009248:	0c 9a       	mov	r10,r6
8000924a:	06 9b       	mov	r11,r3
8000924c:	e0 a0 03 2b 	rcall	800098a2 <memmove>
80009250:	6e 08       	ld.w	r8,r7[0x0]
80009252:	0c 08       	add	r8,r6
80009254:	0c 94       	mov	r4,r6
80009256:	8f 08       	st.w	r7[0x0],r8
80009258:	6e 28       	ld.w	r8,r7[0x8]
8000925a:	0c 18       	sub	r8,r6
8000925c:	8f 28       	st.w	r7[0x8],r8
8000925e:	62 28       	ld.w	r8,r1[0x8]
80009260:	08 18       	sub	r8,r4
80009262:	83 28       	st.w	r1[0x8],r8
80009264:	c6 a0       	breq	80009338 <__sfvwrite_r+0x290>
80009266:	08 16       	sub	r6,r4
80009268:	08 03       	add	r3,r4
8000926a:	c6 fb       	rjmp	80009148 <__sfvwrite_r+0xa0>
8000926c:	60 03       	ld.w	r3,r0[0x0]
8000926e:	60 11       	ld.w	r1,r0[0x4]
80009270:	30 08       	mov	r8,0
80009272:	2f 80       	sub	r0,-8
80009274:	50 08       	stdsp	sp[0x0],r8
80009276:	58 01       	cp.w	r1,0
80009278:	cf a0       	breq	8000926c <__sfvwrite_r+0x1c4>
8000927a:	40 0a       	lddsp	r10,sp[0x0]
8000927c:	58 0a       	cp.w	r10,0
8000927e:	c1 11       	brne	800092a0 <__sfvwrite_r+0x1f8>
80009280:	02 9a       	mov	r10,r1
80009282:	30 ab       	mov	r11,10
80009284:	06 9c       	mov	r12,r3
80009286:	e0 a0 03 03 	rcall	8000988c <memchr>
8000928a:	c0 70       	breq	80009298 <__sfvwrite_r+0x1f0>
8000928c:	f8 c6 ff ff 	sub	r6,r12,-1
80009290:	30 19       	mov	r9,1
80009292:	06 16       	sub	r6,r3
80009294:	50 09       	stdsp	sp[0x0],r9
80009296:	c0 58       	rjmp	800092a0 <__sfvwrite_r+0x1f8>
80009298:	30 18       	mov	r8,1
8000929a:	e2 c6 ff ff 	sub	r6,r1,-1
8000929e:	50 08       	stdsp	sp[0x0],r8
800092a0:	02 36       	cp.w	r6,r1
800092a2:	ec 04 17 80 	movls	r4,r6
800092a6:	e2 04 17 b0 	movhi	r4,r1
800092aa:	6e 59       	ld.w	r9,r7[0x14]
800092ac:	6e 25       	ld.w	r5,r7[0x8]
800092ae:	f2 05 00 05 	add	r5,r9,r5
800092b2:	0a 34       	cp.w	r4,r5
800092b4:	5f 9a       	srgt	r10
800092b6:	6e 0c       	ld.w	r12,r7[0x0]
800092b8:	6e 48       	ld.w	r8,r7[0x10]
800092ba:	10 3c       	cp.w	r12,r8
800092bc:	5f b8       	srhi	r8
800092be:	f5 e8 00 08 	and	r8,r10,r8
800092c2:	30 0a       	mov	r10,0
800092c4:	f4 08 18 00 	cp.b	r8,r10
800092c8:	c0 e0       	breq	800092e4 <__sfvwrite_r+0x23c>
800092ca:	06 9b       	mov	r11,r3
800092cc:	0a 9a       	mov	r10,r5
800092ce:	e0 a0 02 ea 	rcall	800098a2 <memmove>
800092d2:	6e 08       	ld.w	r8,r7[0x0]
800092d4:	0a 08       	add	r8,r5
800092d6:	0e 9b       	mov	r11,r7
800092d8:	8f 08       	st.w	r7[0x0],r8
800092da:	40 1c       	lddsp	r12,sp[0x4]
800092dc:	fe b0 fc b2 	rcall	80008c40 <_fflush_r>
800092e0:	c1 80       	breq	80009310 <__sfvwrite_r+0x268>
800092e2:	c2 68       	rjmp	8000932e <__sfvwrite_r+0x286>
800092e4:	12 34       	cp.w	r4,r9
800092e6:	c0 a5       	brlt	800092fa <__sfvwrite_r+0x252>
800092e8:	6e a8       	ld.w	r8,r7[0x28]
800092ea:	06 9a       	mov	r10,r3
800092ec:	6e 8b       	ld.w	r11,r7[0x20]
800092ee:	40 1c       	lddsp	r12,sp[0x4]
800092f0:	5d 18       	icall	r8
800092f2:	18 95       	mov	r5,r12
800092f4:	e0 89 00 0e 	brgt	80009310 <__sfvwrite_r+0x268>
800092f8:	c1 b8       	rjmp	8000932e <__sfvwrite_r+0x286>
800092fa:	08 9a       	mov	r10,r4
800092fc:	06 9b       	mov	r11,r3
800092fe:	e0 a0 02 d2 	rcall	800098a2 <memmove>
80009302:	6e 08       	ld.w	r8,r7[0x0]
80009304:	08 08       	add	r8,r4
80009306:	08 95       	mov	r5,r4
80009308:	8f 08       	st.w	r7[0x0],r8
8000930a:	6e 28       	ld.w	r8,r7[0x8]
8000930c:	08 18       	sub	r8,r4
8000930e:	8f 28       	st.w	r7[0x8],r8
80009310:	0a 16       	sub	r6,r5
80009312:	c0 71       	brne	80009320 <__sfvwrite_r+0x278>
80009314:	0e 9b       	mov	r11,r7
80009316:	40 1c       	lddsp	r12,sp[0x4]
80009318:	fe b0 fc 94 	rcall	80008c40 <_fflush_r>
8000931c:	c0 91       	brne	8000932e <__sfvwrite_r+0x286>
8000931e:	50 06       	stdsp	sp[0x0],r6
80009320:	64 28       	ld.w	r8,r2[0x8]
80009322:	0a 18       	sub	r8,r5
80009324:	85 28       	st.w	r2[0x8],r8
80009326:	c0 90       	breq	80009338 <__sfvwrite_r+0x290>
80009328:	0a 11       	sub	r1,r5
8000932a:	0a 03       	add	r3,r5
8000932c:	ca 5b       	rjmp	80009276 <__sfvwrite_r+0x1ce>
8000932e:	8e 68       	ld.sh	r8,r7[0xc]
80009330:	a7 a8       	sbr	r8,0x6
80009332:	ae 68       	st.h	r7[0xc],r8
80009334:	3f fc       	mov	r12,-1
80009336:	c0 28       	rjmp	8000933a <__sfvwrite_r+0x292>
80009338:	30 0c       	mov	r12,0
8000933a:	2f dd       	sub	sp,-12
8000933c:	d8 32       	popm	r0-r7,pc
8000933e:	d7 03       	nop

80009340 <_fwalk>:
80009340:	d4 31       	pushm	r0-r7,lr
80009342:	30 05       	mov	r5,0
80009344:	16 91       	mov	r1,r11
80009346:	f8 c7 ff 28 	sub	r7,r12,-216
8000934a:	0a 92       	mov	r2,r5
8000934c:	fe b0 fc fe 	rcall	80008d48 <__sfp_lock_acquire>
80009350:	3f f3       	mov	r3,-1
80009352:	c1 68       	rjmp	8000937e <_fwalk+0x3e>
80009354:	6e 26       	ld.w	r6,r7[0x8]
80009356:	6e 14       	ld.w	r4,r7[0x4]
80009358:	2f 46       	sub	r6,-12
8000935a:	c0 c8       	rjmp	80009372 <_fwalk+0x32>
8000935c:	8c 08       	ld.sh	r8,r6[0x0]
8000935e:	e4 08 19 00 	cp.h	r8,r2
80009362:	c0 70       	breq	80009370 <_fwalk+0x30>
80009364:	8c 18       	ld.sh	r8,r6[0x2]
80009366:	e6 08 19 00 	cp.h	r8,r3
8000936a:	c0 30       	breq	80009370 <_fwalk+0x30>
8000936c:	5d 11       	icall	r1
8000936e:	18 45       	or	r5,r12
80009370:	2a 46       	sub	r6,-92
80009372:	20 14       	sub	r4,1
80009374:	ec cc 00 0c 	sub	r12,r6,12
80009378:	58 04       	cp.w	r4,0
8000937a:	cf 14       	brge	8000935c <_fwalk+0x1c>
8000937c:	6e 07       	ld.w	r7,r7[0x0]
8000937e:	58 07       	cp.w	r7,0
80009380:	ce a1       	brne	80009354 <_fwalk+0x14>
80009382:	fe b0 fc e4 	rcall	80008d4a <__sfp_lock_release>
80009386:	0a 9c       	mov	r12,r5
80009388:	d8 32       	popm	r0-r7,pc
8000938a:	d7 03       	nop

8000938c <_localeconv_r>:
8000938c:	fe cc d7 e8 	sub	r12,pc,-10264
80009390:	5e fc       	retal	r12
80009392:	d7 03       	nop

80009394 <__smakebuf_r>:
80009394:	d4 21       	pushm	r4-r7,lr
80009396:	20 fd       	sub	sp,60
80009398:	96 68       	ld.sh	r8,r11[0xc]
8000939a:	16 97       	mov	r7,r11
8000939c:	18 96       	mov	r6,r12
8000939e:	e2 18 00 02 	andl	r8,0x2,COH
800093a2:	c3 c1       	brne	8000941a <__smakebuf_r+0x86>
800093a4:	96 7b       	ld.sh	r11,r11[0xe]
800093a6:	f0 0b 19 00 	cp.h	r11,r8
800093aa:	c0 55       	brlt	800093b4 <__smakebuf_r+0x20>
800093ac:	1a 9a       	mov	r10,sp
800093ae:	e0 a0 08 a1 	rcall	8000a4f0 <_fstat_r>
800093b2:	c0 f4       	brge	800093d0 <__smakebuf_r+0x3c>
800093b4:	8e 65       	ld.sh	r5,r7[0xc]
800093b6:	0a 98       	mov	r8,r5
800093b8:	ab b8       	sbr	r8,0xb
800093ba:	e2 15 00 80 	andl	r5,0x80,COH
800093be:	ae 68       	st.h	r7[0xc],r8
800093c0:	30 04       	mov	r4,0
800093c2:	e0 68 04 00 	mov	r8,1024
800093c6:	f9 b5 01 40 	movne	r5,64
800093ca:	f0 05 17 00 	moveq	r5,r8
800093ce:	c1 c8       	rjmp	80009406 <__smakebuf_r+0x72>
800093d0:	40 18       	lddsp	r8,sp[0x4]
800093d2:	e2 18 f0 00 	andl	r8,0xf000,COH
800093d6:	e0 48 20 00 	cp.w	r8,8192
800093da:	5f 04       	sreq	r4
800093dc:	e0 48 80 00 	cp.w	r8,32768
800093e0:	c0 e1       	brne	800093fc <__smakebuf_r+0x68>
800093e2:	6e b9       	ld.w	r9,r7[0x2c]
800093e4:	fe c8 f1 e0 	sub	r8,pc,-3616
800093e8:	10 39       	cp.w	r9,r8
800093ea:	c0 91       	brne	800093fc <__smakebuf_r+0x68>
800093ec:	8e 68       	ld.sh	r8,r7[0xc]
800093ee:	e0 65 04 00 	mov	r5,1024
800093f2:	ab a8       	sbr	r8,0xa
800093f4:	ef 45 00 50 	st.w	r7[80],r5
800093f8:	ae 68       	st.h	r7[0xc],r8
800093fa:	c0 68       	rjmp	80009406 <__smakebuf_r+0x72>
800093fc:	8e 68       	ld.sh	r8,r7[0xc]
800093fe:	e0 65 04 00 	mov	r5,1024
80009402:	ab b8       	sbr	r8,0xb
80009404:	ae 68       	st.h	r7[0xc],r8
80009406:	0a 9b       	mov	r11,r5
80009408:	0c 9c       	mov	r12,r6
8000940a:	c2 bc       	rcall	80009460 <_malloc_r>
8000940c:	8e 68       	ld.sh	r8,r7[0xc]
8000940e:	c0 d1       	brne	80009428 <__smakebuf_r+0x94>
80009410:	ed b8 00 09 	bld	r8,0x9
80009414:	c1 b0       	breq	8000944a <__smakebuf_r+0xb6>
80009416:	a1 b8       	sbr	r8,0x1
80009418:	ae 68       	st.h	r7[0xc],r8
8000941a:	ee c8 ff b9 	sub	r8,r7,-71
8000941e:	8f 48       	st.w	r7[0x10],r8
80009420:	8f 08       	st.w	r7[0x0],r8
80009422:	30 18       	mov	r8,1
80009424:	8f 58       	st.w	r7[0x14],r8
80009426:	c1 28       	rjmp	8000944a <__smakebuf_r+0xb6>
80009428:	a7 b8       	sbr	r8,0x7
8000942a:	8f 4c       	st.w	r7[0x10],r12
8000942c:	ae 68       	st.h	r7[0xc],r8
8000942e:	8f 55       	st.w	r7[0x14],r5
80009430:	fe c8 06 e4 	sub	r8,pc,1764
80009434:	8f 0c       	st.w	r7[0x0],r12
80009436:	8d a8       	st.w	r6[0x28],r8
80009438:	58 04       	cp.w	r4,0
8000943a:	c0 80       	breq	8000944a <__smakebuf_r+0xb6>
8000943c:	8e 7c       	ld.sh	r12,r7[0xe]
8000943e:	e0 a0 07 4b 	rcall	8000a2d4 <isatty>
80009442:	c0 40       	breq	8000944a <__smakebuf_r+0xb6>
80009444:	8e 68       	ld.sh	r8,r7[0xc]
80009446:	a1 a8       	sbr	r8,0x0
80009448:	ae 68       	st.h	r7[0xc],r8
8000944a:	2f 1d       	sub	sp,-60
8000944c:	d8 22       	popm	r4-r7,pc
8000944e:	d7 03       	nop

80009450 <malloc>:
80009450:	d4 01       	pushm	lr
80009452:	e0 68 01 e4 	mov	r8,484
80009456:	18 9b       	mov	r11,r12
80009458:	70 0c       	ld.w	r12,r8[0x0]
8000945a:	c0 3c       	rcall	80009460 <_malloc_r>
8000945c:	d8 02       	popm	pc
8000945e:	d7 03       	nop

80009460 <_malloc_r>:
80009460:	d4 31       	pushm	r0-r7,lr
80009462:	f6 c8 ff f5 	sub	r8,r11,-11
80009466:	18 95       	mov	r5,r12
80009468:	10 97       	mov	r7,r8
8000946a:	e0 17 ff f8 	andl	r7,0xfff8
8000946e:	59 68       	cp.w	r8,22
80009470:	f9 b7 08 10 	movls	r7,16
80009474:	16 37       	cp.w	r7,r11
80009476:	5f 38       	srlo	r8
80009478:	f1 e7 13 f8 	or	r8,r8,r7>>0x1f
8000947c:	c0 50       	breq	80009486 <_malloc_r+0x26>
8000947e:	30 c8       	mov	r8,12
80009480:	99 38       	st.w	r12[0xc],r8
80009482:	e0 8f 01 f6 	bral	8000986e <_malloc_r+0x40e>
80009486:	e0 a0 02 2d 	rcall	800098e0 <__malloc_lock>
8000948a:	e0 47 01 f7 	cp.w	r7,503
8000948e:	e0 8b 00 1d 	brhi	800094c8 <_malloc_r+0x68>
80009492:	ee 03 16 03 	lsr	r3,r7,0x3
80009496:	e0 68 01 e8 	mov	r8,488
8000949a:	f0 03 00 38 	add	r8,r8,r3<<0x3
8000949e:	70 36       	ld.w	r6,r8[0xc]
800094a0:	10 36       	cp.w	r6,r8
800094a2:	c0 61       	brne	800094ae <_malloc_r+0x4e>
800094a4:	ec c8 ff f8 	sub	r8,r6,-8
800094a8:	70 36       	ld.w	r6,r8[0xc]
800094aa:	10 36       	cp.w	r6,r8
800094ac:	c0 c0       	breq	800094c4 <_malloc_r+0x64>
800094ae:	6c 18       	ld.w	r8,r6[0x4]
800094b0:	e0 18 ff fc 	andl	r8,0xfffc
800094b4:	6c 3a       	ld.w	r10,r6[0xc]
800094b6:	ec 08 00 09 	add	r9,r6,r8
800094ba:	0a 9c       	mov	r12,r5
800094bc:	6c 28       	ld.w	r8,r6[0x8]
800094be:	95 28       	st.w	r10[0x8],r8
800094c0:	91 3a       	st.w	r8[0xc],r10
800094c2:	c4 78       	rjmp	80009550 <_malloc_r+0xf0>
800094c4:	2f e3       	sub	r3,-2
800094c6:	c4 d8       	rjmp	80009560 <_malloc_r+0x100>
800094c8:	ee 03 16 09 	lsr	r3,r7,0x9
800094cc:	c0 41       	brne	800094d4 <_malloc_r+0x74>
800094ce:	ee 03 16 03 	lsr	r3,r7,0x3
800094d2:	c2 68       	rjmp	8000951e <_malloc_r+0xbe>
800094d4:	58 43       	cp.w	r3,4
800094d6:	e0 8b 00 06 	brhi	800094e2 <_malloc_r+0x82>
800094da:	ee 03 16 06 	lsr	r3,r7,0x6
800094de:	2c 83       	sub	r3,-56
800094e0:	c1 f8       	rjmp	8000951e <_malloc_r+0xbe>
800094e2:	59 43       	cp.w	r3,20
800094e4:	e0 8b 00 04 	brhi	800094ec <_malloc_r+0x8c>
800094e8:	2a 53       	sub	r3,-91
800094ea:	c1 a8       	rjmp	8000951e <_malloc_r+0xbe>
800094ec:	e0 43 00 54 	cp.w	r3,84
800094f0:	e0 8b 00 06 	brhi	800094fc <_malloc_r+0x9c>
800094f4:	ee 03 16 0c 	lsr	r3,r7,0xc
800094f8:	29 23       	sub	r3,-110
800094fa:	c1 28       	rjmp	8000951e <_malloc_r+0xbe>
800094fc:	e0 43 01 54 	cp.w	r3,340
80009500:	e0 8b 00 06 	brhi	8000950c <_malloc_r+0xac>
80009504:	ee 03 16 0f 	lsr	r3,r7,0xf
80009508:	28 93       	sub	r3,-119
8000950a:	c0 a8       	rjmp	8000951e <_malloc_r+0xbe>
8000950c:	e0 43 05 54 	cp.w	r3,1364
80009510:	e0 88 00 04 	brls	80009518 <_malloc_r+0xb8>
80009514:	37 e3       	mov	r3,126
80009516:	c0 48       	rjmp	8000951e <_malloc_r+0xbe>
80009518:	ee 03 16 12 	lsr	r3,r7,0x12
8000951c:	28 43       	sub	r3,-124
8000951e:	e0 6a 01 e8 	mov	r10,488
80009522:	f4 03 00 3a 	add	r10,r10,r3<<0x3
80009526:	74 36       	ld.w	r6,r10[0xc]
80009528:	c1 98       	rjmp	8000955a <_malloc_r+0xfa>
8000952a:	6c 19       	ld.w	r9,r6[0x4]
8000952c:	e0 19 ff fc 	andl	r9,0xfffc
80009530:	f2 07 01 0b 	sub	r11,r9,r7
80009534:	58 fb       	cp.w	r11,15
80009536:	e0 8a 00 04 	brle	8000953e <_malloc_r+0xde>
8000953a:	20 13       	sub	r3,1
8000953c:	c1 18       	rjmp	8000955e <_malloc_r+0xfe>
8000953e:	6c 38       	ld.w	r8,r6[0xc]
80009540:	58 0b       	cp.w	r11,0
80009542:	c0 b5       	brlt	80009558 <_malloc_r+0xf8>
80009544:	6c 2a       	ld.w	r10,r6[0x8]
80009546:	ec 09 00 09 	add	r9,r6,r9
8000954a:	0a 9c       	mov	r12,r5
8000954c:	91 2a       	st.w	r8[0x8],r10
8000954e:	95 38       	st.w	r10[0xc],r8
80009550:	72 18       	ld.w	r8,r9[0x4]
80009552:	a1 a8       	sbr	r8,0x0
80009554:	93 18       	st.w	r9[0x4],r8
80009556:	cb c8       	rjmp	800096ce <_malloc_r+0x26e>
80009558:	10 96       	mov	r6,r8
8000955a:	14 36       	cp.w	r6,r10
8000955c:	ce 71       	brne	8000952a <_malloc_r+0xca>
8000955e:	2f f3       	sub	r3,-1
80009560:	e0 6a 01 e8 	mov	r10,488
80009564:	f4 cc ff f8 	sub	r12,r10,-8
80009568:	78 26       	ld.w	r6,r12[0x8]
8000956a:	18 36       	cp.w	r6,r12
8000956c:	c6 c0       	breq	80009644 <_malloc_r+0x1e4>
8000956e:	6c 19       	ld.w	r9,r6[0x4]
80009570:	e0 19 ff fc 	andl	r9,0xfffc
80009574:	f2 07 01 08 	sub	r8,r9,r7
80009578:	58 f8       	cp.w	r8,15
8000957a:	e0 89 00 8f 	brgt	80009698 <_malloc_r+0x238>
8000957e:	99 3c       	st.w	r12[0xc],r12
80009580:	99 2c       	st.w	r12[0x8],r12
80009582:	58 08       	cp.w	r8,0
80009584:	c0 55       	brlt	8000958e <_malloc_r+0x12e>
80009586:	ec 09 00 09 	add	r9,r6,r9
8000958a:	0a 9c       	mov	r12,r5
8000958c:	ce 2b       	rjmp	80009550 <_malloc_r+0xf0>
8000958e:	e0 49 01 ff 	cp.w	r9,511
80009592:	e0 8b 00 13 	brhi	800095b8 <_malloc_r+0x158>
80009596:	a3 99       	lsr	r9,0x3
80009598:	f4 09 00 38 	add	r8,r10,r9<<0x3
8000959c:	70 2b       	ld.w	r11,r8[0x8]
8000959e:	8d 38       	st.w	r6[0xc],r8
800095a0:	8d 2b       	st.w	r6[0x8],r11
800095a2:	97 36       	st.w	r11[0xc],r6
800095a4:	91 26       	st.w	r8[0x8],r6
800095a6:	a3 49       	asr	r9,0x2
800095a8:	74 18       	ld.w	r8,r10[0x4]
800095aa:	30 1b       	mov	r11,1
800095ac:	f6 09 09 49 	lsl	r9,r11,r9
800095b0:	f1 e9 10 09 	or	r9,r8,r9
800095b4:	95 19       	st.w	r10[0x4],r9
800095b6:	c4 78       	rjmp	80009644 <_malloc_r+0x1e4>
800095b8:	f2 0a 16 09 	lsr	r10,r9,0x9
800095bc:	58 4a       	cp.w	r10,4
800095be:	e0 8b 00 07 	brhi	800095cc <_malloc_r+0x16c>
800095c2:	f2 0a 16 06 	lsr	r10,r9,0x6
800095c6:	2c 8a       	sub	r10,-56
800095c8:	c2 08       	rjmp	80009608 <_malloc_r+0x1a8>
800095ca:	d7 03       	nop
800095cc:	59 4a       	cp.w	r10,20
800095ce:	e0 8b 00 04 	brhi	800095d6 <_malloc_r+0x176>
800095d2:	2a 5a       	sub	r10,-91
800095d4:	c1 a8       	rjmp	80009608 <_malloc_r+0x1a8>
800095d6:	e0 4a 00 54 	cp.w	r10,84
800095da:	e0 8b 00 06 	brhi	800095e6 <_malloc_r+0x186>
800095de:	f2 0a 16 0c 	lsr	r10,r9,0xc
800095e2:	29 2a       	sub	r10,-110
800095e4:	c1 28       	rjmp	80009608 <_malloc_r+0x1a8>
800095e6:	e0 4a 01 54 	cp.w	r10,340
800095ea:	e0 8b 00 06 	brhi	800095f6 <_malloc_r+0x196>
800095ee:	f2 0a 16 0f 	lsr	r10,r9,0xf
800095f2:	28 9a       	sub	r10,-119
800095f4:	c0 a8       	rjmp	80009608 <_malloc_r+0x1a8>
800095f6:	e0 4a 05 54 	cp.w	r10,1364
800095fa:	e0 88 00 04 	brls	80009602 <_malloc_r+0x1a2>
800095fe:	37 ea       	mov	r10,126
80009600:	c0 48       	rjmp	80009608 <_malloc_r+0x1a8>
80009602:	f2 0a 16 12 	lsr	r10,r9,0x12
80009606:	28 4a       	sub	r10,-124
80009608:	e0 6b 01 e8 	mov	r11,488
8000960c:	f6 0a 00 34 	add	r4,r11,r10<<0x3
80009610:	68 28       	ld.w	r8,r4[0x8]
80009612:	08 38       	cp.w	r8,r4
80009614:	c0 e1       	brne	80009630 <_malloc_r+0x1d0>
80009616:	76 19       	ld.w	r9,r11[0x4]
80009618:	a3 4a       	asr	r10,0x2
8000961a:	30 1e       	mov	lr,1
8000961c:	fc 0a 09 4a 	lsl	r10,lr,r10
80009620:	f3 ea 10 0a 	or	r10,r9,r10
80009624:	10 99       	mov	r9,r8
80009626:	97 1a       	st.w	r11[0x4],r10
80009628:	c0 a8       	rjmp	8000963c <_malloc_r+0x1dc>
8000962a:	70 28       	ld.w	r8,r8[0x8]
8000962c:	08 38       	cp.w	r8,r4
8000962e:	c0 60       	breq	8000963a <_malloc_r+0x1da>
80009630:	70 1a       	ld.w	r10,r8[0x4]
80009632:	e0 1a ff fc 	andl	r10,0xfffc
80009636:	14 39       	cp.w	r9,r10
80009638:	cf 93       	brcs	8000962a <_malloc_r+0x1ca>
8000963a:	70 39       	ld.w	r9,r8[0xc]
8000963c:	8d 39       	st.w	r6[0xc],r9
8000963e:	8d 28       	st.w	r6[0x8],r8
80009640:	91 36       	st.w	r8[0xc],r6
80009642:	93 26       	st.w	r9[0x8],r6
80009644:	e6 08 14 02 	asr	r8,r3,0x2
80009648:	30 1b       	mov	r11,1
8000964a:	e0 64 01 e8 	mov	r4,488
8000964e:	f6 08 09 4b 	lsl	r11,r11,r8
80009652:	68 18       	ld.w	r8,r4[0x4]
80009654:	10 3b       	cp.w	r11,r8
80009656:	e0 8b 00 69 	brhi	80009728 <_malloc_r+0x2c8>
8000965a:	f7 e8 00 09 	and	r9,r11,r8
8000965e:	c0 b1       	brne	80009674 <_malloc_r+0x214>
80009660:	e0 13 ff fc 	andl	r3,0xfffc
80009664:	a1 7b       	lsl	r11,0x1
80009666:	2f c3       	sub	r3,-4
80009668:	c0 38       	rjmp	8000966e <_malloc_r+0x20e>
8000966a:	2f c3       	sub	r3,-4
8000966c:	a1 7b       	lsl	r11,0x1
8000966e:	f7 e8 00 09 	and	r9,r11,r8
80009672:	cf c0       	breq	8000966a <_malloc_r+0x20a>
80009674:	e8 03 00 3e 	add	lr,r4,r3<<0x3
80009678:	06 92       	mov	r2,r3
8000967a:	1c 91       	mov	r1,lr
8000967c:	62 36       	ld.w	r6,r1[0xc]
8000967e:	c2 d8       	rjmp	800096d8 <_malloc_r+0x278>
80009680:	6c 1a       	ld.w	r10,r6[0x4]
80009682:	e0 1a ff fc 	andl	r10,0xfffc
80009686:	f4 07 01 08 	sub	r8,r10,r7
8000968a:	58 f8       	cp.w	r8,15
8000968c:	e0 8a 00 15 	brle	800096b6 <_malloc_r+0x256>
80009690:	6c 3a       	ld.w	r10,r6[0xc]
80009692:	6c 29       	ld.w	r9,r6[0x8]
80009694:	95 29       	st.w	r10[0x8],r9
80009696:	93 3a       	st.w	r9[0xc],r10
80009698:	0e 99       	mov	r9,r7
8000969a:	ec 07 00 07 	add	r7,r6,r7
8000969e:	a1 a9       	sbr	r9,0x0
800096a0:	99 37       	st.w	r12[0xc],r7
800096a2:	99 27       	st.w	r12[0x8],r7
800096a4:	8d 19       	st.w	r6[0x4],r9
800096a6:	ee 08 09 08 	st.w	r7[r8],r8
800096aa:	8f 2c       	st.w	r7[0x8],r12
800096ac:	8f 3c       	st.w	r7[0xc],r12
800096ae:	a1 a8       	sbr	r8,0x0
800096b0:	0a 9c       	mov	r12,r5
800096b2:	8f 18       	st.w	r7[0x4],r8
800096b4:	c0 d8       	rjmp	800096ce <_malloc_r+0x26e>
800096b6:	6c 39       	ld.w	r9,r6[0xc]
800096b8:	58 08       	cp.w	r8,0
800096ba:	c0 e5       	brlt	800096d6 <_malloc_r+0x276>
800096bc:	ec 0a 00 0a 	add	r10,r6,r10
800096c0:	74 18       	ld.w	r8,r10[0x4]
800096c2:	a1 a8       	sbr	r8,0x0
800096c4:	0a 9c       	mov	r12,r5
800096c6:	95 18       	st.w	r10[0x4],r8
800096c8:	6c 28       	ld.w	r8,r6[0x8]
800096ca:	93 28       	st.w	r9[0x8],r8
800096cc:	91 39       	st.w	r8[0xc],r9
800096ce:	c0 ad       	rcall	800098e2 <__malloc_unlock>
800096d0:	ec cc ff f8 	sub	r12,r6,-8
800096d4:	d8 32       	popm	r0-r7,pc
800096d6:	12 96       	mov	r6,r9
800096d8:	02 36       	cp.w	r6,r1
800096da:	cd 31       	brne	80009680 <_malloc_r+0x220>
800096dc:	2f f2       	sub	r2,-1
800096de:	f1 d2 c0 02 	bfextu	r8,r2,0x0,0x2
800096e2:	c0 30       	breq	800096e8 <_malloc_r+0x288>
800096e4:	2f 81       	sub	r1,-8
800096e6:	cc bb       	rjmp	8000967c <_malloc_r+0x21c>
800096e8:	1c 98       	mov	r8,lr
800096ea:	f3 d3 c0 02 	bfextu	r9,r3,0x0,0x2
800096ee:	c0 81       	brne	800096fe <_malloc_r+0x29e>
800096f0:	68 19       	ld.w	r9,r4[0x4]
800096f2:	f6 08 11 ff 	rsub	r8,r11,-1
800096f6:	f3 e8 00 08 	and	r8,r9,r8
800096fa:	89 18       	st.w	r4[0x4],r8
800096fc:	c0 78       	rjmp	8000970a <_malloc_r+0x2aa>
800096fe:	f0 c9 00 08 	sub	r9,r8,8
80009702:	20 13       	sub	r3,1
80009704:	70 08       	ld.w	r8,r8[0x0]
80009706:	12 38       	cp.w	r8,r9
80009708:	cf 10       	breq	800096ea <_malloc_r+0x28a>
8000970a:	a1 7b       	lsl	r11,0x1
8000970c:	68 18       	ld.w	r8,r4[0x4]
8000970e:	10 3b       	cp.w	r11,r8
80009710:	e0 8b 00 0c 	brhi	80009728 <_malloc_r+0x2c8>
80009714:	58 0b       	cp.w	r11,0
80009716:	c0 90       	breq	80009728 <_malloc_r+0x2c8>
80009718:	04 93       	mov	r3,r2
8000971a:	c0 38       	rjmp	80009720 <_malloc_r+0x2c0>
8000971c:	2f c3       	sub	r3,-4
8000971e:	a1 7b       	lsl	r11,0x1
80009720:	f7 e8 00 09 	and	r9,r11,r8
80009724:	ca 81       	brne	80009674 <_malloc_r+0x214>
80009726:	cf bb       	rjmp	8000971c <_malloc_r+0x2bc>
80009728:	68 23       	ld.w	r3,r4[0x8]
8000972a:	66 12       	ld.w	r2,r3[0x4]
8000972c:	e0 12 ff fc 	andl	r2,0xfffc
80009730:	0e 32       	cp.w	r2,r7
80009732:	5f 39       	srlo	r9
80009734:	e4 07 01 08 	sub	r8,r2,r7
80009738:	58 f8       	cp.w	r8,15
8000973a:	5f aa       	srle	r10
8000973c:	f5 e9 10 09 	or	r9,r10,r9
80009740:	e0 80 00 98 	breq	80009870 <_malloc_r+0x410>
80009744:	e0 68 0f 34 	mov	r8,3892
80009748:	70 01       	ld.w	r1,r8[0x0]
8000974a:	e0 68 05 f4 	mov	r8,1524
8000974e:	2f 01       	sub	r1,-16
80009750:	70 08       	ld.w	r8,r8[0x0]
80009752:	0e 01       	add	r1,r7
80009754:	5b f8       	cp.w	r8,-1
80009756:	c0 40       	breq	8000975e <_malloc_r+0x2fe>
80009758:	28 11       	sub	r1,-127
8000975a:	e0 11 ff 80 	andl	r1,0xff80
8000975e:	02 9b       	mov	r11,r1
80009760:	0a 9c       	mov	r12,r5
80009762:	e0 a0 05 3d 	rcall	8000a1dc <_sbrk_r>
80009766:	18 96       	mov	r6,r12
80009768:	5b fc       	cp.w	r12,-1
8000976a:	c7 40       	breq	80009852 <_malloc_r+0x3f2>
8000976c:	e6 02 00 08 	add	r8,r3,r2
80009770:	10 3c       	cp.w	r12,r8
80009772:	c0 32       	brcc	80009778 <_malloc_r+0x318>
80009774:	08 33       	cp.w	r3,r4
80009776:	c6 e1       	brne	80009852 <_malloc_r+0x3f2>
80009778:	e0 6a 0f 38 	mov	r10,3896
8000977c:	74 09       	ld.w	r9,r10[0x0]
8000977e:	e2 09 00 09 	add	r9,r1,r9
80009782:	95 09       	st.w	r10[0x0],r9
80009784:	10 36       	cp.w	r6,r8
80009786:	c0 a1       	brne	8000979a <_malloc_r+0x33a>
80009788:	f5 d6 c0 07 	bfextu	r10,r6,0x0,0x7
8000978c:	c0 71       	brne	8000979a <_malloc_r+0x33a>
8000978e:	e2 02 00 02 	add	r2,r1,r2
80009792:	68 28       	ld.w	r8,r4[0x8]
80009794:	a1 a2       	sbr	r2,0x0
80009796:	91 12       	st.w	r8[0x4],r2
80009798:	c4 c8       	rjmp	80009830 <_malloc_r+0x3d0>
8000979a:	e0 6a 05 f4 	mov	r10,1524
8000979e:	74 0b       	ld.w	r11,r10[0x0]
800097a0:	5b fb       	cp.w	r11,-1
800097a2:	c0 31       	brne	800097a8 <_malloc_r+0x348>
800097a4:	95 06       	st.w	r10[0x0],r6
800097a6:	c0 78       	rjmp	800097b4 <_malloc_r+0x354>
800097a8:	ec 09 00 09 	add	r9,r6,r9
800097ac:	e0 6a 0f 38 	mov	r10,3896
800097b0:	10 19       	sub	r9,r8
800097b2:	95 09       	st.w	r10[0x0],r9
800097b4:	f1 d6 c0 03 	bfextu	r8,r6,0x0,0x3
800097b8:	c0 40       	breq	800097c0 <_malloc_r+0x360>
800097ba:	f0 08 11 08 	rsub	r8,r8,8
800097be:	10 06       	add	r6,r8
800097c0:	28 08       	sub	r8,-128
800097c2:	ec 01 00 01 	add	r1,r6,r1
800097c6:	0a 9c       	mov	r12,r5
800097c8:	e3 d1 c0 07 	bfextu	r1,r1,0x0,0x7
800097cc:	f0 01 01 01 	sub	r1,r8,r1
800097d0:	02 9b       	mov	r11,r1
800097d2:	e0 a0 05 05 	rcall	8000a1dc <_sbrk_r>
800097d6:	30 08       	mov	r8,0
800097d8:	5b fc       	cp.w	r12,-1
800097da:	c0 31       	brne	800097e0 <_malloc_r+0x380>
800097dc:	0c 9c       	mov	r12,r6
800097de:	10 91       	mov	r1,r8
800097e0:	e0 68 0f 38 	mov	r8,3896
800097e4:	0c 1c       	sub	r12,r6
800097e6:	70 09       	ld.w	r9,r8[0x0]
800097e8:	02 0c       	add	r12,r1
800097ea:	89 26       	st.w	r4[0x8],r6
800097ec:	a1 ac       	sbr	r12,0x0
800097ee:	12 01       	add	r1,r9
800097f0:	8d 1c       	st.w	r6[0x4],r12
800097f2:	91 01       	st.w	r8[0x0],r1
800097f4:	08 33       	cp.w	r3,r4
800097f6:	c1 d0       	breq	80009830 <_malloc_r+0x3d0>
800097f8:	58 f2       	cp.w	r2,15
800097fa:	e0 8b 00 05 	brhi	80009804 <_malloc_r+0x3a4>
800097fe:	30 18       	mov	r8,1
80009800:	8d 18       	st.w	r6[0x4],r8
80009802:	c2 88       	rjmp	80009852 <_malloc_r+0x3f2>
80009804:	30 59       	mov	r9,5
80009806:	20 c2       	sub	r2,12
80009808:	e0 12 ff f8 	andl	r2,0xfff8
8000980c:	e6 02 00 08 	add	r8,r3,r2
80009810:	91 29       	st.w	r8[0x8],r9
80009812:	91 19       	st.w	r8[0x4],r9
80009814:	66 18       	ld.w	r8,r3[0x4]
80009816:	f1 d8 c0 01 	bfextu	r8,r8,0x0,0x1
8000981a:	e5 e8 10 08 	or	r8,r2,r8
8000981e:	87 18       	st.w	r3[0x4],r8
80009820:	58 f2       	cp.w	r2,15
80009822:	e0 88 00 07 	brls	80009830 <_malloc_r+0x3d0>
80009826:	e6 cb ff f8 	sub	r11,r3,-8
8000982a:	0a 9c       	mov	r12,r5
8000982c:	fe b0 fb 7a 	rcall	80008f20 <_free_r>
80009830:	e0 68 0f 38 	mov	r8,3896
80009834:	e0 69 0f 30 	mov	r9,3888
80009838:	70 08       	ld.w	r8,r8[0x0]
8000983a:	72 0a       	ld.w	r10,r9[0x0]
8000983c:	14 38       	cp.w	r8,r10
8000983e:	e0 88 00 03 	brls	80009844 <_malloc_r+0x3e4>
80009842:	93 08       	st.w	r9[0x0],r8
80009844:	e0 69 0f 2c 	mov	r9,3884
80009848:	72 0a       	ld.w	r10,r9[0x0]
8000984a:	14 38       	cp.w	r8,r10
8000984c:	e0 88 00 03 	brls	80009852 <_malloc_r+0x3f2>
80009850:	93 08       	st.w	r9[0x0],r8
80009852:	68 28       	ld.w	r8,r4[0x8]
80009854:	70 18       	ld.w	r8,r8[0x4]
80009856:	e0 18 ff fc 	andl	r8,0xfffc
8000985a:	0e 38       	cp.w	r8,r7
8000985c:	5f 39       	srlo	r9
8000985e:	0e 18       	sub	r8,r7
80009860:	58 f8       	cp.w	r8,15
80009862:	5f aa       	srle	r10
80009864:	f5 e9 10 09 	or	r9,r10,r9
80009868:	c0 40       	breq	80009870 <_malloc_r+0x410>
8000986a:	0a 9c       	mov	r12,r5
8000986c:	c3 bc       	rcall	800098e2 <__malloc_unlock>
8000986e:	d8 3a       	popm	r0-r7,pc,r12=0
80009870:	68 26       	ld.w	r6,r4[0x8]
80009872:	a1 a8       	sbr	r8,0x0
80009874:	0e 99       	mov	r9,r7
80009876:	a1 a9       	sbr	r9,0x0
80009878:	8d 19       	st.w	r6[0x4],r9
8000987a:	ec 07 00 07 	add	r7,r6,r7
8000987e:	0a 9c       	mov	r12,r5
80009880:	89 27       	st.w	r4[0x8],r7
80009882:	8f 18       	st.w	r7[0x4],r8
80009884:	c2 fc       	rcall	800098e2 <__malloc_unlock>
80009886:	ec cc ff f8 	sub	r12,r6,-8
8000988a:	d8 32       	popm	r0-r7,pc

8000988c <memchr>:
8000988c:	f7 db c0 08 	bfextu	r11,r11,0x0,0x8
80009890:	c0 68       	rjmp	8000989c <memchr+0x10>
80009892:	20 1a       	sub	r10,1
80009894:	19 88       	ld.ub	r8,r12[0x0]
80009896:	16 38       	cp.w	r8,r11
80009898:	5e 0c       	reteq	r12
8000989a:	2f fc       	sub	r12,-1
8000989c:	58 0a       	cp.w	r10,0
8000989e:	cf a1       	brne	80009892 <memchr+0x6>
800098a0:	5e fa       	retal	r10

800098a2 <memmove>:
800098a2:	d4 01       	pushm	lr
800098a4:	18 3b       	cp.w	r11,r12
800098a6:	c1 92       	brcc	800098d8 <memmove+0x36>
800098a8:	f6 0a 00 09 	add	r9,r11,r10
800098ac:	12 3c       	cp.w	r12,r9
800098ae:	c1 52       	brcc	800098d8 <memmove+0x36>
800098b0:	f8 0a 00 0b 	add	r11,r12,r10
800098b4:	30 08       	mov	r8,0
800098b6:	c0 68       	rjmp	800098c2 <memmove+0x20>
800098b8:	f2 08 07 0e 	ld.ub	lr,r9[r8]
800098bc:	20 1a       	sub	r10,1
800098be:	f6 08 0b 0e 	st.b	r11[r8],lr
800098c2:	20 18       	sub	r8,1
800098c4:	58 0a       	cp.w	r10,0
800098c6:	cf 91       	brne	800098b8 <memmove+0x16>
800098c8:	d8 02       	popm	pc
800098ca:	f6 08 07 09 	ld.ub	r9,r11[r8]
800098ce:	20 1a       	sub	r10,1
800098d0:	f8 08 0b 09 	st.b	r12[r8],r9
800098d4:	2f f8       	sub	r8,-1
800098d6:	c0 28       	rjmp	800098da <memmove+0x38>
800098d8:	30 08       	mov	r8,0
800098da:	58 0a       	cp.w	r10,0
800098dc:	cf 71       	brne	800098ca <memmove+0x28>
800098de:	d8 02       	popm	pc

800098e0 <__malloc_lock>:
800098e0:	5e fc       	retal	r12

800098e2 <__malloc_unlock>:
800098e2:	5e fc       	retal	r12

800098e4 <__hi0bits>:
800098e4:	18 98       	mov	r8,r12
800098e6:	f0 0a 15 10 	lsl	r10,r8,0x10
800098ea:	18 99       	mov	r9,r12
800098ec:	e0 19 00 00 	andl	r9,0x0
800098f0:	f4 08 17 00 	moveq	r8,r10
800098f4:	f9 bc 00 10 	moveq	r12,16
800098f8:	f9 bc 01 00 	movne	r12,0
800098fc:	f8 ca ff f8 	sub	r10,r12,-8
80009900:	10 99       	mov	r9,r8
80009902:	e6 19 ff 00 	andh	r9,0xff00,COH
80009906:	f4 0c 17 00 	moveq	r12,r10
8000990a:	f0 0a 15 08 	lsl	r10,r8,0x8
8000990e:	58 09       	cp.w	r9,0
80009910:	f4 08 17 00 	moveq	r8,r10
80009914:	f8 ca ff fc 	sub	r10,r12,-4
80009918:	10 99       	mov	r9,r8
8000991a:	e6 19 f0 00 	andh	r9,0xf000,COH
8000991e:	f4 0c 17 00 	moveq	r12,r10
80009922:	f0 0a 15 04 	lsl	r10,r8,0x4
80009926:	58 09       	cp.w	r9,0
80009928:	f4 08 17 00 	moveq	r8,r10
8000992c:	f8 ca ff fe 	sub	r10,r12,-2
80009930:	10 99       	mov	r9,r8
80009932:	e6 19 c0 00 	andh	r9,0xc000,COH
80009936:	f4 0c 17 00 	moveq	r12,r10
8000993a:	f0 0a 15 02 	lsl	r10,r8,0x2
8000993e:	58 09       	cp.w	r9,0
80009940:	f4 08 17 00 	moveq	r8,r10
80009944:	58 08       	cp.w	r8,0
80009946:	5e 5c       	retlt	r12
80009948:	e6 18 40 00 	andh	r8,0x4000,COH
8000994c:	2f fc       	sub	r12,-1
8000994e:	58 08       	cp.w	r8,0
80009950:	f8 0c 17 10 	movne	r12,r12
80009954:	f9 bc 00 20 	moveq	r12,32
80009958:	5e fc       	retal	r12

8000995a <__lo0bits>:
8000995a:	18 99       	mov	r9,r12
8000995c:	78 08       	ld.w	r8,r12[0x0]
8000995e:	f9 d8 c0 03 	bfextu	r12,r8,0x0,0x3
80009962:	c1 00       	breq	80009982 <__lo0bits+0x28>
80009964:	ed b8 00 00 	bld	r8,0x0
80009968:	c0 21       	brne	8000996c <__lo0bits+0x12>
8000996a:	5e fd       	retal	0
8000996c:	ed b8 00 01 	bld	r8,0x1
80009970:	c0 51       	brne	8000997a <__lo0bits+0x20>
80009972:	a1 98       	lsr	r8,0x1
80009974:	30 1c       	mov	r12,1
80009976:	93 08       	st.w	r9[0x0],r8
80009978:	5e fc       	retal	r12
8000997a:	a3 88       	lsr	r8,0x2
8000997c:	30 2c       	mov	r12,2
8000997e:	93 08       	st.w	r9[0x0],r8
80009980:	5e fc       	retal	r12
80009982:	f0 0b 16 10 	lsr	r11,r8,0x10
80009986:	f5 d8 c0 10 	bfextu	r10,r8,0x0,0x10
8000998a:	f6 08 17 00 	moveq	r8,r11
8000998e:	f9 bc 00 10 	moveq	r12,16
80009992:	f8 cb ff f8 	sub	r11,r12,-8
80009996:	f5 d8 c0 08 	bfextu	r10,r8,0x0,0x8
8000999a:	f6 0c 17 00 	moveq	r12,r11
8000999e:	f0 0b 16 08 	lsr	r11,r8,0x8
800099a2:	58 0a       	cp.w	r10,0
800099a4:	f6 08 17 00 	moveq	r8,r11
800099a8:	f8 cb ff fc 	sub	r11,r12,-4
800099ac:	f5 d8 c0 04 	bfextu	r10,r8,0x0,0x4
800099b0:	f6 0c 17 00 	moveq	r12,r11
800099b4:	f0 0b 16 04 	lsr	r11,r8,0x4
800099b8:	58 0a       	cp.w	r10,0
800099ba:	f6 08 17 00 	moveq	r8,r11
800099be:	f8 cb ff fe 	sub	r11,r12,-2
800099c2:	f5 d8 c0 02 	bfextu	r10,r8,0x0,0x2
800099c6:	f6 0c 17 00 	moveq	r12,r11
800099ca:	f0 0b 16 02 	lsr	r11,r8,0x2
800099ce:	58 0a       	cp.w	r10,0
800099d0:	f6 08 17 00 	moveq	r8,r11
800099d4:	ed b8 00 00 	bld	r8,0x0
800099d8:	c0 60       	breq	800099e4 <__lo0bits+0x8a>
800099da:	a1 98       	lsr	r8,0x1
800099dc:	c0 31       	brne	800099e2 <__lo0bits+0x88>
800099de:	32 0c       	mov	r12,32
800099e0:	5e fc       	retal	r12
800099e2:	2f fc       	sub	r12,-1
800099e4:	93 08       	st.w	r9[0x0],r8
800099e6:	5e fc       	retal	r12

800099e8 <__mcmp>:
800099e8:	d4 01       	pushm	lr
800099ea:	18 98       	mov	r8,r12
800099ec:	76 49       	ld.w	r9,r11[0x10]
800099ee:	78 4c       	ld.w	r12,r12[0x10]
800099f0:	12 1c       	sub	r12,r9
800099f2:	c1 31       	brne	80009a18 <__mcmp+0x30>
800099f4:	2f b9       	sub	r9,-5
800099f6:	a3 69       	lsl	r9,0x2
800099f8:	12 0b       	add	r11,r9
800099fa:	f0 09 00 09 	add	r9,r8,r9
800099fe:	2e c8       	sub	r8,-20
80009a00:	13 4e       	ld.w	lr,--r9
80009a02:	17 4a       	ld.w	r10,--r11
80009a04:	14 3e       	cp.w	lr,r10
80009a06:	c0 60       	breq	80009a12 <__mcmp+0x2a>
80009a08:	f9 bc 03 ff 	movlo	r12,-1
80009a0c:	f9 bc 02 01 	movhs	r12,1
80009a10:	d8 02       	popm	pc
80009a12:	10 39       	cp.w	r9,r8
80009a14:	fe 9b ff f6 	brhi	80009a00 <__mcmp+0x18>
80009a18:	d8 02       	popm	pc
80009a1a:	d7 03       	nop

80009a1c <_Bfree>:
80009a1c:	d4 21       	pushm	r4-r7,lr
80009a1e:	18 97       	mov	r7,r12
80009a20:	16 95       	mov	r5,r11
80009a22:	78 96       	ld.w	r6,r12[0x24]
80009a24:	58 06       	cp.w	r6,0
80009a26:	c0 91       	brne	80009a38 <_Bfree+0x1c>
80009a28:	31 0c       	mov	r12,16
80009a2a:	fe b0 fd 13 	rcall	80009450 <malloc>
80009a2e:	99 36       	st.w	r12[0xc],r6
80009a30:	8f 9c       	st.w	r7[0x24],r12
80009a32:	99 16       	st.w	r12[0x4],r6
80009a34:	99 26       	st.w	r12[0x8],r6
80009a36:	99 06       	st.w	r12[0x0],r6
80009a38:	58 05       	cp.w	r5,0
80009a3a:	c0 90       	breq	80009a4c <_Bfree+0x30>
80009a3c:	6a 19       	ld.w	r9,r5[0x4]
80009a3e:	6e 98       	ld.w	r8,r7[0x24]
80009a40:	70 38       	ld.w	r8,r8[0xc]
80009a42:	f0 09 03 2a 	ld.w	r10,r8[r9<<0x2]
80009a46:	8b 0a       	st.w	r5[0x0],r10
80009a48:	f0 09 09 25 	st.w	r8[r9<<0x2],r5
80009a4c:	d8 22       	popm	r4-r7,pc
80009a4e:	d7 03       	nop

80009a50 <_Balloc>:
80009a50:	d4 21       	pushm	r4-r7,lr
80009a52:	18 97       	mov	r7,r12
80009a54:	16 96       	mov	r6,r11
80009a56:	78 95       	ld.w	r5,r12[0x24]
80009a58:	58 05       	cp.w	r5,0
80009a5a:	c0 91       	brne	80009a6c <_Balloc+0x1c>
80009a5c:	31 0c       	mov	r12,16
80009a5e:	fe b0 fc f9 	rcall	80009450 <malloc>
80009a62:	99 35       	st.w	r12[0xc],r5
80009a64:	8f 9c       	st.w	r7[0x24],r12
80009a66:	99 15       	st.w	r12[0x4],r5
80009a68:	99 25       	st.w	r12[0x8],r5
80009a6a:	99 05       	st.w	r12[0x0],r5
80009a6c:	6e 95       	ld.w	r5,r7[0x24]
80009a6e:	6a 38       	ld.w	r8,r5[0xc]
80009a70:	58 08       	cp.w	r8,0
80009a72:	c0 b1       	brne	80009a88 <_Balloc+0x38>
80009a74:	31 0a       	mov	r10,16
80009a76:	30 4b       	mov	r11,4
80009a78:	0e 9c       	mov	r12,r7
80009a7a:	e0 a0 04 95 	rcall	8000a3a4 <_calloc_r>
80009a7e:	8b 3c       	st.w	r5[0xc],r12
80009a80:	6e 98       	ld.w	r8,r7[0x24]
80009a82:	70 3c       	ld.w	r12,r8[0xc]
80009a84:	58 0c       	cp.w	r12,0
80009a86:	c1 b0       	breq	80009abc <_Balloc+0x6c>
80009a88:	6e 98       	ld.w	r8,r7[0x24]
80009a8a:	70 38       	ld.w	r8,r8[0xc]
80009a8c:	f0 06 00 28 	add	r8,r8,r6<<0x2
80009a90:	70 0c       	ld.w	r12,r8[0x0]
80009a92:	58 0c       	cp.w	r12,0
80009a94:	c0 40       	breq	80009a9c <_Balloc+0x4c>
80009a96:	78 09       	ld.w	r9,r12[0x0]
80009a98:	91 09       	st.w	r8[0x0],r9
80009a9a:	c0 e8       	rjmp	80009ab6 <_Balloc+0x66>
80009a9c:	0e 9c       	mov	r12,r7
80009a9e:	30 17       	mov	r7,1
80009aa0:	0e 9b       	mov	r11,r7
80009aa2:	ee 06 09 47 	lsl	r7,r7,r6
80009aa6:	ee ca ff fb 	sub	r10,r7,-5
80009aaa:	a3 6a       	lsl	r10,0x2
80009aac:	e0 a0 04 7c 	rcall	8000a3a4 <_calloc_r>
80009ab0:	c0 60       	breq	80009abc <_Balloc+0x6c>
80009ab2:	99 16       	st.w	r12[0x4],r6
80009ab4:	99 27       	st.w	r12[0x8],r7
80009ab6:	30 08       	mov	r8,0
80009ab8:	99 38       	st.w	r12[0xc],r8
80009aba:	99 48       	st.w	r12[0x10],r8
80009abc:	d8 22       	popm	r4-r7,pc
80009abe:	d7 03       	nop

80009ac0 <__d2b>:
80009ac0:	d4 31       	pushm	r0-r7,lr
80009ac2:	20 2d       	sub	sp,8
80009ac4:	16 93       	mov	r3,r11
80009ac6:	12 96       	mov	r6,r9
80009ac8:	10 95       	mov	r5,r8
80009aca:	14 92       	mov	r2,r10
80009acc:	30 1b       	mov	r11,1
80009ace:	cc 1f       	rcall	80009a50 <_Balloc>
80009ad0:	f3 d3 c0 14 	bfextu	r9,r3,0x0,0x14
80009ad4:	50 09       	stdsp	sp[0x0],r9
80009ad6:	f1 d3 c0 1f 	bfextu	r8,r3,0x0,0x1f
80009ada:	18 94       	mov	r4,r12
80009adc:	f0 01 16 14 	lsr	r1,r8,0x14
80009ae0:	c0 30       	breq	80009ae6 <__d2b+0x26>
80009ae2:	b5 a9       	sbr	r9,0x14
80009ae4:	50 09       	stdsp	sp[0x0],r9
80009ae6:	58 02       	cp.w	r2,0
80009ae8:	c1 d0       	breq	80009b22 <__d2b+0x62>
80009aea:	fa cc ff f8 	sub	r12,sp,-8
80009aee:	18 d2       	st.w	--r12,r2
80009af0:	c3 5f       	rcall	8000995a <__lo0bits>
80009af2:	40 18       	lddsp	r8,sp[0x4]
80009af4:	c0 d0       	breq	80009b0e <__d2b+0x4e>
80009af6:	40 09       	lddsp	r9,sp[0x0]
80009af8:	f8 0a 11 20 	rsub	r10,r12,32
80009afc:	f2 0a 09 4a 	lsl	r10,r9,r10
80009b00:	f5 e8 10 08 	or	r8,r10,r8
80009b04:	89 58       	st.w	r4[0x14],r8
80009b06:	f2 0c 0a 49 	lsr	r9,r9,r12
80009b0a:	50 09       	stdsp	sp[0x0],r9
80009b0c:	c0 28       	rjmp	80009b10 <__d2b+0x50>
80009b0e:	89 58       	st.w	r4[0x14],r8
80009b10:	40 08       	lddsp	r8,sp[0x0]
80009b12:	58 08       	cp.w	r8,0
80009b14:	f9 b3 01 02 	movne	r3,2
80009b18:	f9 b3 00 01 	moveq	r3,1
80009b1c:	89 68       	st.w	r4[0x18],r8
80009b1e:	89 43       	st.w	r4[0x10],r3
80009b20:	c0 88       	rjmp	80009b30 <__d2b+0x70>
80009b22:	1a 9c       	mov	r12,sp
80009b24:	c1 bf       	rcall	8000995a <__lo0bits>
80009b26:	30 13       	mov	r3,1
80009b28:	40 08       	lddsp	r8,sp[0x0]
80009b2a:	2e 0c       	sub	r12,-32
80009b2c:	89 43       	st.w	r4[0x10],r3
80009b2e:	89 58       	st.w	r4[0x14],r8
80009b30:	58 01       	cp.w	r1,0
80009b32:	c0 90       	breq	80009b44 <__d2b+0x84>
80009b34:	e2 c1 04 33 	sub	r1,r1,1075
80009b38:	18 01       	add	r1,r12
80009b3a:	8d 01       	st.w	r6[0x0],r1
80009b3c:	f8 0c 11 35 	rsub	r12,r12,53
80009b40:	8b 0c       	st.w	r5[0x0],r12
80009b42:	c0 c8       	rjmp	80009b5a <__d2b+0x9a>
80009b44:	e6 c8 ff fc 	sub	r8,r3,-4
80009b48:	f8 cc 04 32 	sub	r12,r12,1074
80009b4c:	a5 73       	lsl	r3,0x5
80009b4e:	8d 0c       	st.w	r6[0x0],r12
80009b50:	e8 08 03 2c 	ld.w	r12,r4[r8<<0x2]
80009b54:	cc 8e       	rcall	800098e4 <__hi0bits>
80009b56:	18 13       	sub	r3,r12
80009b58:	8b 03       	st.w	r5[0x0],r3
80009b5a:	08 9c       	mov	r12,r4
80009b5c:	2f ed       	sub	sp,-8
80009b5e:	d8 32       	popm	r0-r7,pc

80009b60 <__mdiff>:
80009b60:	d4 31       	pushm	r0-r7,lr
80009b62:	74 48       	ld.w	r8,r10[0x10]
80009b64:	76 45       	ld.w	r5,r11[0x10]
80009b66:	16 97       	mov	r7,r11
80009b68:	14 96       	mov	r6,r10
80009b6a:	10 15       	sub	r5,r8
80009b6c:	c1 31       	brne	80009b92 <__mdiff+0x32>
80009b6e:	2f b8       	sub	r8,-5
80009b70:	ee ce ff ec 	sub	lr,r7,-20
80009b74:	a3 68       	lsl	r8,0x2
80009b76:	f4 08 00 0b 	add	r11,r10,r8
80009b7a:	ee 08 00 08 	add	r8,r7,r8
80009b7e:	11 4a       	ld.w	r10,--r8
80009b80:	17 49       	ld.w	r9,--r11
80009b82:	12 3a       	cp.w	r10,r9
80009b84:	c0 30       	breq	80009b8a <__mdiff+0x2a>
80009b86:	c0 e2       	brcc	80009ba2 <__mdiff+0x42>
80009b88:	c0 78       	rjmp	80009b96 <__mdiff+0x36>
80009b8a:	1c 38       	cp.w	r8,lr
80009b8c:	fe 9b ff f9 	brhi	80009b7e <__mdiff+0x1e>
80009b90:	c4 98       	rjmp	80009c22 <__mdiff+0xc2>
80009b92:	58 05       	cp.w	r5,0
80009b94:	c0 64       	brge	80009ba0 <__mdiff+0x40>
80009b96:	0e 98       	mov	r8,r7
80009b98:	30 15       	mov	r5,1
80009b9a:	0c 97       	mov	r7,r6
80009b9c:	10 96       	mov	r6,r8
80009b9e:	c0 28       	rjmp	80009ba2 <__mdiff+0x42>
80009ba0:	30 05       	mov	r5,0
80009ba2:	6e 1b       	ld.w	r11,r7[0x4]
80009ba4:	c5 6f       	rcall	80009a50 <_Balloc>
80009ba6:	6e 49       	ld.w	r9,r7[0x10]
80009ba8:	6c 44       	ld.w	r4,r6[0x10]
80009baa:	99 35       	st.w	r12[0xc],r5
80009bac:	2f b4       	sub	r4,-5
80009bae:	f2 c5 ff fb 	sub	r5,r9,-5
80009bb2:	ec 04 00 24 	add	r4,r6,r4<<0x2
80009bb6:	ee 05 00 25 	add	r5,r7,r5<<0x2
80009bba:	2e c6       	sub	r6,-20
80009bbc:	2e c7       	sub	r7,-20
80009bbe:	f8 c8 ff ec 	sub	r8,r12,-20
80009bc2:	30 0a       	mov	r10,0
80009bc4:	0f 0e       	ld.w	lr,r7++
80009bc6:	0d 0b       	ld.w	r11,r6++
80009bc8:	fc 02 16 10 	lsr	r2,lr,0x10
80009bcc:	f6 03 16 10 	lsr	r3,r11,0x10
80009bd0:	fd de c0 10 	bfextu	lr,lr,0x0,0x10
80009bd4:	e4 03 01 03 	sub	r3,r2,r3
80009bd8:	f7 db c0 10 	bfextu	r11,r11,0x0,0x10
80009bdc:	fc 0b 01 0b 	sub	r11,lr,r11
80009be0:	f6 0a 00 0a 	add	r10,r11,r10
80009be4:	b0 1a       	st.h	r8[0x2],r10
80009be6:	b1 4a       	asr	r10,0x10
80009be8:	e6 0a 00 0a 	add	r10,r3,r10
80009bec:	b0 0a       	st.h	r8[0x0],r10
80009bee:	2f c8       	sub	r8,-4
80009bf0:	b1 4a       	asr	r10,0x10
80009bf2:	08 36       	cp.w	r6,r4
80009bf4:	ce 83       	brcs	80009bc4 <__mdiff+0x64>
80009bf6:	c0 d8       	rjmp	80009c10 <__mdiff+0xb0>
80009bf8:	0f 0b       	ld.w	r11,r7++
80009bfa:	f6 0e 16 10 	lsr	lr,r11,0x10
80009bfe:	f7 db c0 10 	bfextu	r11,r11,0x0,0x10
80009c02:	16 0a       	add	r10,r11
80009c04:	b0 1a       	st.h	r8[0x2],r10
80009c06:	b1 4a       	asr	r10,0x10
80009c08:	1c 0a       	add	r10,lr
80009c0a:	b0 0a       	st.h	r8[0x0],r10
80009c0c:	2f c8       	sub	r8,-4
80009c0e:	b1 4a       	asr	r10,0x10
80009c10:	0a 37       	cp.w	r7,r5
80009c12:	cf 33       	brcs	80009bf8 <__mdiff+0x98>
80009c14:	c0 28       	rjmp	80009c18 <__mdiff+0xb8>
80009c16:	20 19       	sub	r9,1
80009c18:	11 4a       	ld.w	r10,--r8
80009c1a:	58 0a       	cp.w	r10,0
80009c1c:	cf d0       	breq	80009c16 <__mdiff+0xb6>
80009c1e:	99 49       	st.w	r12[0x10],r9
80009c20:	d8 32       	popm	r0-r7,pc
80009c22:	30 0b       	mov	r11,0
80009c24:	c1 6f       	rcall	80009a50 <_Balloc>
80009c26:	30 18       	mov	r8,1
80009c28:	99 48       	st.w	r12[0x10],r8
80009c2a:	30 08       	mov	r8,0
80009c2c:	99 58       	st.w	r12[0x14],r8
80009c2e:	d8 32       	popm	r0-r7,pc

80009c30 <__lshift>:
80009c30:	d4 31       	pushm	r0-r7,lr
80009c32:	16 97       	mov	r7,r11
80009c34:	76 46       	ld.w	r6,r11[0x10]
80009c36:	f4 02 14 05 	asr	r2,r10,0x5
80009c3a:	2f f6       	sub	r6,-1
80009c3c:	14 93       	mov	r3,r10
80009c3e:	18 94       	mov	r4,r12
80009c40:	04 06       	add	r6,r2
80009c42:	76 1b       	ld.w	r11,r11[0x4]
80009c44:	6e 28       	ld.w	r8,r7[0x8]
80009c46:	c0 38       	rjmp	80009c4c <__lshift+0x1c>
80009c48:	2f fb       	sub	r11,-1
80009c4a:	a1 78       	lsl	r8,0x1
80009c4c:	10 36       	cp.w	r6,r8
80009c4e:	fe 99 ff fd 	brgt	80009c48 <__lshift+0x18>
80009c52:	08 9c       	mov	r12,r4
80009c54:	cf ee       	rcall	80009a50 <_Balloc>
80009c56:	30 09       	mov	r9,0
80009c58:	18 95       	mov	r5,r12
80009c5a:	f8 c8 ff ec 	sub	r8,r12,-20
80009c5e:	12 9a       	mov	r10,r9
80009c60:	c0 38       	rjmp	80009c66 <__lshift+0x36>
80009c62:	10 aa       	st.w	r8++,r10
80009c64:	2f f9       	sub	r9,-1
80009c66:	04 39       	cp.w	r9,r2
80009c68:	cf d5       	brlt	80009c62 <__lshift+0x32>
80009c6a:	6e 4b       	ld.w	r11,r7[0x10]
80009c6c:	e7 d3 c0 05 	bfextu	r3,r3,0x0,0x5
80009c70:	2f bb       	sub	r11,-5
80009c72:	ee c9 ff ec 	sub	r9,r7,-20
80009c76:	ee 0b 00 2b 	add	r11,r7,r11<<0x2
80009c7a:	58 03       	cp.w	r3,0
80009c7c:	c1 30       	breq	80009ca2 <__lshift+0x72>
80009c7e:	e6 0c 11 20 	rsub	r12,r3,32
80009c82:	30 0a       	mov	r10,0
80009c84:	72 02       	ld.w	r2,r9[0x0]
80009c86:	e4 03 09 42 	lsl	r2,r2,r3
80009c8a:	04 4a       	or	r10,r2
80009c8c:	10 aa       	st.w	r8++,r10
80009c8e:	13 0a       	ld.w	r10,r9++
80009c90:	f4 0c 0a 4a 	lsr	r10,r10,r12
80009c94:	16 39       	cp.w	r9,r11
80009c96:	cf 73       	brcs	80009c84 <__lshift+0x54>
80009c98:	91 0a       	st.w	r8[0x0],r10
80009c9a:	58 0a       	cp.w	r10,0
80009c9c:	c0 70       	breq	80009caa <__lshift+0x7a>
80009c9e:	2f f6       	sub	r6,-1
80009ca0:	c0 58       	rjmp	80009caa <__lshift+0x7a>
80009ca2:	13 0a       	ld.w	r10,r9++
80009ca4:	10 aa       	st.w	r8++,r10
80009ca6:	16 39       	cp.w	r9,r11
80009ca8:	cf d3       	brcs	80009ca2 <__lshift+0x72>
80009caa:	08 9c       	mov	r12,r4
80009cac:	20 16       	sub	r6,1
80009cae:	0e 9b       	mov	r11,r7
80009cb0:	8b 46       	st.w	r5[0x10],r6
80009cb2:	cb 5e       	rcall	80009a1c <_Bfree>
80009cb4:	0a 9c       	mov	r12,r5
80009cb6:	d8 32       	popm	r0-r7,pc

80009cb8 <__multiply>:
80009cb8:	d4 31       	pushm	r0-r7,lr
80009cba:	20 2d       	sub	sp,8
80009cbc:	16 96       	mov	r6,r11
80009cbe:	14 95       	mov	r5,r10
80009cc0:	76 49       	ld.w	r9,r11[0x10]
80009cc2:	74 48       	ld.w	r8,r10[0x10]
80009cc4:	10 39       	cp.w	r9,r8
80009cc6:	c0 34       	brge	80009ccc <__multiply+0x14>
80009cc8:	14 96       	mov	r6,r10
80009cca:	16 95       	mov	r5,r11
80009ccc:	6c 1b       	ld.w	r11,r6[0x4]
80009cce:	6c 28       	ld.w	r8,r6[0x8]
80009cd0:	f6 c9 ff ff 	sub	r9,r11,-1
80009cd4:	6c 43       	ld.w	r3,r6[0x10]
80009cd6:	6a 42       	ld.w	r2,r5[0x10]
80009cd8:	e4 03 00 07 	add	r7,r2,r3
80009cdc:	10 37       	cp.w	r7,r8
80009cde:	f2 0b 17 90 	movgt	r11,r9
80009ce2:	cb 7e       	rcall	80009a50 <_Balloc>
80009ce4:	ee c4 ff fb 	sub	r4,r7,-5
80009ce8:	f8 c9 ff ec 	sub	r9,r12,-20
80009cec:	f8 04 00 24 	add	r4,r12,r4<<0x2
80009cf0:	30 0a       	mov	r10,0
80009cf2:	12 98       	mov	r8,r9
80009cf4:	c0 28       	rjmp	80009cf8 <__multiply+0x40>
80009cf6:	10 aa       	st.w	r8++,r10
80009cf8:	08 38       	cp.w	r8,r4
80009cfa:	cf e3       	brcs	80009cf6 <__multiply+0x3e>
80009cfc:	2f b3       	sub	r3,-5
80009cfe:	2f b2       	sub	r2,-5
80009d00:	ec 03 00 23 	add	r3,r6,r3<<0x2
80009d04:	ea 02 00 22 	add	r2,r5,r2<<0x2
80009d08:	ec cb ff ec 	sub	r11,r6,-20
80009d0c:	50 12       	stdsp	sp[0x4],r2
80009d0e:	ea ca ff ec 	sub	r10,r5,-20
80009d12:	c4 48       	rjmp	80009d9a <__multiply+0xe2>
80009d14:	94 95       	ld.uh	r5,r10[0x2]
80009d16:	58 05       	cp.w	r5,0
80009d18:	c2 00       	breq	80009d58 <__multiply+0xa0>
80009d1a:	12 98       	mov	r8,r9
80009d1c:	16 96       	mov	r6,r11
80009d1e:	30 0e       	mov	lr,0
80009d20:	50 09       	stdsp	sp[0x0],r9
80009d22:	0d 02       	ld.w	r2,r6++
80009d24:	e4 00 16 10 	lsr	r0,r2,0x10
80009d28:	70 01       	ld.w	r1,r8[0x0]
80009d2a:	70 09       	ld.w	r9,r8[0x0]
80009d2c:	b1 81       	lsr	r1,0x10
80009d2e:	e5 d2 c0 10 	bfextu	r2,r2,0x0,0x10
80009d32:	e0 05 03 41 	mac	r1,r0,r5
80009d36:	ab 32       	mul	r2,r5
80009d38:	e1 d9 c0 10 	bfextu	r0,r9,0x0,0x10
80009d3c:	00 02       	add	r2,r0
80009d3e:	e4 0e 00 0e 	add	lr,r2,lr
80009d42:	b0 1e       	st.h	r8[0x2],lr
80009d44:	b1 8e       	lsr	lr,0x10
80009d46:	1c 01       	add	r1,lr
80009d48:	b0 01       	st.h	r8[0x0],r1
80009d4a:	e2 0e 16 10 	lsr	lr,r1,0x10
80009d4e:	2f c8       	sub	r8,-4
80009d50:	06 36       	cp.w	r6,r3
80009d52:	ce 83       	brcs	80009d22 <__multiply+0x6a>
80009d54:	40 09       	lddsp	r9,sp[0x0]
80009d56:	91 0e       	st.w	r8[0x0],lr
80009d58:	94 86       	ld.uh	r6,r10[0x0]
80009d5a:	58 06       	cp.w	r6,0
80009d5c:	c1 d0       	breq	80009d96 <__multiply+0xde>
80009d5e:	72 02       	ld.w	r2,r9[0x0]
80009d60:	12 98       	mov	r8,r9
80009d62:	16 9e       	mov	lr,r11
80009d64:	30 05       	mov	r5,0
80009d66:	b0 12       	st.h	r8[0x2],r2
80009d68:	1d 01       	ld.w	r1,lr++
80009d6a:	90 82       	ld.uh	r2,r8[0x0]
80009d6c:	e1 d1 c0 10 	bfextu	r0,r1,0x0,0x10
80009d70:	ad 30       	mul	r0,r6
80009d72:	e0 02 00 02 	add	r2,r0,r2
80009d76:	e4 05 00 05 	add	r5,r2,r5
80009d7a:	b0 05       	st.h	r8[0x0],r5
80009d7c:	b1 85       	lsr	r5,0x10
80009d7e:	b1 81       	lsr	r1,0x10
80009d80:	2f c8       	sub	r8,-4
80009d82:	ad 31       	mul	r1,r6
80009d84:	90 92       	ld.uh	r2,r8[0x2]
80009d86:	e2 02 00 02 	add	r2,r1,r2
80009d8a:	0a 02       	add	r2,r5
80009d8c:	e4 05 16 10 	lsr	r5,r2,0x10
80009d90:	06 3e       	cp.w	lr,r3
80009d92:	ce a3       	brcs	80009d66 <__multiply+0xae>
80009d94:	91 02       	st.w	r8[0x0],r2
80009d96:	2f ca       	sub	r10,-4
80009d98:	2f c9       	sub	r9,-4
80009d9a:	40 18       	lddsp	r8,sp[0x4]
80009d9c:	10 3a       	cp.w	r10,r8
80009d9e:	cb b3       	brcs	80009d14 <__multiply+0x5c>
80009da0:	c0 28       	rjmp	80009da4 <__multiply+0xec>
80009da2:	20 17       	sub	r7,1
80009da4:	58 07       	cp.w	r7,0
80009da6:	e0 8a 00 05 	brle	80009db0 <__multiply+0xf8>
80009daa:	09 48       	ld.w	r8,--r4
80009dac:	58 08       	cp.w	r8,0
80009dae:	cf a0       	breq	80009da2 <__multiply+0xea>
80009db0:	99 47       	st.w	r12[0x10],r7
80009db2:	2f ed       	sub	sp,-8
80009db4:	d8 32       	popm	r0-r7,pc
80009db6:	d7 03       	nop

80009db8 <__i2b>:
80009db8:	d4 21       	pushm	r4-r7,lr
80009dba:	16 97       	mov	r7,r11
80009dbc:	30 1b       	mov	r11,1
80009dbe:	c4 9e       	rcall	80009a50 <_Balloc>
80009dc0:	30 19       	mov	r9,1
80009dc2:	99 57       	st.w	r12[0x14],r7
80009dc4:	99 49       	st.w	r12[0x10],r9
80009dc6:	d8 22       	popm	r4-r7,pc

80009dc8 <__multadd>:
80009dc8:	d4 31       	pushm	r0-r7,lr
80009dca:	30 08       	mov	r8,0
80009dcc:	12 95       	mov	r5,r9
80009dce:	16 97       	mov	r7,r11
80009dd0:	18 96       	mov	r6,r12
80009dd2:	76 44       	ld.w	r4,r11[0x10]
80009dd4:	f6 c9 ff ec 	sub	r9,r11,-20
80009dd8:	72 0b       	ld.w	r11,r9[0x0]
80009dda:	f6 0c 16 10 	lsr	r12,r11,0x10
80009dde:	f7 db c0 10 	bfextu	r11,r11,0x0,0x10
80009de2:	f4 0c 02 4c 	mul	r12,r10,r12
80009de6:	f4 0b 03 45 	mac	r5,r10,r11
80009dea:	f7 d5 c0 10 	bfextu	r11,r5,0x0,0x10
80009dee:	b1 85       	lsr	r5,0x10
80009df0:	18 05       	add	r5,r12
80009df2:	ea 0c 15 10 	lsl	r12,r5,0x10
80009df6:	f8 0b 00 0b 	add	r11,r12,r11
80009dfa:	12 ab       	st.w	r9++,r11
80009dfc:	2f f8       	sub	r8,-1
80009dfe:	b1 85       	lsr	r5,0x10
80009e00:	08 38       	cp.w	r8,r4
80009e02:	ce b5       	brlt	80009dd8 <__multadd+0x10>
80009e04:	58 05       	cp.w	r5,0
80009e06:	c1 c0       	breq	80009e3e <__multadd+0x76>
80009e08:	6e 28       	ld.w	r8,r7[0x8]
80009e0a:	10 34       	cp.w	r4,r8
80009e0c:	c1 35       	brlt	80009e32 <__multadd+0x6a>
80009e0e:	6e 1b       	ld.w	r11,r7[0x4]
80009e10:	0c 9c       	mov	r12,r6
80009e12:	2f fb       	sub	r11,-1
80009e14:	c1 ee       	rcall	80009a50 <_Balloc>
80009e16:	6e 4a       	ld.w	r10,r7[0x10]
80009e18:	ee cb ff f4 	sub	r11,r7,-12
80009e1c:	18 93       	mov	r3,r12
80009e1e:	2f ea       	sub	r10,-2
80009e20:	2f 4c       	sub	r12,-12
80009e22:	a3 6a       	lsl	r10,0x2
80009e24:	fe b0 dd 7c 	rcall	8000591c <memcpy>
80009e28:	0e 9b       	mov	r11,r7
80009e2a:	0c 9c       	mov	r12,r6
80009e2c:	fe b0 fd f8 	rcall	80009a1c <_Bfree>
80009e30:	06 97       	mov	r7,r3
80009e32:	e8 c8 ff ff 	sub	r8,r4,-1
80009e36:	2f b4       	sub	r4,-5
80009e38:	8f 48       	st.w	r7[0x10],r8
80009e3a:	ee 04 09 25 	st.w	r7[r4<<0x2],r5
80009e3e:	0e 9c       	mov	r12,r7
80009e40:	d8 32       	popm	r0-r7,pc
80009e42:	d7 03       	nop

80009e44 <__pow5mult>:
80009e44:	d4 31       	pushm	r0-r7,lr
80009e46:	14 96       	mov	r6,r10
80009e48:	18 97       	mov	r7,r12
80009e4a:	16 94       	mov	r4,r11
80009e4c:	f1 da c0 02 	bfextu	r8,r10,0x0,0x2
80009e50:	c0 90       	breq	80009e62 <__pow5mult+0x1e>
80009e52:	20 18       	sub	r8,1
80009e54:	fe c9 e2 70 	sub	r9,pc,-7568
80009e58:	f2 08 03 2a 	ld.w	r10,r9[r8<<0x2]
80009e5c:	30 09       	mov	r9,0
80009e5e:	cb 5f       	rcall	80009dc8 <__multadd>
80009e60:	18 94       	mov	r4,r12
80009e62:	a3 46       	asr	r6,0x2
80009e64:	c3 40       	breq	80009ecc <__pow5mult+0x88>
80009e66:	6e 95       	ld.w	r5,r7[0x24]
80009e68:	58 05       	cp.w	r5,0
80009e6a:	c0 91       	brne	80009e7c <__pow5mult+0x38>
80009e6c:	31 0c       	mov	r12,16
80009e6e:	fe b0 fa f1 	rcall	80009450 <malloc>
80009e72:	99 35       	st.w	r12[0xc],r5
80009e74:	8f 9c       	st.w	r7[0x24],r12
80009e76:	99 15       	st.w	r12[0x4],r5
80009e78:	99 25       	st.w	r12[0x8],r5
80009e7a:	99 05       	st.w	r12[0x0],r5
80009e7c:	6e 93       	ld.w	r3,r7[0x24]
80009e7e:	66 25       	ld.w	r5,r3[0x8]
80009e80:	58 05       	cp.w	r5,0
80009e82:	c0 c1       	brne	80009e9a <__pow5mult+0x56>
80009e84:	e0 6b 02 71 	mov	r11,625
80009e88:	0e 9c       	mov	r12,r7
80009e8a:	c9 7f       	rcall	80009db8 <__i2b>
80009e8c:	87 2c       	st.w	r3[0x8],r12
80009e8e:	30 08       	mov	r8,0
80009e90:	18 95       	mov	r5,r12
80009e92:	99 08       	st.w	r12[0x0],r8
80009e94:	c0 38       	rjmp	80009e9a <__pow5mult+0x56>
80009e96:	06 9c       	mov	r12,r3
80009e98:	18 95       	mov	r5,r12
80009e9a:	ed b6 00 00 	bld	r6,0x0
80009e9e:	c0 b1       	brne	80009eb4 <__pow5mult+0x70>
80009ea0:	08 9b       	mov	r11,r4
80009ea2:	0a 9a       	mov	r10,r5
80009ea4:	0e 9c       	mov	r12,r7
80009ea6:	c0 9f       	rcall	80009cb8 <__multiply>
80009ea8:	08 9b       	mov	r11,r4
80009eaa:	18 93       	mov	r3,r12
80009eac:	0e 9c       	mov	r12,r7
80009eae:	06 94       	mov	r4,r3
80009eb0:	fe b0 fd b6 	rcall	80009a1c <_Bfree>
80009eb4:	a1 56       	asr	r6,0x1
80009eb6:	c0 b0       	breq	80009ecc <__pow5mult+0x88>
80009eb8:	6a 03       	ld.w	r3,r5[0x0]
80009eba:	58 03       	cp.w	r3,0
80009ebc:	ce d1       	brne	80009e96 <__pow5mult+0x52>
80009ebe:	0a 9a       	mov	r10,r5
80009ec0:	0a 9b       	mov	r11,r5
80009ec2:	0e 9c       	mov	r12,r7
80009ec4:	cf ae       	rcall	80009cb8 <__multiply>
80009ec6:	8b 0c       	st.w	r5[0x0],r12
80009ec8:	99 03       	st.w	r12[0x0],r3
80009eca:	ce 7b       	rjmp	80009e98 <__pow5mult+0x54>
80009ecc:	08 9c       	mov	r12,r4
80009ece:	d8 32       	popm	r0-r7,pc

80009ed0 <_realloc_r>:
80009ed0:	d4 31       	pushm	r0-r7,lr
80009ed2:	20 1d       	sub	sp,4
80009ed4:	16 94       	mov	r4,r11
80009ed6:	18 92       	mov	r2,r12
80009ed8:	14 9b       	mov	r11,r10
80009eda:	58 04       	cp.w	r4,0
80009edc:	c0 51       	brne	80009ee6 <_realloc_r+0x16>
80009ede:	fe b0 fa c1 	rcall	80009460 <_malloc_r>
80009ee2:	18 95       	mov	r5,r12
80009ee4:	c5 39       	rjmp	8000a18a <_realloc_r+0x2ba>
80009ee6:	50 0a       	stdsp	sp[0x0],r10
80009ee8:	fe b0 fc fc 	rcall	800098e0 <__malloc_lock>
80009eec:	40 0b       	lddsp	r11,sp[0x0]
80009eee:	f6 c8 ff f5 	sub	r8,r11,-11
80009ef2:	e8 c1 00 08 	sub	r1,r4,8
80009ef6:	10 96       	mov	r6,r8
80009ef8:	62 1c       	ld.w	r12,r1[0x4]
80009efa:	e0 16 ff f8 	andl	r6,0xfff8
80009efe:	59 68       	cp.w	r8,22
80009f00:	f9 b6 08 10 	movls	r6,16
80009f04:	16 36       	cp.w	r6,r11
80009f06:	5f 38       	srlo	r8
80009f08:	f1 e6 13 f8 	or	r8,r8,r6>>0x1f
80009f0c:	c0 50       	breq	80009f16 <_realloc_r+0x46>
80009f0e:	30 c8       	mov	r8,12
80009f10:	30 05       	mov	r5,0
80009f12:	85 38       	st.w	r2[0xc],r8
80009f14:	c3 b9       	rjmp	8000a18a <_realloc_r+0x2ba>
80009f16:	18 90       	mov	r0,r12
80009f18:	e0 10 ff fc 	andl	r0,0xfffc
80009f1c:	0c 30       	cp.w	r0,r6
80009f1e:	e0 84 01 0b 	brge	8000a134 <_realloc_r+0x264>
80009f22:	e0 68 01 e8 	mov	r8,488
80009f26:	e2 00 00 09 	add	r9,r1,r0
80009f2a:	70 25       	ld.w	r5,r8[0x8]
80009f2c:	0a 39       	cp.w	r9,r5
80009f2e:	c0 90       	breq	80009f40 <_realloc_r+0x70>
80009f30:	72 1a       	ld.w	r10,r9[0x4]
80009f32:	a1 ca       	cbr	r10,0x0
80009f34:	f2 0a 00 0a 	add	r10,r9,r10
80009f38:	74 1a       	ld.w	r10,r10[0x4]
80009f3a:	ed ba 00 00 	bld	r10,0x0
80009f3e:	c2 20       	breq	80009f82 <_realloc_r+0xb2>
80009f40:	72 1a       	ld.w	r10,r9[0x4]
80009f42:	e0 1a ff fc 	andl	r10,0xfffc
80009f46:	f4 00 00 03 	add	r3,r10,r0
80009f4a:	0a 39       	cp.w	r9,r5
80009f4c:	c1 31       	brne	80009f72 <_realloc_r+0xa2>
80009f4e:	ec c7 ff f0 	sub	r7,r6,-16
80009f52:	0e 33       	cp.w	r3,r7
80009f54:	c1 95       	brlt	80009f86 <_realloc_r+0xb6>
80009f56:	e2 06 00 09 	add	r9,r1,r6
80009f5a:	0c 13       	sub	r3,r6
80009f5c:	a1 a3       	sbr	r3,0x0
80009f5e:	93 13       	st.w	r9[0x4],r3
80009f60:	91 29       	st.w	r8[0x8],r9
80009f62:	04 9c       	mov	r12,r2
80009f64:	62 18       	ld.w	r8,r1[0x4]
80009f66:	08 95       	mov	r5,r4
80009f68:	f1 d8 c0 01 	bfextu	r8,r8,0x0,0x1
80009f6c:	10 46       	or	r6,r8
80009f6e:	83 16       	st.w	r1[0x4],r6
80009f70:	c0 b9       	rjmp	8000a186 <_realloc_r+0x2b6>
80009f72:	0c 33       	cp.w	r3,r6
80009f74:	c0 95       	brlt	80009f86 <_realloc_r+0xb6>
80009f76:	72 28       	ld.w	r8,r9[0x8]
80009f78:	02 97       	mov	r7,r1
80009f7a:	72 39       	ld.w	r9,r9[0xc]
80009f7c:	93 28       	st.w	r9[0x8],r8
80009f7e:	91 39       	st.w	r8[0xc],r9
80009f80:	cd c8       	rjmp	8000a138 <_realloc_r+0x268>
80009f82:	30 0a       	mov	r10,0
80009f84:	14 99       	mov	r9,r10
80009f86:	ed bc 00 00 	bld	r12,0x0
80009f8a:	e0 80 00 95 	breq	8000a0b4 <_realloc_r+0x1e4>
80009f8e:	62 07       	ld.w	r7,r1[0x0]
80009f90:	e2 07 01 07 	sub	r7,r1,r7
80009f94:	6e 1c       	ld.w	r12,r7[0x4]
80009f96:	e0 1c ff fc 	andl	r12,0xfffc
80009f9a:	58 09       	cp.w	r9,0
80009f9c:	c5 60       	breq	8000a048 <_realloc_r+0x178>
80009f9e:	f8 00 00 03 	add	r3,r12,r0
80009fa2:	0a 39       	cp.w	r9,r5
80009fa4:	c4 81       	brne	8000a034 <_realloc_r+0x164>
80009fa6:	14 03       	add	r3,r10
80009fa8:	ec c9 ff f0 	sub	r9,r6,-16
80009fac:	12 33       	cp.w	r3,r9
80009fae:	c4 d5       	brlt	8000a048 <_realloc_r+0x178>
80009fb0:	6e 3a       	ld.w	r10,r7[0xc]
80009fb2:	6e 29       	ld.w	r9,r7[0x8]
80009fb4:	95 29       	st.w	r10[0x8],r9
80009fb6:	93 3a       	st.w	r9[0xc],r10
80009fb8:	ee c5 ff f8 	sub	r5,r7,-8
80009fbc:	e0 ca 00 04 	sub	r10,r0,4
80009fc0:	e0 4a 00 24 	cp.w	r10,36
80009fc4:	e0 8b 00 25 	brhi	8000a00e <_realloc_r+0x13e>
80009fc8:	0a 99       	mov	r9,r5
80009fca:	59 3a       	cp.w	r10,19
80009fcc:	e0 88 00 1a 	brls	8000a000 <_realloc_r+0x130>
80009fd0:	09 09       	ld.w	r9,r4++
80009fd2:	8b 09       	st.w	r5[0x0],r9
80009fd4:	09 09       	ld.w	r9,r4++
80009fd6:	8f 39       	st.w	r7[0xc],r9
80009fd8:	ee c9 ff f0 	sub	r9,r7,-16
80009fdc:	59 ba       	cp.w	r10,27
80009fde:	e0 88 00 11 	brls	8000a000 <_realloc_r+0x130>
80009fe2:	09 0b       	ld.w	r11,r4++
80009fe4:	93 0b       	st.w	r9[0x0],r11
80009fe6:	09 09       	ld.w	r9,r4++
80009fe8:	8f 59       	st.w	r7[0x14],r9
80009fea:	ee c9 ff e8 	sub	r9,r7,-24
80009fee:	e0 4a 00 24 	cp.w	r10,36
80009ff2:	c0 71       	brne	8000a000 <_realloc_r+0x130>
80009ff4:	09 0a       	ld.w	r10,r4++
80009ff6:	93 0a       	st.w	r9[0x0],r10
80009ff8:	ee c9 ff e0 	sub	r9,r7,-32
80009ffc:	09 0a       	ld.w	r10,r4++
80009ffe:	8f 7a       	st.w	r7[0x1c],r10
8000a000:	09 0a       	ld.w	r10,r4++
8000a002:	12 aa       	st.w	r9++,r10
8000a004:	68 0a       	ld.w	r10,r4[0x0]
8000a006:	93 0a       	st.w	r9[0x0],r10
8000a008:	68 1a       	ld.w	r10,r4[0x4]
8000a00a:	93 1a       	st.w	r9[0x4],r10
8000a00c:	c0 78       	rjmp	8000a01a <_realloc_r+0x14a>
8000a00e:	50 08       	stdsp	sp[0x0],r8
8000a010:	08 9b       	mov	r11,r4
8000a012:	0a 9c       	mov	r12,r5
8000a014:	fe b0 fc 47 	rcall	800098a2 <memmove>
8000a018:	40 08       	lddsp	r8,sp[0x0]
8000a01a:	ee 06 00 09 	add	r9,r7,r6
8000a01e:	0c 13       	sub	r3,r6
8000a020:	a1 a3       	sbr	r3,0x0
8000a022:	93 13       	st.w	r9[0x4],r3
8000a024:	91 29       	st.w	r8[0x8],r9
8000a026:	04 9c       	mov	r12,r2
8000a028:	6e 18       	ld.w	r8,r7[0x4]
8000a02a:	f1 d8 c0 01 	bfextu	r8,r8,0x0,0x1
8000a02e:	10 46       	or	r6,r8
8000a030:	8f 16       	st.w	r7[0x4],r6
8000a032:	ca a8       	rjmp	8000a186 <_realloc_r+0x2b6>
8000a034:	14 03       	add	r3,r10
8000a036:	0c 33       	cp.w	r3,r6
8000a038:	c0 85       	brlt	8000a048 <_realloc_r+0x178>
8000a03a:	72 28       	ld.w	r8,r9[0x8]
8000a03c:	72 39       	ld.w	r9,r9[0xc]
8000a03e:	93 28       	st.w	r9[0x8],r8
8000a040:	91 39       	st.w	r8[0xc],r9
8000a042:	6e 28       	ld.w	r8,r7[0x8]
8000a044:	6e 39       	ld.w	r9,r7[0xc]
8000a046:	c0 78       	rjmp	8000a054 <_realloc_r+0x184>
8000a048:	f8 00 00 03 	add	r3,r12,r0
8000a04c:	0c 33       	cp.w	r3,r6
8000a04e:	c3 35       	brlt	8000a0b4 <_realloc_r+0x1e4>
8000a050:	6e 39       	ld.w	r9,r7[0xc]
8000a052:	6e 28       	ld.w	r8,r7[0x8]
8000a054:	93 28       	st.w	r9[0x8],r8
8000a056:	91 39       	st.w	r8[0xc],r9
8000a058:	e0 ca 00 04 	sub	r10,r0,4
8000a05c:	ee cc ff f8 	sub	r12,r7,-8
8000a060:	e0 4a 00 24 	cp.w	r10,36
8000a064:	e0 8b 00 24 	brhi	8000a0ac <_realloc_r+0x1dc>
8000a068:	59 3a       	cp.w	r10,19
8000a06a:	e0 88 00 1a 	brls	8000a09e <_realloc_r+0x1ce>
8000a06e:	09 08       	ld.w	r8,r4++
8000a070:	99 08       	st.w	r12[0x0],r8
8000a072:	09 08       	ld.w	r8,r4++
8000a074:	8f 38       	st.w	r7[0xc],r8
8000a076:	ee cc ff f0 	sub	r12,r7,-16
8000a07a:	59 ba       	cp.w	r10,27
8000a07c:	e0 88 00 11 	brls	8000a09e <_realloc_r+0x1ce>
8000a080:	09 08       	ld.w	r8,r4++
8000a082:	99 08       	st.w	r12[0x0],r8
8000a084:	09 08       	ld.w	r8,r4++
8000a086:	8f 58       	st.w	r7[0x14],r8
8000a088:	ee cc ff e8 	sub	r12,r7,-24
8000a08c:	e0 4a 00 24 	cp.w	r10,36
8000a090:	c0 71       	brne	8000a09e <_realloc_r+0x1ce>
8000a092:	09 08       	ld.w	r8,r4++
8000a094:	99 08       	st.w	r12[0x0],r8
8000a096:	ee cc ff e0 	sub	r12,r7,-32
8000a09a:	09 08       	ld.w	r8,r4++
8000a09c:	8f 78       	st.w	r7[0x1c],r8
8000a09e:	09 08       	ld.w	r8,r4++
8000a0a0:	18 a8       	st.w	r12++,r8
8000a0a2:	68 08       	ld.w	r8,r4[0x0]
8000a0a4:	99 08       	st.w	r12[0x0],r8
8000a0a6:	68 18       	ld.w	r8,r4[0x4]
8000a0a8:	99 18       	st.w	r12[0x4],r8
8000a0aa:	c4 78       	rjmp	8000a138 <_realloc_r+0x268>
8000a0ac:	08 9b       	mov	r11,r4
8000a0ae:	fe b0 fb fa 	rcall	800098a2 <memmove>
8000a0b2:	c4 38       	rjmp	8000a138 <_realloc_r+0x268>
8000a0b4:	04 9c       	mov	r12,r2
8000a0b6:	fe b0 f9 d5 	rcall	80009460 <_malloc_r>
8000a0ba:	18 95       	mov	r5,r12
8000a0bc:	c3 a0       	breq	8000a130 <_realloc_r+0x260>
8000a0be:	62 18       	ld.w	r8,r1[0x4]
8000a0c0:	f8 c9 00 08 	sub	r9,r12,8
8000a0c4:	a1 c8       	cbr	r8,0x0
8000a0c6:	e2 08 00 08 	add	r8,r1,r8
8000a0ca:	10 39       	cp.w	r9,r8
8000a0cc:	c0 71       	brne	8000a0da <_realloc_r+0x20a>
8000a0ce:	72 13       	ld.w	r3,r9[0x4]
8000a0d0:	02 97       	mov	r7,r1
8000a0d2:	e0 13 ff fc 	andl	r3,0xfffc
8000a0d6:	00 03       	add	r3,r0
8000a0d8:	c3 08       	rjmp	8000a138 <_realloc_r+0x268>
8000a0da:	e0 ca 00 04 	sub	r10,r0,4
8000a0de:	e0 4a 00 24 	cp.w	r10,36
8000a0e2:	e0 8b 00 20 	brhi	8000a122 <_realloc_r+0x252>
8000a0e6:	08 99       	mov	r9,r4
8000a0e8:	18 98       	mov	r8,r12
8000a0ea:	59 3a       	cp.w	r10,19
8000a0ec:	e0 88 00 14 	brls	8000a114 <_realloc_r+0x244>
8000a0f0:	13 0b       	ld.w	r11,r9++
8000a0f2:	10 ab       	st.w	r8++,r11
8000a0f4:	13 0b       	ld.w	r11,r9++
8000a0f6:	10 ab       	st.w	r8++,r11
8000a0f8:	59 ba       	cp.w	r10,27
8000a0fa:	e0 88 00 0d 	brls	8000a114 <_realloc_r+0x244>
8000a0fe:	13 0b       	ld.w	r11,r9++
8000a100:	10 ab       	st.w	r8++,r11
8000a102:	13 0b       	ld.w	r11,r9++
8000a104:	10 ab       	st.w	r8++,r11
8000a106:	e0 4a 00 24 	cp.w	r10,36
8000a10a:	c0 51       	brne	8000a114 <_realloc_r+0x244>
8000a10c:	13 0a       	ld.w	r10,r9++
8000a10e:	10 aa       	st.w	r8++,r10
8000a110:	13 0a       	ld.w	r10,r9++
8000a112:	10 aa       	st.w	r8++,r10
8000a114:	13 0a       	ld.w	r10,r9++
8000a116:	10 aa       	st.w	r8++,r10
8000a118:	72 0a       	ld.w	r10,r9[0x0]
8000a11a:	91 0a       	st.w	r8[0x0],r10
8000a11c:	72 19       	ld.w	r9,r9[0x4]
8000a11e:	91 19       	st.w	r8[0x4],r9
8000a120:	c0 48       	rjmp	8000a128 <_realloc_r+0x258>
8000a122:	08 9b       	mov	r11,r4
8000a124:	fe b0 fb bf 	rcall	800098a2 <memmove>
8000a128:	08 9b       	mov	r11,r4
8000a12a:	04 9c       	mov	r12,r2
8000a12c:	fe b0 f6 fa 	rcall	80008f20 <_free_r>
8000a130:	04 9c       	mov	r12,r2
8000a132:	c2 a8       	rjmp	8000a186 <_realloc_r+0x2b6>
8000a134:	00 93       	mov	r3,r0
8000a136:	02 97       	mov	r7,r1
8000a138:	e6 06 01 09 	sub	r9,r3,r6
8000a13c:	6e 18       	ld.w	r8,r7[0x4]
8000a13e:	58 f9       	cp.w	r9,15
8000a140:	e0 88 00 16 	brls	8000a16c <_realloc_r+0x29c>
8000a144:	f1 d8 c0 01 	bfextu	r8,r8,0x0,0x1
8000a148:	ed e8 10 08 	or	r8,r6,r8
8000a14c:	8f 18       	st.w	r7[0x4],r8
8000a14e:	12 98       	mov	r8,r9
8000a150:	a1 a8       	sbr	r8,0x0
8000a152:	ee 06 00 0b 	add	r11,r7,r6
8000a156:	f6 09 00 09 	add	r9,r11,r9
8000a15a:	97 18       	st.w	r11[0x4],r8
8000a15c:	72 18       	ld.w	r8,r9[0x4]
8000a15e:	a1 a8       	sbr	r8,0x0
8000a160:	2f 8b       	sub	r11,-8
8000a162:	93 18       	st.w	r9[0x4],r8
8000a164:	04 9c       	mov	r12,r2
8000a166:	fe b0 f6 dd 	rcall	80008f20 <_free_r>
8000a16a:	c0 b8       	rjmp	8000a180 <_realloc_r+0x2b0>
8000a16c:	f1 d8 c0 01 	bfextu	r8,r8,0x0,0x1
8000a170:	e7 e8 10 08 	or	r8,r3,r8
8000a174:	8f 18       	st.w	r7[0x4],r8
8000a176:	ee 03 00 03 	add	r3,r7,r3
8000a17a:	66 18       	ld.w	r8,r3[0x4]
8000a17c:	a1 a8       	sbr	r8,0x0
8000a17e:	87 18       	st.w	r3[0x4],r8
8000a180:	04 9c       	mov	r12,r2
8000a182:	ee c5 ff f8 	sub	r5,r7,-8
8000a186:	fe b0 fb ae 	rcall	800098e2 <__malloc_unlock>
8000a18a:	0a 9c       	mov	r12,r5
8000a18c:	2f fd       	sub	sp,-4
8000a18e:	d8 32       	popm	r0-r7,pc

8000a190 <__isinfd>:
8000a190:	14 98       	mov	r8,r10
8000a192:	30 09       	mov	r9,0
8000a194:	ea 19 7f f0 	orh	r9,0x7ff0
8000a198:	f5 db c0 1f 	bfextu	r10,r11,0x0,0x1f
8000a19c:	f0 0b 11 00 	rsub	r11,r8,0
8000a1a0:	f7 e8 10 08 	or	r8,r11,r8
8000a1a4:	f5 e8 13 f8 	or	r8,r10,r8>>0x1f
8000a1a8:	f2 08 01 08 	sub	r8,r9,r8
8000a1ac:	f0 0c 11 00 	rsub	r12,r8,0
8000a1b0:	f9 e8 10 08 	or	r8,r12,r8
8000a1b4:	f0 0c 14 1f 	asr	r12,r8,0x1f
8000a1b8:	2f fc       	sub	r12,-1
8000a1ba:	5e fc       	retal	r12

8000a1bc <__isnand>:
8000a1bc:	14 98       	mov	r8,r10
8000a1be:	f5 db c0 1f 	bfextu	r10,r11,0x0,0x1f
8000a1c2:	f0 0c 11 00 	rsub	r12,r8,0
8000a1c6:	10 4c       	or	r12,r8
8000a1c8:	30 08       	mov	r8,0
8000a1ca:	ea 18 7f f0 	orh	r8,0x7ff0
8000a1ce:	f5 ec 13 fc 	or	r12,r10,r12>>0x1f
8000a1d2:	f0 0c 01 0c 	sub	r12,r8,r12
8000a1d6:	bf 9c       	lsr	r12,0x1f
8000a1d8:	5e fc       	retal	r12
8000a1da:	d7 03       	nop

8000a1dc <_sbrk_r>:
8000a1dc:	d4 21       	pushm	r4-r7,lr
8000a1de:	30 08       	mov	r8,0
8000a1e0:	18 97       	mov	r7,r12
8000a1e2:	e0 66 0f 9c 	mov	r6,3996
8000a1e6:	16 9c       	mov	r12,r11
8000a1e8:	8d 08       	st.w	r6[0x0],r8
8000a1ea:	ca fc       	rcall	8000a348 <_sbrk>
8000a1ec:	5b fc       	cp.w	r12,-1
8000a1ee:	c0 51       	brne	8000a1f8 <_sbrk_r+0x1c>
8000a1f0:	6c 08       	ld.w	r8,r6[0x0]
8000a1f2:	58 08       	cp.w	r8,0
8000a1f4:	c0 20       	breq	8000a1f8 <_sbrk_r+0x1c>
8000a1f6:	8f 38       	st.w	r7[0xc],r8
8000a1f8:	d8 22       	popm	r4-r7,pc
8000a1fa:	d7 03       	nop

8000a1fc <__sclose>:
8000a1fc:	d4 01       	pushm	lr
8000a1fe:	96 7b       	ld.sh	r11,r11[0xe]
8000a200:	cf ec       	rcall	8000a3fc <_close_r>
8000a202:	d8 02       	popm	pc

8000a204 <__sseek>:
8000a204:	d4 21       	pushm	r4-r7,lr
8000a206:	16 97       	mov	r7,r11
8000a208:	96 7b       	ld.sh	r11,r11[0xe]
8000a20a:	c8 5d       	rcall	8000a514 <_lseek_r>
8000a20c:	8e 68       	ld.sh	r8,r7[0xc]
8000a20e:	5b fc       	cp.w	r12,-1
8000a210:	c0 41       	brne	8000a218 <__sseek+0x14>
8000a212:	ad c8       	cbr	r8,0xc
8000a214:	ae 68       	st.h	r7[0xc],r8
8000a216:	d8 22       	popm	r4-r7,pc
8000a218:	ad a8       	sbr	r8,0xc
8000a21a:	ef 4c 00 54 	st.w	r7[84],r12
8000a21e:	ae 68       	st.h	r7[0xc],r8
8000a220:	d8 22       	popm	r4-r7,pc
8000a222:	d7 03       	nop

8000a224 <__swrite>:
8000a224:	d4 21       	pushm	r4-r7,lr
8000a226:	96 68       	ld.sh	r8,r11[0xc]
8000a228:	16 97       	mov	r7,r11
8000a22a:	14 95       	mov	r5,r10
8000a22c:	12 94       	mov	r4,r9
8000a22e:	e2 18 01 00 	andl	r8,0x100,COH
8000a232:	18 96       	mov	r6,r12
8000a234:	c0 50       	breq	8000a23e <__swrite+0x1a>
8000a236:	30 29       	mov	r9,2
8000a238:	30 0a       	mov	r10,0
8000a23a:	96 7b       	ld.sh	r11,r11[0xe]
8000a23c:	c6 cd       	rcall	8000a514 <_lseek_r>
8000a23e:	8e 68       	ld.sh	r8,r7[0xc]
8000a240:	ad c8       	cbr	r8,0xc
8000a242:	08 99       	mov	r9,r4
8000a244:	0a 9a       	mov	r10,r5
8000a246:	8e 7b       	ld.sh	r11,r7[0xe]
8000a248:	0c 9c       	mov	r12,r6
8000a24a:	ae 68       	st.h	r7[0xc],r8
8000a24c:	c9 ac       	rcall	8000a380 <_write_r>
8000a24e:	d8 22       	popm	r4-r7,pc

8000a250 <__sread>:
8000a250:	d4 21       	pushm	r4-r7,lr
8000a252:	16 97       	mov	r7,r11
8000a254:	96 7b       	ld.sh	r11,r11[0xe]
8000a256:	c7 1d       	rcall	8000a538 <_read_r>
8000a258:	c0 65       	brlt	8000a264 <__sread+0x14>
8000a25a:	6f 58       	ld.w	r8,r7[0x54]
8000a25c:	18 08       	add	r8,r12
8000a25e:	ef 48 00 54 	st.w	r7[84],r8
8000a262:	d8 22       	popm	r4-r7,pc
8000a264:	8e 68       	ld.sh	r8,r7[0xc]
8000a266:	ad c8       	cbr	r8,0xc
8000a268:	ae 68       	st.h	r7[0xc],r8
8000a26a:	d8 22       	popm	r4-r7,pc

8000a26c <strlen>:
8000a26c:	30 09       	mov	r9,0
8000a26e:	18 98       	mov	r8,r12
8000a270:	c0 28       	rjmp	8000a274 <strlen+0x8>
8000a272:	2f f8       	sub	r8,-1
8000a274:	11 8a       	ld.ub	r10,r8[0x0]
8000a276:	f2 0a 18 00 	cp.b	r10,r9
8000a27a:	cf c1       	brne	8000a272 <strlen+0x6>
8000a27c:	f0 0c 01 0c 	sub	r12,r8,r12
8000a280:	5e fc       	retal	r12
8000a282:	d7 03       	nop

8000a284 <_close>:
8000a284:	30 28       	mov	r8,2
8000a286:	d6 73       	breakpoint
8000a288:	3f fc       	mov	r12,-1
8000a28a:	35 8b       	mov	r11,88
8000a28c:	58 0c       	cp.w	r12,0
8000a28e:	5e 4c       	retge	r12
8000a290:	e0 6a 0f 9c 	mov	r10,3996
8000a294:	95 0b       	st.w	r10[0x0],r11
8000a296:	5e fc       	retal	r12

8000a298 <_lseek>:
8000a298:	30 58       	mov	r8,5
8000a29a:	d6 73       	breakpoint
8000a29c:	3f fc       	mov	r12,-1
8000a29e:	35 8b       	mov	r11,88
8000a2a0:	58 0c       	cp.w	r12,0
8000a2a2:	5e 4c       	retge	r12
8000a2a4:	e0 6a 0f 9c 	mov	r10,3996
8000a2a8:	95 0b       	st.w	r10[0x0],r11
8000a2aa:	5e fc       	retal	r12

8000a2ac <_read>:
8000a2ac:	30 38       	mov	r8,3
8000a2ae:	d6 73       	breakpoint
8000a2b0:	3f fc       	mov	r12,-1
8000a2b2:	35 8b       	mov	r11,88
8000a2b4:	58 0c       	cp.w	r12,0
8000a2b6:	5e 4c       	retge	r12
8000a2b8:	e0 6a 0f 9c 	mov	r10,3996
8000a2bc:	95 0b       	st.w	r10[0x0],r11
8000a2be:	5e fc       	retal	r12

8000a2c0 <_write>:
8000a2c0:	30 48       	mov	r8,4
8000a2c2:	d6 73       	breakpoint
8000a2c4:	3f fc       	mov	r12,-1
8000a2c6:	35 8b       	mov	r11,88
8000a2c8:	58 0c       	cp.w	r12,0
8000a2ca:	5e 4c       	retge	r12
8000a2cc:	e0 6a 0f 9c 	mov	r10,3996
8000a2d0:	95 0b       	st.w	r10[0x0],r11
8000a2d2:	5e fc       	retal	r12

8000a2d4 <isatty>:
8000a2d4:	30 b8       	mov	r8,11
8000a2d6:	d6 73       	breakpoint
8000a2d8:	3f fc       	mov	r12,-1
8000a2da:	35 8b       	mov	r11,88
8000a2dc:	58 0c       	cp.w	r12,0
8000a2de:	5e 4c       	retge	r12
8000a2e0:	e0 6a 0f 9c 	mov	r10,3996
8000a2e4:	95 0b       	st.w	r10[0x0],r11
8000a2e6:	5e fc       	retal	r12

8000a2e8 <_fstat_host>:
8000a2e8:	30 98       	mov	r8,9
8000a2ea:	d6 73       	breakpoint
8000a2ec:	3f fc       	mov	r12,-1
8000a2ee:	35 8b       	mov	r11,88
8000a2f0:	58 0c       	cp.w	r12,0
8000a2f2:	5e 4c       	retge	r12
8000a2f4:	e0 6a 0f 9c 	mov	r10,3996
8000a2f8:	95 0b       	st.w	r10[0x0],r11
8000a2fa:	5e fc       	retal	r12

8000a2fc <_fstat>:
8000a2fc:	d4 21       	pushm	r4-r7,lr
8000a2fe:	21 0d       	sub	sp,64
8000a300:	16 97       	mov	r7,r11
8000a302:	1a 9b       	mov	r11,sp
8000a304:	cf 2f       	rcall	8000a2e8 <_fstat_host>
8000a306:	c0 34       	brge	8000a30c <_fstat+0x10>
8000a308:	3f fc       	mov	r12,-1
8000a30a:	c1 c8       	rjmp	8000a342 <_fstat+0x46>
8000a30c:	40 08       	lddsp	r8,sp[0x0]
8000a30e:	ae 08       	st.h	r7[0x0],r8
8000a310:	40 18       	lddsp	r8,sp[0x4]
8000a312:	ae 18       	st.h	r7[0x2],r8
8000a314:	40 28       	lddsp	r8,sp[0x8]
8000a316:	8f 18       	st.w	r7[0x4],r8
8000a318:	40 38       	lddsp	r8,sp[0xc]
8000a31a:	ae 48       	st.h	r7[0x8],r8
8000a31c:	40 48       	lddsp	r8,sp[0x10]
8000a31e:	ae 58       	st.h	r7[0xa],r8
8000a320:	40 58       	lddsp	r8,sp[0x14]
8000a322:	ae 68       	st.h	r7[0xc],r8
8000a324:	40 68       	lddsp	r8,sp[0x18]
8000a326:	ae 78       	st.h	r7[0xe],r8
8000a328:	40 88       	lddsp	r8,sp[0x20]
8000a32a:	8f 48       	st.w	r7[0x10],r8
8000a32c:	40 a8       	lddsp	r8,sp[0x28]
8000a32e:	8f b8       	st.w	r7[0x2c],r8
8000a330:	40 c8       	lddsp	r8,sp[0x30]
8000a332:	8f c8       	st.w	r7[0x30],r8
8000a334:	40 d8       	lddsp	r8,sp[0x34]
8000a336:	8f 58       	st.w	r7[0x14],r8
8000a338:	40 e8       	lddsp	r8,sp[0x38]
8000a33a:	30 0c       	mov	r12,0
8000a33c:	8f 78       	st.w	r7[0x1c],r8
8000a33e:	40 f8       	lddsp	r8,sp[0x3c]
8000a340:	8f 98       	st.w	r7[0x24],r8
8000a342:	2f 0d       	sub	sp,-64
8000a344:	d8 22       	popm	r4-r7,pc
8000a346:	d7 03       	nop

8000a348 <_sbrk>:
8000a348:	d4 01       	pushm	lr
8000a34a:	e0 68 0f 60 	mov	r8,3936
8000a34e:	70 09       	ld.w	r9,r8[0x0]
8000a350:	58 09       	cp.w	r9,0
8000a352:	c0 41       	brne	8000a35a <_sbrk+0x12>
8000a354:	e0 69 0f a0 	mov	r9,4000
8000a358:	91 09       	st.w	r8[0x0],r9
8000a35a:	e0 69 0f 60 	mov	r9,3936
8000a35e:	e0 6a 70 00 	mov	r10,28672
8000a362:	72 08       	ld.w	r8,r9[0x0]
8000a364:	f0 0c 00 0c 	add	r12,r8,r12
8000a368:	14 3c       	cp.w	r12,r10
8000a36a:	e0 8b 00 04 	brhi	8000a372 <_sbrk+0x2a>
8000a36e:	93 0c       	st.w	r9[0x0],r12
8000a370:	c0 58       	rjmp	8000a37a <_sbrk+0x32>
8000a372:	c5 5c       	rcall	8000a41c <__errno>
8000a374:	30 c8       	mov	r8,12
8000a376:	99 08       	st.w	r12[0x0],r8
8000a378:	3f f8       	mov	r8,-1
8000a37a:	10 9c       	mov	r12,r8
8000a37c:	d8 02       	popm	pc
8000a37e:	d7 03       	nop

8000a380 <_write_r>:
8000a380:	d4 21       	pushm	r4-r7,lr
8000a382:	16 98       	mov	r8,r11
8000a384:	18 97       	mov	r7,r12
8000a386:	10 9c       	mov	r12,r8
8000a388:	30 08       	mov	r8,0
8000a38a:	14 9b       	mov	r11,r10
8000a38c:	e0 66 0f 9c 	mov	r6,3996
8000a390:	12 9a       	mov	r10,r9
8000a392:	8d 08       	st.w	r6[0x0],r8
8000a394:	c9 6f       	rcall	8000a2c0 <_write>
8000a396:	5b fc       	cp.w	r12,-1
8000a398:	c0 51       	brne	8000a3a2 <_write_r+0x22>
8000a39a:	6c 08       	ld.w	r8,r6[0x0]
8000a39c:	58 08       	cp.w	r8,0
8000a39e:	c0 20       	breq	8000a3a2 <_write_r+0x22>
8000a3a0:	8f 38       	st.w	r7[0xc],r8
8000a3a2:	d8 22       	popm	r4-r7,pc

8000a3a4 <_calloc_r>:
8000a3a4:	d4 21       	pushm	r4-r7,lr
8000a3a6:	f4 0b 02 4b 	mul	r11,r10,r11
8000a3aa:	fe b0 f8 5b 	rcall	80009460 <_malloc_r>
8000a3ae:	18 97       	mov	r7,r12
8000a3b0:	c2 30       	breq	8000a3f6 <_calloc_r+0x52>
8000a3b2:	f8 fa ff fc 	ld.w	r10,r12[-4]
8000a3b6:	e0 1a ff fc 	andl	r10,0xfffc
8000a3ba:	20 4a       	sub	r10,4
8000a3bc:	e0 4a 00 24 	cp.w	r10,36
8000a3c0:	e0 8b 00 18 	brhi	8000a3f0 <_calloc_r+0x4c>
8000a3c4:	18 98       	mov	r8,r12
8000a3c6:	59 3a       	cp.w	r10,19
8000a3c8:	e0 88 00 0f 	brls	8000a3e6 <_calloc_r+0x42>
8000a3cc:	30 09       	mov	r9,0
8000a3ce:	10 a9       	st.w	r8++,r9
8000a3d0:	10 a9       	st.w	r8++,r9
8000a3d2:	59 ba       	cp.w	r10,27
8000a3d4:	e0 88 00 09 	brls	8000a3e6 <_calloc_r+0x42>
8000a3d8:	10 a9       	st.w	r8++,r9
8000a3da:	10 a9       	st.w	r8++,r9
8000a3dc:	e0 4a 00 24 	cp.w	r10,36
8000a3e0:	c0 31       	brne	8000a3e6 <_calloc_r+0x42>
8000a3e2:	10 a9       	st.w	r8++,r9
8000a3e4:	10 a9       	st.w	r8++,r9
8000a3e6:	30 09       	mov	r9,0
8000a3e8:	10 a9       	st.w	r8++,r9
8000a3ea:	91 19       	st.w	r8[0x4],r9
8000a3ec:	91 09       	st.w	r8[0x0],r9
8000a3ee:	c0 48       	rjmp	8000a3f6 <_calloc_r+0x52>
8000a3f0:	30 0b       	mov	r11,0
8000a3f2:	fe b0 db 39 	rcall	80005a64 <memset>
8000a3f6:	0e 9c       	mov	r12,r7
8000a3f8:	d8 22       	popm	r4-r7,pc
8000a3fa:	d7 03       	nop

8000a3fc <_close_r>:
8000a3fc:	d4 21       	pushm	r4-r7,lr
8000a3fe:	30 08       	mov	r8,0
8000a400:	18 97       	mov	r7,r12
8000a402:	e0 66 0f 9c 	mov	r6,3996
8000a406:	16 9c       	mov	r12,r11
8000a408:	8d 08       	st.w	r6[0x0],r8
8000a40a:	c3 df       	rcall	8000a284 <_close>
8000a40c:	5b fc       	cp.w	r12,-1
8000a40e:	c0 51       	brne	8000a418 <_close_r+0x1c>
8000a410:	6c 08       	ld.w	r8,r6[0x0]
8000a412:	58 08       	cp.w	r8,0
8000a414:	c0 20       	breq	8000a418 <_close_r+0x1c>
8000a416:	8f 38       	st.w	r7[0xc],r8
8000a418:	d8 22       	popm	r4-r7,pc
8000a41a:	d7 03       	nop

8000a41c <__errno>:
8000a41c:	e0 68 01 e4 	mov	r8,484
8000a420:	70 0c       	ld.w	r12,r8[0x0]
8000a422:	2f 4c       	sub	r12,-12
8000a424:	5e fc       	retal	r12
8000a426:	d7 03       	nop

8000a428 <_fclose_r>:
8000a428:	d4 21       	pushm	r4-r7,lr
8000a42a:	18 96       	mov	r6,r12
8000a42c:	16 97       	mov	r7,r11
8000a42e:	58 0b       	cp.w	r11,0
8000a430:	c0 31       	brne	8000a436 <_fclose_r+0xe>
8000a432:	16 95       	mov	r5,r11
8000a434:	c5 38       	rjmp	8000a4da <_fclose_r+0xb2>
8000a436:	fe b0 f4 89 	rcall	80008d48 <__sfp_lock_acquire>
8000a43a:	58 06       	cp.w	r6,0
8000a43c:	c0 70       	breq	8000a44a <_fclose_r+0x22>
8000a43e:	6c 68       	ld.w	r8,r6[0x18]
8000a440:	58 08       	cp.w	r8,0
8000a442:	c0 41       	brne	8000a44a <_fclose_r+0x22>
8000a444:	0c 9c       	mov	r12,r6
8000a446:	fe b0 f4 d3 	rcall	80008dec <__sinit>
8000a44a:	fe c8 e9 0e 	sub	r8,pc,-5874
8000a44e:	10 37       	cp.w	r7,r8
8000a450:	c0 31       	brne	8000a456 <_fclose_r+0x2e>
8000a452:	6c 07       	ld.w	r7,r6[0x0]
8000a454:	c0 c8       	rjmp	8000a46c <_fclose_r+0x44>
8000a456:	fe c8 e8 fa 	sub	r8,pc,-5894
8000a45a:	10 37       	cp.w	r7,r8
8000a45c:	c0 31       	brne	8000a462 <_fclose_r+0x3a>
8000a45e:	6c 17       	ld.w	r7,r6[0x4]
8000a460:	c0 68       	rjmp	8000a46c <_fclose_r+0x44>
8000a462:	fe c8 e8 e6 	sub	r8,pc,-5914
8000a466:	10 37       	cp.w	r7,r8
8000a468:	c0 21       	brne	8000a46c <_fclose_r+0x44>
8000a46a:	6c 27       	ld.w	r7,r6[0x8]
8000a46c:	8e 69       	ld.sh	r9,r7[0xc]
8000a46e:	30 08       	mov	r8,0
8000a470:	f0 09 19 00 	cp.h	r9,r8
8000a474:	c0 51       	brne	8000a47e <_fclose_r+0x56>
8000a476:	fe b0 f4 6a 	rcall	80008d4a <__sfp_lock_release>
8000a47a:	30 05       	mov	r5,0
8000a47c:	c2 f8       	rjmp	8000a4da <_fclose_r+0xb2>
8000a47e:	0e 9b       	mov	r11,r7
8000a480:	0c 9c       	mov	r12,r6
8000a482:	fe b0 f3 df 	rcall	80008c40 <_fflush_r>
8000a486:	6e c8       	ld.w	r8,r7[0x30]
8000a488:	18 95       	mov	r5,r12
8000a48a:	58 08       	cp.w	r8,0
8000a48c:	c0 60       	breq	8000a498 <_fclose_r+0x70>
8000a48e:	6e 8b       	ld.w	r11,r7[0x20]
8000a490:	0c 9c       	mov	r12,r6
8000a492:	5d 18       	icall	r8
8000a494:	f9 b5 05 ff 	movlt	r5,-1
8000a498:	8e 68       	ld.sh	r8,r7[0xc]
8000a49a:	ed b8 00 07 	bld	r8,0x7
8000a49e:	c0 51       	brne	8000a4a8 <_fclose_r+0x80>
8000a4a0:	6e 4b       	ld.w	r11,r7[0x10]
8000a4a2:	0c 9c       	mov	r12,r6
8000a4a4:	fe b0 f5 3e 	rcall	80008f20 <_free_r>
8000a4a8:	6e db       	ld.w	r11,r7[0x34]
8000a4aa:	58 0b       	cp.w	r11,0
8000a4ac:	c0 a0       	breq	8000a4c0 <_fclose_r+0x98>
8000a4ae:	ee c8 ff bc 	sub	r8,r7,-68
8000a4b2:	10 3b       	cp.w	r11,r8
8000a4b4:	c0 40       	breq	8000a4bc <_fclose_r+0x94>
8000a4b6:	0c 9c       	mov	r12,r6
8000a4b8:	fe b0 f5 34 	rcall	80008f20 <_free_r>
8000a4bc:	30 08       	mov	r8,0
8000a4be:	8f d8       	st.w	r7[0x34],r8
8000a4c0:	6f 2b       	ld.w	r11,r7[0x48]
8000a4c2:	58 0b       	cp.w	r11,0
8000a4c4:	c0 70       	breq	8000a4d2 <_fclose_r+0xaa>
8000a4c6:	0c 9c       	mov	r12,r6
8000a4c8:	fe b0 f5 2c 	rcall	80008f20 <_free_r>
8000a4cc:	30 08       	mov	r8,0
8000a4ce:	ef 48 00 48 	st.w	r7[72],r8
8000a4d2:	30 08       	mov	r8,0
8000a4d4:	ae 68       	st.h	r7[0xc],r8
8000a4d6:	fe b0 f4 3a 	rcall	80008d4a <__sfp_lock_release>
8000a4da:	0a 9c       	mov	r12,r5
8000a4dc:	d8 22       	popm	r4-r7,pc
8000a4de:	d7 03       	nop

8000a4e0 <fclose>:
8000a4e0:	d4 01       	pushm	lr
8000a4e2:	e0 68 01 e4 	mov	r8,484
8000a4e6:	18 9b       	mov	r11,r12
8000a4e8:	70 0c       	ld.w	r12,r8[0x0]
8000a4ea:	c9 ff       	rcall	8000a428 <_fclose_r>
8000a4ec:	d8 02       	popm	pc
8000a4ee:	d7 03       	nop

8000a4f0 <_fstat_r>:
8000a4f0:	d4 21       	pushm	r4-r7,lr
8000a4f2:	16 98       	mov	r8,r11
8000a4f4:	18 97       	mov	r7,r12
8000a4f6:	10 9c       	mov	r12,r8
8000a4f8:	30 08       	mov	r8,0
8000a4fa:	e0 66 0f 9c 	mov	r6,3996
8000a4fe:	14 9b       	mov	r11,r10
8000a500:	8d 08       	st.w	r6[0x0],r8
8000a502:	cf de       	rcall	8000a2fc <_fstat>
8000a504:	5b fc       	cp.w	r12,-1
8000a506:	c0 51       	brne	8000a510 <_fstat_r+0x20>
8000a508:	6c 08       	ld.w	r8,r6[0x0]
8000a50a:	58 08       	cp.w	r8,0
8000a50c:	c0 20       	breq	8000a510 <_fstat_r+0x20>
8000a50e:	8f 38       	st.w	r7[0xc],r8
8000a510:	d8 22       	popm	r4-r7,pc
8000a512:	d7 03       	nop

8000a514 <_lseek_r>:
8000a514:	d4 21       	pushm	r4-r7,lr
8000a516:	16 98       	mov	r8,r11
8000a518:	18 97       	mov	r7,r12
8000a51a:	10 9c       	mov	r12,r8
8000a51c:	30 08       	mov	r8,0
8000a51e:	14 9b       	mov	r11,r10
8000a520:	e0 66 0f 9c 	mov	r6,3996
8000a524:	12 9a       	mov	r10,r9
8000a526:	8d 08       	st.w	r6[0x0],r8
8000a528:	cb 8e       	rcall	8000a298 <_lseek>
8000a52a:	5b fc       	cp.w	r12,-1
8000a52c:	c0 51       	brne	8000a536 <_lseek_r+0x22>
8000a52e:	6c 08       	ld.w	r8,r6[0x0]
8000a530:	58 08       	cp.w	r8,0
8000a532:	c0 20       	breq	8000a536 <_lseek_r+0x22>
8000a534:	8f 38       	st.w	r7[0xc],r8
8000a536:	d8 22       	popm	r4-r7,pc

8000a538 <_read_r>:
8000a538:	d4 21       	pushm	r4-r7,lr
8000a53a:	16 98       	mov	r8,r11
8000a53c:	18 97       	mov	r7,r12
8000a53e:	10 9c       	mov	r12,r8
8000a540:	30 08       	mov	r8,0
8000a542:	14 9b       	mov	r11,r10
8000a544:	e0 66 0f 9c 	mov	r6,3996
8000a548:	12 9a       	mov	r10,r9
8000a54a:	8d 08       	st.w	r6[0x0],r8
8000a54c:	cb 0e       	rcall	8000a2ac <_read>
8000a54e:	5b fc       	cp.w	r12,-1
8000a550:	c0 51       	brne	8000a55a <_read_r+0x22>
8000a552:	6c 08       	ld.w	r8,r6[0x0]
8000a554:	58 08       	cp.w	r8,0
8000a556:	c0 20       	breq	8000a55a <_read_r+0x22>
8000a558:	8f 38       	st.w	r7[0xc],r8
8000a55a:	d8 22       	popm	r4-r7,pc

8000a55c <__avr32_f64_mul>:
8000a55c:	f5 eb 10 1c 	or	r12,r10,r11<<0x1
8000a560:	e0 80 00 dc 	breq	8000a718 <__avr32_f64_mul_op1_zero>
8000a564:	d4 21       	pushm	r4-r7,lr
8000a566:	f7 e9 20 0e 	eor	lr,r11,r9
8000a56a:	ef db c2 8b 	bfextu	r7,r11,0x14,0xb
8000a56e:	30 15       	mov	r5,1
8000a570:	c4 30       	breq	8000a5f6 <__avr32_f64_mul_op1_subnormal>
8000a572:	ab 6b       	lsl	r11,0xa
8000a574:	f7 ea 13 6b 	or	r11,r11,r10>>0x16
8000a578:	ab 6a       	lsl	r10,0xa
8000a57a:	f7 d5 d3 c2 	bfins	r11,r5,0x1e,0x2
8000a57e:	ed d9 c2 8b 	bfextu	r6,r9,0x14,0xb
8000a582:	c5 c0       	breq	8000a63a <__avr32_f64_mul_op2_subnormal>
8000a584:	a1 78       	lsl	r8,0x1
8000a586:	5c f9       	rol	r9
8000a588:	f3 d5 d2 ab 	bfins	r9,r5,0x15,0xb
8000a58c:	e0 47 07 ff 	cp.w	r7,2047
8000a590:	c7 70       	breq	8000a67e <__avr32_f64_mul_op_nan_or_inf>
8000a592:	e0 46 07 ff 	cp.w	r6,2047
8000a596:	c7 40       	breq	8000a67e <__avr32_f64_mul_op_nan_or_inf>
8000a598:	ee 06 00 0c 	add	r12,r7,r6
8000a59c:	e0 2c 03 fe 	sub	r12,1022
8000a5a0:	f6 08 06 44 	mulu.d	r4,r11,r8
8000a5a4:	f4 09 07 44 	macu.d	r4,r10,r9
8000a5a8:	f4 08 06 46 	mulu.d	r6,r10,r8
8000a5ac:	f6 09 06 4a 	mulu.d	r10,r11,r9
8000a5b0:	08 07       	add	r7,r4
8000a5b2:	f4 05 00 4a 	adc	r10,r10,r5
8000a5b6:	5c 0b       	acr	r11
8000a5b8:	ed bb 00 14 	bld	r11,0x14
8000a5bc:	c0 50       	breq	8000a5c6 <__avr32_f64_mul+0x6a>
8000a5be:	a1 77       	lsl	r7,0x1
8000a5c0:	5c fa       	rol	r10
8000a5c2:	5c fb       	rol	r11
8000a5c4:	20 1c       	sub	r12,1
8000a5c6:	58 0c       	cp.w	r12,0
8000a5c8:	e0 8a 00 6f 	brle	8000a6a6 <__avr32_f64_mul_res_subnormal>
8000a5cc:	e0 4c 07 ff 	cp.w	r12,2047
8000a5d0:	e0 84 00 9c 	brge	8000a708 <__avr32_f64_mul_res_inf>
8000a5d4:	f7 dc d2 8b 	bfins	r11,r12,0x14,0xb
8000a5d8:	ed ea 11 f6 	or	r6,r6,r10<<0x1f
8000a5dc:	ef e6 12 17 	or	r7,r7,r6>>0x1
8000a5e0:	ee 17 80 00 	eorh	r7,0x8000
8000a5e4:	f1 b7 04 20 	satu	r7,0x1
8000a5e8:	0e 0a       	add	r10,r7
8000a5ea:	5c 0b       	acr	r11
8000a5ec:	ed be 00 1f 	bld	lr,0x1f
8000a5f0:	ef bb 00 1f 	bst	r11,0x1f
8000a5f4:	d8 22       	popm	r4-r7,pc

8000a5f6 <__avr32_f64_mul_op1_subnormal>:
8000a5f6:	e4 1b 00 0f 	andh	r11,0xf
8000a5fa:	f4 0c 12 00 	clz	r12,r10
8000a5fe:	f6 06 12 00 	clz	r6,r11
8000a602:	f7 bc 03 e1 	sublo	r12,-31
8000a606:	f8 06 17 30 	movlo	r6,r12
8000a60a:	f7 b6 02 01 	subhs	r6,1
8000a60e:	e0 46 00 20 	cp.w	r6,32
8000a612:	c0 d4       	brge	8000a62c <__avr32_f64_mul_op1_subnormal+0x36>
8000a614:	ec 0c 11 20 	rsub	r12,r6,32
8000a618:	f6 06 09 4b 	lsl	r11,r11,r6
8000a61c:	f4 0c 0a 4c 	lsr	r12,r10,r12
8000a620:	18 4b       	or	r11,r12
8000a622:	f4 06 09 4a 	lsl	r10,r10,r6
8000a626:	20 b6       	sub	r6,11
8000a628:	0c 17       	sub	r7,r6
8000a62a:	ca ab       	rjmp	8000a57e <__avr32_f64_mul+0x22>
8000a62c:	f4 06 09 4b 	lsl	r11,r10,r6
8000a630:	c6 40       	breq	8000a6f8 <__avr32_f64_mul_res_zero>
8000a632:	30 0a       	mov	r10,0
8000a634:	20 b6       	sub	r6,11
8000a636:	0c 17       	sub	r7,r6
8000a638:	ca 3b       	rjmp	8000a57e <__avr32_f64_mul+0x22>

8000a63a <__avr32_f64_mul_op2_subnormal>:
8000a63a:	e4 19 00 0f 	andh	r9,0xf
8000a63e:	f0 0c 12 00 	clz	r12,r8
8000a642:	f2 05 12 00 	clz	r5,r9
8000a646:	f7 bc 03 ea 	sublo	r12,-22
8000a64a:	f8 05 17 30 	movlo	r5,r12
8000a64e:	f7 b5 02 0a 	subhs	r5,10
8000a652:	e0 45 00 20 	cp.w	r5,32
8000a656:	c0 d4       	brge	8000a670 <__avr32_f64_mul_op2_subnormal+0x36>
8000a658:	ea 0c 11 20 	rsub	r12,r5,32
8000a65c:	f2 05 09 49 	lsl	r9,r9,r5
8000a660:	f0 0c 0a 4c 	lsr	r12,r8,r12
8000a664:	18 49       	or	r9,r12
8000a666:	f0 05 09 48 	lsl	r8,r8,r5
8000a66a:	20 25       	sub	r5,2
8000a66c:	0a 16       	sub	r6,r5
8000a66e:	c8 fb       	rjmp	8000a58c <__avr32_f64_mul+0x30>
8000a670:	f0 05 09 49 	lsl	r9,r8,r5
8000a674:	c4 20       	breq	8000a6f8 <__avr32_f64_mul_res_zero>
8000a676:	30 08       	mov	r8,0
8000a678:	20 25       	sub	r5,2
8000a67a:	0a 16       	sub	r6,r5
8000a67c:	c8 8b       	rjmp	8000a58c <__avr32_f64_mul+0x30>

8000a67e <__avr32_f64_mul_op_nan_or_inf>:
8000a67e:	e4 19 00 0f 	andh	r9,0xf
8000a682:	e4 1b 00 0f 	andh	r11,0xf
8000a686:	14 4b       	or	r11,r10
8000a688:	10 49       	or	r9,r8
8000a68a:	e0 47 07 ff 	cp.w	r7,2047
8000a68e:	c0 91       	brne	8000a6a0 <__avr32_f64_mul_op1_not_naninf>
8000a690:	58 0b       	cp.w	r11,0
8000a692:	c3 81       	brne	8000a702 <__avr32_f64_mul_res_nan>
8000a694:	e0 46 07 ff 	cp.w	r6,2047
8000a698:	c3 81       	brne	8000a708 <__avr32_f64_mul_res_inf>
8000a69a:	58 09       	cp.w	r9,0
8000a69c:	c3 60       	breq	8000a708 <__avr32_f64_mul_res_inf>
8000a69e:	c3 28       	rjmp	8000a702 <__avr32_f64_mul_res_nan>

8000a6a0 <__avr32_f64_mul_op1_not_naninf>:
8000a6a0:	58 09       	cp.w	r9,0
8000a6a2:	c3 30       	breq	8000a708 <__avr32_f64_mul_res_inf>
8000a6a4:	c2 f8       	rjmp	8000a702 <__avr32_f64_mul_res_nan>

8000a6a6 <__avr32_f64_mul_res_subnormal>:
8000a6a6:	5c 3c       	neg	r12
8000a6a8:	2f fc       	sub	r12,-1
8000a6aa:	f1 bc 04 c0 	satu	r12,0x6
8000a6ae:	e0 4c 00 20 	cp.w	r12,32
8000a6b2:	c1 14       	brge	8000a6d4 <__avr32_f64_mul_res_subnormal+0x2e>
8000a6b4:	f8 08 11 20 	rsub	r8,r12,32
8000a6b8:	0e 46       	or	r6,r7
8000a6ba:	ee 0c 0a 47 	lsr	r7,r7,r12
8000a6be:	f4 08 09 49 	lsl	r9,r10,r8
8000a6c2:	12 47       	or	r7,r9
8000a6c4:	f4 0c 0a 4a 	lsr	r10,r10,r12
8000a6c8:	f6 08 09 49 	lsl	r9,r11,r8
8000a6cc:	12 4a       	or	r10,r9
8000a6ce:	f6 0c 0a 4b 	lsr	r11,r11,r12
8000a6d2:	c8 3b       	rjmp	8000a5d8 <__avr32_f64_mul+0x7c>
8000a6d4:	f8 08 11 20 	rsub	r8,r12,32
8000a6d8:	f9 b9 00 00 	moveq	r9,0
8000a6dc:	c0 30       	breq	8000a6e2 <__avr32_f64_mul_res_subnormal+0x3c>
8000a6de:	f6 08 09 49 	lsl	r9,r11,r8
8000a6e2:	0e 46       	or	r6,r7
8000a6e4:	ed ea 10 16 	or	r6,r6,r10<<0x1
8000a6e8:	f4 0c 0a 4a 	lsr	r10,r10,r12
8000a6ec:	f3 ea 10 07 	or	r7,r9,r10
8000a6f0:	f6 0c 0a 4a 	lsr	r10,r11,r12
8000a6f4:	30 0b       	mov	r11,0
8000a6f6:	c7 1b       	rjmp	8000a5d8 <__avr32_f64_mul+0x7c>

8000a6f8 <__avr32_f64_mul_res_zero>:
8000a6f8:	1c 9b       	mov	r11,lr
8000a6fa:	e6 1b 80 00 	andh	r11,0x8000,COH
8000a6fe:	30 0a       	mov	r10,0
8000a700:	d8 22       	popm	r4-r7,pc

8000a702 <__avr32_f64_mul_res_nan>:
8000a702:	3f fb       	mov	r11,-1
8000a704:	3f fa       	mov	r10,-1
8000a706:	d8 22       	popm	r4-r7,pc

8000a708 <__avr32_f64_mul_res_inf>:
8000a708:	f0 6b 00 00 	mov	r11,-1048576
8000a70c:	ed be 00 1f 	bld	lr,0x1f
8000a710:	ef bb 00 1f 	bst	r11,0x1f
8000a714:	30 0a       	mov	r10,0
8000a716:	d8 22       	popm	r4-r7,pc

8000a718 <__avr32_f64_mul_op1_zero>:
8000a718:	f7 e9 20 0b 	eor	r11,r11,r9
8000a71c:	e6 1b 80 00 	andh	r11,0x8000,COH
8000a720:	f9 d9 c2 8b 	bfextu	r12,r9,0x14,0xb
8000a724:	e0 4c 07 ff 	cp.w	r12,2047
8000a728:	5e 1c       	retne	r12
8000a72a:	3f fa       	mov	r10,-1
8000a72c:	3f fb       	mov	r11,-1
8000a72e:	5e fc       	retal	r12

8000a730 <__avr32_f64_sub_from_add>:
8000a730:	ee 19 80 00 	eorh	r9,0x8000

8000a734 <__avr32_f64_sub>:
8000a734:	f7 e9 20 0c 	eor	r12,r11,r9
8000a738:	e0 86 00 ca 	brmi	8000a8cc <__avr32_f64_add_from_sub>
8000a73c:	eb cd 40 e0 	pushm	r5-r7,lr
8000a740:	16 9c       	mov	r12,r11
8000a742:	e6 1c 80 00 	andh	r12,0x8000,COH
8000a746:	bf db       	cbr	r11,0x1f
8000a748:	bf d9       	cbr	r9,0x1f
8000a74a:	10 3a       	cp.w	r10,r8
8000a74c:	f2 0b 13 00 	cpc	r11,r9
8000a750:	c0 92       	brcc	8000a762 <__avr32_f64_sub+0x2e>
8000a752:	16 97       	mov	r7,r11
8000a754:	12 9b       	mov	r11,r9
8000a756:	0e 99       	mov	r9,r7
8000a758:	14 97       	mov	r7,r10
8000a75a:	10 9a       	mov	r10,r8
8000a75c:	0e 98       	mov	r8,r7
8000a75e:	ee 1c 80 00 	eorh	r12,0x8000
8000a762:	f6 07 16 14 	lsr	r7,r11,0x14
8000a766:	ab 7b       	lsl	r11,0xb
8000a768:	f7 ea 13 5b 	or	r11,r11,r10>>0x15
8000a76c:	ab 7a       	lsl	r10,0xb
8000a76e:	bf bb       	sbr	r11,0x1f
8000a770:	f2 06 16 14 	lsr	r6,r9,0x14
8000a774:	c4 50       	breq	8000a7fe <__avr32_f64_sub_opL_subnormal>
8000a776:	ab 79       	lsl	r9,0xb
8000a778:	f3 e8 13 59 	or	r9,r9,r8>>0x15
8000a77c:	ab 78       	lsl	r8,0xb
8000a77e:	bf b9       	sbr	r9,0x1f

8000a780 <__avr32_f64_sub_opL_subnormal_done>:
8000a780:	e0 47 07 ff 	cp.w	r7,2047
8000a784:	c5 00       	breq	8000a824 <__avr32_f64_sub_opH_nan_or_inf>
8000a786:	0e 26       	rsub	r6,r7
8000a788:	c1 20       	breq	8000a7ac <__avr32_f64_sub_shift_done>
8000a78a:	ec 05 11 20 	rsub	r5,r6,32
8000a78e:	e0 46 00 20 	cp.w	r6,32
8000a792:	c7 d2       	brcc	8000a88c <__avr32_f64_sub_longshift>
8000a794:	f0 05 09 4e 	lsl	lr,r8,r5
8000a798:	f2 05 09 45 	lsl	r5,r9,r5
8000a79c:	f0 06 0a 48 	lsr	r8,r8,r6
8000a7a0:	f2 06 0a 49 	lsr	r9,r9,r6
8000a7a4:	0a 48       	or	r8,r5
8000a7a6:	58 0e       	cp.w	lr,0
8000a7a8:	5f 1e       	srne	lr
8000a7aa:	1c 48       	or	r8,lr

8000a7ac <__avr32_f64_sub_shift_done>:
8000a7ac:	10 1a       	sub	r10,r8
8000a7ae:	f6 09 01 4b 	sbc	r11,r11,r9
8000a7b2:	f6 06 12 00 	clz	r6,r11
8000a7b6:	c0 e0       	breq	8000a7d2 <__avr32_f64_sub_longnormalize_done>
8000a7b8:	c7 93       	brcs	8000a8aa <__avr32_f64_sub_longnormalize>
8000a7ba:	ec 0e 11 20 	rsub	lr,r6,32
8000a7be:	f6 06 09 4b 	lsl	r11,r11,r6
8000a7c2:	f4 0e 0a 4e 	lsr	lr,r10,lr
8000a7c6:	1c 4b       	or	r11,lr
8000a7c8:	f4 06 09 4a 	lsl	r10,r10,r6
8000a7cc:	0c 17       	sub	r7,r6
8000a7ce:	e0 8a 00 3a 	brle	8000a842 <__avr32_f64_sub_subnormal_result>

8000a7d2 <__avr32_f64_sub_longnormalize_done>:
8000a7d2:	f4 09 15 15 	lsl	r9,r10,0x15
8000a7d6:	ab 9a       	lsr	r10,0xb
8000a7d8:	f5 eb 11 5a 	or	r10,r10,r11<<0x15
8000a7dc:	ab 9b       	lsr	r11,0xb
8000a7de:	f7 d7 d2 8b 	bfins	r11,r7,0x14,0xb
8000a7e2:	18 4b       	or	r11,r12

8000a7e4 <__avr32_f64_sub_round>:
8000a7e4:	30 07       	mov	r7,0
8000a7e6:	ea 17 80 00 	orh	r7,0x8000
8000a7ea:	ed ba 00 00 	bld	r10,0x0
8000a7ee:	f7 b7 01 ff 	subne	r7,-1
8000a7f2:	0e 39       	cp.w	r9,r7
8000a7f4:	5f 29       	srhs	r9
8000a7f6:	12 0a       	add	r10,r9
8000a7f8:	5c 0b       	acr	r11
8000a7fa:	e3 cd 80 e0 	ldm	sp++,r5-r7,pc

8000a7fe <__avr32_f64_sub_opL_subnormal>:
8000a7fe:	ab 79       	lsl	r9,0xb
8000a800:	f3 e8 13 59 	or	r9,r9,r8>>0x15
8000a804:	ab 78       	lsl	r8,0xb
8000a806:	f3 e8 10 0e 	or	lr,r9,r8
8000a80a:	f9 b6 01 01 	movne	r6,1
8000a80e:	ee 0e 11 00 	rsub	lr,r7,0
8000a812:	f9 b7 00 01 	moveq	r7,1
8000a816:	ef bb 00 1f 	bst	r11,0x1f
8000a81a:	f7 ea 10 0e 	or	lr,r11,r10
8000a81e:	f9 b7 00 00 	moveq	r7,0
8000a822:	ca fb       	rjmp	8000a780 <__avr32_f64_sub_opL_subnormal_done>

8000a824 <__avr32_f64_sub_opH_nan_or_inf>:
8000a824:	bf db       	cbr	r11,0x1f
8000a826:	f7 ea 10 0e 	or	lr,r11,r10
8000a82a:	c0 81       	brne	8000a83a <__avr32_f64_sub_return_nan>
8000a82c:	e0 46 07 ff 	cp.w	r6,2047
8000a830:	c0 50       	breq	8000a83a <__avr32_f64_sub_return_nan>
8000a832:	f9 e7 11 4b 	or	r11,r12,r7<<0x14
8000a836:	e3 cd 80 e0 	ldm	sp++,r5-r7,pc

8000a83a <__avr32_f64_sub_return_nan>:
8000a83a:	3f fa       	mov	r10,-1
8000a83c:	3f fb       	mov	r11,-1
8000a83e:	e3 cd 80 e0 	ldm	sp++,r5-r7,pc

8000a842 <__avr32_f64_sub_subnormal_result>:
8000a842:	5c 37       	neg	r7
8000a844:	2f f7       	sub	r7,-1
8000a846:	f1 b7 04 c0 	satu	r7,0x6
8000a84a:	e0 47 00 20 	cp.w	r7,32
8000a84e:	c1 14       	brge	8000a870 <__avr32_f64_sub_subnormal_result+0x2e>
8000a850:	ee 08 11 20 	rsub	r8,r7,32
8000a854:	f4 08 09 49 	lsl	r9,r10,r8
8000a858:	5f 16       	srne	r6
8000a85a:	f4 07 0a 4a 	lsr	r10,r10,r7
8000a85e:	0c 4a       	or	r10,r6
8000a860:	f6 08 09 49 	lsl	r9,r11,r8
8000a864:	f5 e9 10 0a 	or	r10,r10,r9
8000a868:	f4 07 0a 4b 	lsr	r11,r10,r7
8000a86c:	30 07       	mov	r7,0
8000a86e:	cb 2b       	rjmp	8000a7d2 <__avr32_f64_sub_longnormalize_done>
8000a870:	ee 08 11 40 	rsub	r8,r7,64
8000a874:	f6 08 09 49 	lsl	r9,r11,r8
8000a878:	14 49       	or	r9,r10
8000a87a:	5f 16       	srne	r6
8000a87c:	f6 07 0a 4a 	lsr	r10,r11,r7
8000a880:	0c 4a       	or	r10,r6
8000a882:	30 0b       	mov	r11,0
8000a884:	30 07       	mov	r7,0
8000a886:	ca 6b       	rjmp	8000a7d2 <__avr32_f64_sub_longnormalize_done>
8000a888:	e3 cd 80 e0 	ldm	sp++,r5-r7,pc

8000a88c <__avr32_f64_sub_longshift>:
8000a88c:	f1 b6 04 c0 	satu	r6,0x6
8000a890:	f0 0e 17 00 	moveq	lr,r8
8000a894:	c0 40       	breq	8000a89c <__avr32_f64_sub_longshift+0x10>
8000a896:	f2 05 09 4e 	lsl	lr,r9,r5
8000a89a:	10 4e       	or	lr,r8
8000a89c:	f2 06 0a 48 	lsr	r8,r9,r6
8000a8a0:	30 09       	mov	r9,0
8000a8a2:	58 0e       	cp.w	lr,0
8000a8a4:	5f 1e       	srne	lr
8000a8a6:	1c 48       	or	r8,lr
8000a8a8:	c8 2b       	rjmp	8000a7ac <__avr32_f64_sub_shift_done>

8000a8aa <__avr32_f64_sub_longnormalize>:
8000a8aa:	f4 06 12 00 	clz	r6,r10
8000a8ae:	f9 b7 03 00 	movlo	r7,0
8000a8b2:	f9 b6 03 00 	movlo	r6,0
8000a8b6:	f9 bc 03 00 	movlo	r12,0
8000a8ba:	f7 b6 02 e0 	subhs	r6,-32
8000a8be:	f4 06 09 4b 	lsl	r11,r10,r6
8000a8c2:	30 0a       	mov	r10,0
8000a8c4:	0c 17       	sub	r7,r6
8000a8c6:	fe 9a ff be 	brle	8000a842 <__avr32_f64_sub_subnormal_result>
8000a8ca:	c8 4b       	rjmp	8000a7d2 <__avr32_f64_sub_longnormalize_done>

8000a8cc <__avr32_f64_add_from_sub>:
8000a8cc:	ee 19 80 00 	eorh	r9,0x8000

8000a8d0 <__avr32_f64_add>:
8000a8d0:	f7 e9 20 0c 	eor	r12,r11,r9
8000a8d4:	fe 96 ff 2e 	brmi	8000a730 <__avr32_f64_sub_from_add>
8000a8d8:	eb cd 40 e0 	pushm	r5-r7,lr
8000a8dc:	16 9c       	mov	r12,r11
8000a8de:	e6 1c 80 00 	andh	r12,0x8000,COH
8000a8e2:	bf db       	cbr	r11,0x1f
8000a8e4:	bf d9       	cbr	r9,0x1f
8000a8e6:	12 3b       	cp.w	r11,r9
8000a8e8:	c0 72       	brcc	8000a8f6 <__avr32_f64_add+0x26>
8000a8ea:	16 97       	mov	r7,r11
8000a8ec:	12 9b       	mov	r11,r9
8000a8ee:	0e 99       	mov	r9,r7
8000a8f0:	14 97       	mov	r7,r10
8000a8f2:	10 9a       	mov	r10,r8
8000a8f4:	0e 98       	mov	r8,r7
8000a8f6:	30 0e       	mov	lr,0
8000a8f8:	ef db c2 8b 	bfextu	r7,r11,0x14,0xb
8000a8fc:	f7 db c0 14 	bfextu	r11,r11,0x0,0x14
8000a900:	b5 ab       	sbr	r11,0x14
8000a902:	ed d9 c2 8b 	bfextu	r6,r9,0x14,0xb
8000a906:	c6 30       	breq	8000a9cc <__avr32_f64_add_op2_subnormal>
8000a908:	f3 d9 c0 14 	bfextu	r9,r9,0x0,0x14
8000a90c:	b5 a9       	sbr	r9,0x14
8000a90e:	e0 47 07 ff 	cp.w	r7,2047
8000a912:	c2 80       	breq	8000a962 <__avr32_f64_add_opH_nan_or_inf>
8000a914:	0e 26       	rsub	r6,r7
8000a916:	c1 20       	breq	8000a93a <__avr32_f64_add_shift_done>
8000a918:	e0 46 00 36 	cp.w	r6,54
8000a91c:	c1 52       	brcc	8000a946 <__avr32_f64_add_res_of_done>
8000a91e:	ec 05 11 20 	rsub	r5,r6,32
8000a922:	e0 46 00 20 	cp.w	r6,32
8000a926:	c3 62       	brcc	8000a992 <__avr32_f64_add_longshift>
8000a928:	f0 05 09 4e 	lsl	lr,r8,r5
8000a92c:	f2 05 09 45 	lsl	r5,r9,r5
8000a930:	f0 06 0a 48 	lsr	r8,r8,r6
8000a934:	f2 06 0a 49 	lsr	r9,r9,r6
8000a938:	0a 48       	or	r8,r5

8000a93a <__avr32_f64_add_shift_done>:
8000a93a:	10 0a       	add	r10,r8
8000a93c:	f6 09 00 4b 	adc	r11,r11,r9
8000a940:	ed bb 00 15 	bld	r11,0x15
8000a944:	c3 50       	breq	8000a9ae <__avr32_f64_add_res_of>

8000a946 <__avr32_f64_add_res_of_done>:
8000a946:	f7 d7 d2 8b 	bfins	r11,r7,0x14,0xb
8000a94a:	18 4b       	or	r11,r12

8000a94c <__avr32_f64_add_round>:
8000a94c:	f9 da c0 01 	bfextu	r12,r10,0x0,0x1
8000a950:	18 4e       	or	lr,r12
8000a952:	ee 1e 80 00 	eorh	lr,0x8000
8000a956:	f1 be 04 20 	satu	lr,0x1
8000a95a:	1c 0a       	add	r10,lr
8000a95c:	5c 0b       	acr	r11
8000a95e:	e3 cd 80 e0 	ldm	sp++,r5-r7,pc

8000a962 <__avr32_f64_add_opH_nan_or_inf>:
8000a962:	b5 cb       	cbr	r11,0x14
8000a964:	f7 ea 10 0e 	or	lr,r11,r10
8000a968:	c1 11       	brne	8000a98a <__avr32_f64_add_return_nan>
8000a96a:	e0 46 07 ff 	cp.w	r6,2047
8000a96e:	c0 30       	breq	8000a974 <__avr32_f64_add_opL_nan_or_inf>
8000a970:	e3 cd 80 e0 	ldm	sp++,r5-r7,pc

8000a974 <__avr32_f64_add_opL_nan_or_inf>:
8000a974:	b5 c9       	cbr	r9,0x14
8000a976:	f3 e8 10 0e 	or	lr,r9,r8
8000a97a:	c0 81       	brne	8000a98a <__avr32_f64_add_return_nan>
8000a97c:	30 0a       	mov	r10,0
8000a97e:	30 0b       	mov	r11,0
8000a980:	ea 1b 7f f0 	orh	r11,0x7ff0
8000a984:	18 4b       	or	r11,r12
8000a986:	e3 cd 80 e0 	ldm	sp++,r5-r7,pc

8000a98a <__avr32_f64_add_return_nan>:
8000a98a:	3f fa       	mov	r10,-1
8000a98c:	3f fb       	mov	r11,-1
8000a98e:	e3 cd 80 e0 	ldm	sp++,r5-r7,pc

8000a992 <__avr32_f64_add_longshift>:
8000a992:	f1 b6 04 c0 	satu	r6,0x6
8000a996:	f0 0e 17 00 	moveq	lr,r8
8000a99a:	c0 60       	breq	8000a9a6 <__avr32_f64_add_longshift+0x14>
8000a99c:	f2 05 09 4e 	lsl	lr,r9,r5
8000a9a0:	58 08       	cp.w	r8,0
8000a9a2:	5f 18       	srne	r8
8000a9a4:	10 4e       	or	lr,r8
8000a9a6:	f2 06 0a 48 	lsr	r8,r9,r6
8000a9aa:	30 09       	mov	r9,0
8000a9ac:	cc 7b       	rjmp	8000a93a <__avr32_f64_add_shift_done>

8000a9ae <__avr32_f64_add_res_of>:
8000a9ae:	fd ee 10 1e 	or	lr,lr,lr<<0x1
8000a9b2:	a1 9b       	lsr	r11,0x1
8000a9b4:	5d 0a       	ror	r10
8000a9b6:	5d 0e       	ror	lr
8000a9b8:	2f f7       	sub	r7,-1
8000a9ba:	e0 47 07 ff 	cp.w	r7,2047
8000a9be:	f9 ba 00 00 	moveq	r10,0
8000a9c2:	f9 bb 00 00 	moveq	r11,0
8000a9c6:	f9 be 00 00 	moveq	lr,0
8000a9ca:	cb eb       	rjmp	8000a946 <__avr32_f64_add_res_of_done>

8000a9cc <__avr32_f64_add_op2_subnormal>:
8000a9cc:	30 16       	mov	r6,1
8000a9ce:	58 07       	cp.w	r7,0
8000a9d0:	c9 f1       	brne	8000a90e <__avr32_f64_add+0x3e>
8000a9d2:	b5 cb       	cbr	r11,0x14
8000a9d4:	10 0a       	add	r10,r8
8000a9d6:	f6 09 00 4b 	adc	r11,r11,r9
8000a9da:	18 4b       	or	r11,r12
8000a9dc:	e3 cd 80 e0 	ldm	sp++,r5-r7,pc

8000a9e0 <__avr32_f64_to_u32>:
8000a9e0:	58 0b       	cp.w	r11,0
8000a9e2:	5e 6d       	retmi	0

8000a9e4 <__avr32_f64_to_s32>:
8000a9e4:	f6 0c 15 01 	lsl	r12,r11,0x1
8000a9e8:	b5 9c       	lsr	r12,0x15
8000a9ea:	e0 2c 03 ff 	sub	r12,1023
8000a9ee:	5e 3d       	retlo	0
8000a9f0:	f8 0c 11 1f 	rsub	r12,r12,31
8000a9f4:	16 99       	mov	r9,r11
8000a9f6:	ab 7b       	lsl	r11,0xb
8000a9f8:	bf bb       	sbr	r11,0x1f
8000a9fa:	f7 ea 13 5b 	or	r11,r11,r10>>0x15
8000a9fe:	f6 0c 0a 4b 	lsr	r11,r11,r12
8000aa02:	a1 79       	lsl	r9,0x1
8000aa04:	5e 2b       	reths	r11
8000aa06:	5c 3b       	neg	r11
8000aa08:	5e fb       	retal	r11

8000aa0a <__avr32_u32_to_f64>:
8000aa0a:	f8 cb 00 00 	sub	r11,r12,0
8000aa0e:	30 0c       	mov	r12,0
8000aa10:	c0 38       	rjmp	8000aa16 <__avr32_s32_to_f64+0x4>

8000aa12 <__avr32_s32_to_f64>:
8000aa12:	18 9b       	mov	r11,r12
8000aa14:	5c 4b       	abs	r11
8000aa16:	30 0a       	mov	r10,0
8000aa18:	5e 0b       	reteq	r11
8000aa1a:	d4 01       	pushm	lr
8000aa1c:	e0 69 04 1e 	mov	r9,1054
8000aa20:	f6 08 12 00 	clz	r8,r11
8000aa24:	c1 70       	breq	8000aa52 <__avr32_s32_to_f64+0x40>
8000aa26:	c0 c3       	brcs	8000aa3e <__avr32_s32_to_f64+0x2c>
8000aa28:	f0 0e 11 20 	rsub	lr,r8,32
8000aa2c:	f6 08 09 4b 	lsl	r11,r11,r8
8000aa30:	f4 0e 0a 4e 	lsr	lr,r10,lr
8000aa34:	1c 4b       	or	r11,lr
8000aa36:	f4 08 09 4a 	lsl	r10,r10,r8
8000aa3a:	10 19       	sub	r9,r8
8000aa3c:	c0 b8       	rjmp	8000aa52 <__avr32_s32_to_f64+0x40>
8000aa3e:	f4 08 12 00 	clz	r8,r10
8000aa42:	f9 b8 03 00 	movlo	r8,0
8000aa46:	f7 b8 02 e0 	subhs	r8,-32
8000aa4a:	f4 08 09 4b 	lsl	r11,r10,r8
8000aa4e:	30 0a       	mov	r10,0
8000aa50:	10 19       	sub	r9,r8
8000aa52:	58 09       	cp.w	r9,0
8000aa54:	e0 89 00 30 	brgt	8000aab4 <__avr32_s32_to_f64+0xa2>
8000aa58:	5c 39       	neg	r9
8000aa5a:	2f f9       	sub	r9,-1
8000aa5c:	e0 49 00 36 	cp.w	r9,54
8000aa60:	c0 43       	brcs	8000aa68 <__avr32_s32_to_f64+0x56>
8000aa62:	30 0b       	mov	r11,0
8000aa64:	30 0a       	mov	r10,0
8000aa66:	c2 68       	rjmp	8000aab2 <__avr32_s32_to_f64+0xa0>
8000aa68:	2f 69       	sub	r9,-10
8000aa6a:	f2 08 11 20 	rsub	r8,r9,32
8000aa6e:	e0 49 00 20 	cp.w	r9,32
8000aa72:	c0 b2       	brcc	8000aa88 <__avr32_s32_to_f64+0x76>
8000aa74:	f4 08 09 4e 	lsl	lr,r10,r8
8000aa78:	f6 08 09 48 	lsl	r8,r11,r8
8000aa7c:	f4 09 0a 4a 	lsr	r10,r10,r9
8000aa80:	f6 09 0a 4b 	lsr	r11,r11,r9
8000aa84:	10 4b       	or	r11,r8
8000aa86:	c0 88       	rjmp	8000aa96 <__avr32_s32_to_f64+0x84>
8000aa88:	f6 08 09 4e 	lsl	lr,r11,r8
8000aa8c:	14 4e       	or	lr,r10
8000aa8e:	16 9a       	mov	r10,r11
8000aa90:	30 0b       	mov	r11,0
8000aa92:	f4 09 0a 4a 	lsr	r10,r10,r9
8000aa96:	ed ba 00 00 	bld	r10,0x0
8000aa9a:	c0 92       	brcc	8000aaac <__avr32_s32_to_f64+0x9a>
8000aa9c:	1c 7e       	tst	lr,lr
8000aa9e:	c0 41       	brne	8000aaa6 <__avr32_s32_to_f64+0x94>
8000aaa0:	ed ba 00 01 	bld	r10,0x1
8000aaa4:	c0 42       	brcc	8000aaac <__avr32_s32_to_f64+0x9a>
8000aaa6:	2f fa       	sub	r10,-1
8000aaa8:	f7 bb 02 ff 	subhs	r11,-1
8000aaac:	5c fc       	rol	r12
8000aaae:	5d 0b       	ror	r11
8000aab0:	5d 0a       	ror	r10
8000aab2:	d8 02       	popm	pc
8000aab4:	e0 68 03 ff 	mov	r8,1023
8000aab8:	ed ba 00 0b 	bld	r10,0xb
8000aabc:	f7 b8 00 ff 	subeq	r8,-1
8000aac0:	10 0a       	add	r10,r8
8000aac2:	5c 0b       	acr	r11
8000aac4:	f7 b9 03 fe 	sublo	r9,-2
8000aac8:	e0 49 07 ff 	cp.w	r9,2047
8000aacc:	c0 65       	brlt	8000aad8 <__avr32_s32_to_f64+0xc6>
8000aace:	30 0a       	mov	r10,0
8000aad0:	30 0b       	mov	r11,0
8000aad2:	ea 1b ff e0 	orh	r11,0xffe0
8000aad6:	c0 c8       	rjmp	8000aaee <__floatsidf_return_op1>
8000aad8:	ed bb 00 1f 	bld	r11,0x1f
8000aadc:	f7 b9 01 01 	subne	r9,1
8000aae0:	ab 9a       	lsr	r10,0xb
8000aae2:	f5 eb 11 5a 	or	r10,r10,r11<<0x15
8000aae6:	a1 7b       	lsl	r11,0x1
8000aae8:	ab 9b       	lsr	r11,0xb
8000aaea:	f7 e9 11 5b 	or	r11,r11,r9<<0x15

8000aaee <__floatsidf_return_op1>:
8000aaee:	a1 7c       	lsl	r12,0x1
8000aaf0:	5d 0b       	ror	r11
8000aaf2:	d8 02       	popm	pc

8000aaf4 <__avr32_f64_cmp_eq>:
8000aaf4:	10 3a       	cp.w	r10,r8
8000aaf6:	f2 0b 13 00 	cpc	r11,r9
8000aafa:	c0 80       	breq	8000ab0a <__avr32_f64_cmp_eq+0x16>
8000aafc:	a1 7b       	lsl	r11,0x1
8000aafe:	a1 79       	lsl	r9,0x1
8000ab00:	14 4b       	or	r11,r10
8000ab02:	12 4b       	or	r11,r9
8000ab04:	10 4b       	or	r11,r8
8000ab06:	5e 0f       	reteq	1
8000ab08:	5e fd       	retal	0
8000ab0a:	a1 7b       	lsl	r11,0x1
8000ab0c:	30 0c       	mov	r12,0
8000ab0e:	ea 1c ff e0 	orh	r12,0xffe0
8000ab12:	58 0a       	cp.w	r10,0
8000ab14:	f8 0b 13 00 	cpc	r11,r12
8000ab18:	5e 8f       	retls	1
8000ab1a:	5e fd       	retal	0

8000ab1c <__avr32_f64_cmp_ge>:
8000ab1c:	1a de       	st.w	--sp,lr
8000ab1e:	1a d7       	st.w	--sp,r7
8000ab20:	a1 7b       	lsl	r11,0x1
8000ab22:	5f 3c       	srlo	r12
8000ab24:	a1 79       	lsl	r9,0x1
8000ab26:	5f 37       	srlo	r7
8000ab28:	5c fc       	rol	r12
8000ab2a:	30 0e       	mov	lr,0
8000ab2c:	ea 1e ff e0 	orh	lr,0xffe0
8000ab30:	58 0a       	cp.w	r10,0
8000ab32:	fc 0b 13 00 	cpc	r11,lr
8000ab36:	e0 8b 00 1d 	brhi	8000ab70 <__avr32_f64_cmp_ge+0x54>
8000ab3a:	58 08       	cp.w	r8,0
8000ab3c:	fc 09 13 00 	cpc	r9,lr
8000ab40:	e0 8b 00 18 	brhi	8000ab70 <__avr32_f64_cmp_ge+0x54>
8000ab44:	58 0b       	cp.w	r11,0
8000ab46:	f5 ba 00 00 	subfeq	r10,0
8000ab4a:	c1 50       	breq	8000ab74 <__avr32_f64_cmp_ge+0x58>
8000ab4c:	1b 07       	ld.w	r7,sp++
8000ab4e:	1b 0e       	ld.w	lr,sp++
8000ab50:	58 3c       	cp.w	r12,3
8000ab52:	c0 a0       	breq	8000ab66 <__avr32_f64_cmp_ge+0x4a>
8000ab54:	58 1c       	cp.w	r12,1
8000ab56:	c0 33       	brcs	8000ab5c <__avr32_f64_cmp_ge+0x40>
8000ab58:	5e 0f       	reteq	1
8000ab5a:	5e 1d       	retne	0
8000ab5c:	10 3a       	cp.w	r10,r8
8000ab5e:	f2 0b 13 00 	cpc	r11,r9
8000ab62:	5e 2f       	reths	1
8000ab64:	5e 3d       	retlo	0
8000ab66:	14 38       	cp.w	r8,r10
8000ab68:	f6 09 13 00 	cpc	r9,r11
8000ab6c:	5e 2f       	reths	1
8000ab6e:	5e 3d       	retlo	0
8000ab70:	1b 07       	ld.w	r7,sp++
8000ab72:	d8 0a       	popm	pc,r12=0
8000ab74:	58 17       	cp.w	r7,1
8000ab76:	5f 0c       	sreq	r12
8000ab78:	58 09       	cp.w	r9,0
8000ab7a:	f5 b8 00 00 	subfeq	r8,0
8000ab7e:	1b 07       	ld.w	r7,sp++
8000ab80:	1b 0e       	ld.w	lr,sp++
8000ab82:	5e 0f       	reteq	1
8000ab84:	5e fc       	retal	r12

8000ab86 <__avr32_f64_cmp_lt>:
8000ab86:	1a de       	st.w	--sp,lr
8000ab88:	1a d7       	st.w	--sp,r7
8000ab8a:	a1 7b       	lsl	r11,0x1
8000ab8c:	5f 3c       	srlo	r12
8000ab8e:	a1 79       	lsl	r9,0x1
8000ab90:	5f 37       	srlo	r7
8000ab92:	5c fc       	rol	r12
8000ab94:	30 0e       	mov	lr,0
8000ab96:	ea 1e ff e0 	orh	lr,0xffe0
8000ab9a:	58 0a       	cp.w	r10,0
8000ab9c:	fc 0b 13 00 	cpc	r11,lr
8000aba0:	e0 8b 00 1d 	brhi	8000abda <__avr32_f64_cmp_lt+0x54>
8000aba4:	58 08       	cp.w	r8,0
8000aba6:	fc 09 13 00 	cpc	r9,lr
8000abaa:	e0 8b 00 18 	brhi	8000abda <__avr32_f64_cmp_lt+0x54>
8000abae:	58 0b       	cp.w	r11,0
8000abb0:	f5 ba 00 00 	subfeq	r10,0
8000abb4:	c1 50       	breq	8000abde <__avr32_f64_cmp_lt+0x58>
8000abb6:	1b 07       	ld.w	r7,sp++
8000abb8:	1b 0e       	ld.w	lr,sp++
8000abba:	58 3c       	cp.w	r12,3
8000abbc:	c0 a0       	breq	8000abd0 <__avr32_f64_cmp_lt+0x4a>
8000abbe:	58 1c       	cp.w	r12,1
8000abc0:	c0 33       	brcs	8000abc6 <__avr32_f64_cmp_lt+0x40>
8000abc2:	5e 0d       	reteq	0
8000abc4:	5e 1f       	retne	1
8000abc6:	10 3a       	cp.w	r10,r8
8000abc8:	f2 0b 13 00 	cpc	r11,r9
8000abcc:	5e 2d       	reths	0
8000abce:	5e 3f       	retlo	1
8000abd0:	14 38       	cp.w	r8,r10
8000abd2:	f6 09 13 00 	cpc	r9,r11
8000abd6:	5e 2d       	reths	0
8000abd8:	5e 3f       	retlo	1
8000abda:	1b 07       	ld.w	r7,sp++
8000abdc:	d8 0a       	popm	pc,r12=0
8000abde:	58 17       	cp.w	r7,1
8000abe0:	5f 1c       	srne	r12
8000abe2:	58 09       	cp.w	r9,0
8000abe4:	f5 b8 00 00 	subfeq	r8,0
8000abe8:	1b 07       	ld.w	r7,sp++
8000abea:	1b 0e       	ld.w	lr,sp++
8000abec:	5e 0d       	reteq	0
8000abee:	5e fc       	retal	r12

8000abf0 <__avr32_f64_div>:
8000abf0:	eb cd 40 ff 	pushm	r0-r7,lr
8000abf4:	f7 e9 20 0e 	eor	lr,r11,r9
8000abf8:	f6 07 16 14 	lsr	r7,r11,0x14
8000abfc:	a9 7b       	lsl	r11,0x9
8000abfe:	f7 ea 13 7b 	or	r11,r11,r10>>0x17
8000ac02:	a9 7a       	lsl	r10,0x9
8000ac04:	bd bb       	sbr	r11,0x1d
8000ac06:	e4 1b 3f ff 	andh	r11,0x3fff
8000ac0a:	ab d7       	cbr	r7,0xb
8000ac0c:	e0 80 00 cd 	breq	8000ada6 <__avr32_f64_div_round_subnormal+0x54>
8000ac10:	e0 47 07 ff 	cp.w	r7,2047
8000ac14:	e0 84 00 b6 	brge	8000ad80 <__avr32_f64_div_round_subnormal+0x2e>
8000ac18:	f2 06 16 14 	lsr	r6,r9,0x14
8000ac1c:	a9 79       	lsl	r9,0x9
8000ac1e:	f3 e8 13 79 	or	r9,r9,r8>>0x17
8000ac22:	a9 78       	lsl	r8,0x9
8000ac24:	bd b9       	sbr	r9,0x1d
8000ac26:	e4 19 3f ff 	andh	r9,0x3fff
8000ac2a:	ab d6       	cbr	r6,0xb
8000ac2c:	e0 80 00 e3 	breq	8000adf2 <__avr32_f64_div_round_subnormal+0xa0>
8000ac30:	e0 46 07 ff 	cp.w	r6,2047
8000ac34:	e0 84 00 b3 	brge	8000ad9a <__avr32_f64_div_round_subnormal+0x48>
8000ac38:	0c 17       	sub	r7,r6
8000ac3a:	fe 37 fc 01 	sub	r7,-1023
8000ac3e:	30 0c       	mov	r12,0
8000ac40:	ea 1c 80 00 	orh	r12,0x8000
8000ac44:	f8 03 16 01 	lsr	r3,r12,0x1
8000ac48:	e9 d9 c3 62 	bfextu	r4,r9,0x1b,0x2
8000ac4c:	5c d4       	com	r4
8000ac4e:	e7 d4 d3 82 	bfins	r3,r4,0x1c,0x2
8000ac52:	e6 09 06 44 	mulu.d	r4,r3,r9
8000ac56:	f8 05 01 25 	sub	r5,r12,r5<<0x2
8000ac5a:	e6 05 06 44 	mulu.d	r4,r3,r5
8000ac5e:	ea 03 15 02 	lsl	r3,r5,0x2
8000ac62:	e6 09 06 44 	mulu.d	r4,r3,r9
8000ac66:	f8 05 01 25 	sub	r5,r12,r5<<0x2
8000ac6a:	e6 05 06 44 	mulu.d	r4,r3,r5
8000ac6e:	ea 03 15 02 	lsl	r3,r5,0x2
8000ac72:	e6 09 06 44 	mulu.d	r4,r3,r9
8000ac76:	f8 05 01 25 	sub	r5,r12,r5<<0x2
8000ac7a:	e6 05 06 44 	mulu.d	r4,r3,r5
8000ac7e:	ea 03 15 02 	lsl	r3,r5,0x2
8000ac82:	e6 08 06 40 	mulu.d	r0,r3,r8
8000ac86:	e4 09 07 40 	macu.d	r0,r2,r9
8000ac8a:	e6 09 06 44 	mulu.d	r4,r3,r9
8000ac8e:	02 04       	add	r4,r1
8000ac90:	5c 05       	acr	r5
8000ac92:	a3 65       	lsl	r5,0x2
8000ac94:	eb e4 13 e5 	or	r5,r5,r4>>0x1e
8000ac98:	a3 64       	lsl	r4,0x2
8000ac9a:	5c 34       	neg	r4
8000ac9c:	f8 05 01 45 	sbc	r5,r12,r5
8000aca0:	e6 04 06 40 	mulu.d	r0,r3,r4
8000aca4:	e4 05 07 40 	macu.d	r0,r2,r5
8000aca8:	e6 05 06 44 	mulu.d	r4,r3,r5
8000acac:	02 04       	add	r4,r1
8000acae:	5c 05       	acr	r5
8000acb0:	ea 03 15 02 	lsl	r3,r5,0x2
8000acb4:	e7 e4 13 e3 	or	r3,r3,r4>>0x1e
8000acb8:	e8 02 15 02 	lsl	r2,r4,0x2
8000acbc:	e6 08 06 40 	mulu.d	r0,r3,r8
8000acc0:	e4 09 07 40 	macu.d	r0,r2,r9
8000acc4:	e6 09 06 44 	mulu.d	r4,r3,r9
8000acc8:	02 04       	add	r4,r1
8000acca:	5c 05       	acr	r5
8000accc:	a3 65       	lsl	r5,0x2
8000acce:	eb e4 13 e5 	or	r5,r5,r4>>0x1e
8000acd2:	a3 64       	lsl	r4,0x2
8000acd4:	5c 34       	neg	r4
8000acd6:	f8 05 01 45 	sbc	r5,r12,r5
8000acda:	e6 04 06 40 	mulu.d	r0,r3,r4
8000acde:	e4 05 07 40 	macu.d	r0,r2,r5
8000ace2:	e6 05 06 44 	mulu.d	r4,r3,r5
8000ace6:	02 04       	add	r4,r1
8000ace8:	5c 05       	acr	r5
8000acea:	ea 03 15 02 	lsl	r3,r5,0x2
8000acee:	e7 e4 13 e3 	or	r3,r3,r4>>0x1e
8000acf2:	e8 02 15 02 	lsl	r2,r4,0x2
8000acf6:	e6 0a 06 40 	mulu.d	r0,r3,r10
8000acfa:	e4 0b 07 40 	macu.d	r0,r2,r11
8000acfe:	e6 0b 06 42 	mulu.d	r2,r3,r11
8000ad02:	02 02       	add	r2,r1
8000ad04:	5c 03       	acr	r3
8000ad06:	ed b3 00 1c 	bld	r3,0x1c
8000ad0a:	c0 90       	breq	8000ad1c <__avr32_f64_div+0x12c>
8000ad0c:	a1 72       	lsl	r2,0x1
8000ad0e:	5c f3       	rol	r3
8000ad10:	20 17       	sub	r7,1
8000ad12:	a3 9a       	lsr	r10,0x3
8000ad14:	f5 eb 11 da 	or	r10,r10,r11<<0x1d
8000ad18:	a3 9b       	lsr	r11,0x3
8000ad1a:	c0 58       	rjmp	8000ad24 <__avr32_f64_div+0x134>
8000ad1c:	a5 8a       	lsr	r10,0x4
8000ad1e:	f5 eb 11 ca 	or	r10,r10,r11<<0x1c
8000ad22:	a5 8b       	lsr	r11,0x4
8000ad24:	58 07       	cp.w	r7,0
8000ad26:	e0 8a 00 8b 	brle	8000ae3c <__avr32_f64_div_res_subnormal>
8000ad2a:	e0 12 ff 00 	andl	r2,0xff00
8000ad2e:	e8 12 00 80 	orl	r2,0x80
8000ad32:	e6 08 06 40 	mulu.d	r0,r3,r8
8000ad36:	e4 09 07 40 	macu.d	r0,r2,r9
8000ad3a:	e4 08 06 44 	mulu.d	r4,r2,r8
8000ad3e:	e6 09 06 48 	mulu.d	r8,r3,r9
8000ad42:	00 05       	add	r5,r0
8000ad44:	f0 01 00 48 	adc	r8,r8,r1
8000ad48:	5c 09       	acr	r9
8000ad4a:	f9 d2 c1 01 	bfextu	r12,r2,0x8,0x1
8000ad4e:	58 04       	cp.w	r4,0
8000ad50:	5c 25       	cpc	r5

8000ad52 <__avr32_f64_div_round_subnormal>:
8000ad52:	f4 08 13 00 	cpc	r8,r10
8000ad56:	f6 09 13 00 	cpc	r9,r11
8000ad5a:	5f 36       	srlo	r6
8000ad5c:	f8 06 17 00 	moveq	r6,r12
8000ad60:	e4 0a 16 08 	lsr	r10,r2,0x8
8000ad64:	f5 e3 11 8a 	or	r10,r10,r3<<0x18
8000ad68:	e6 0b 16 08 	lsr	r11,r3,0x8
8000ad6c:	f7 d7 d2 8b 	bfins	r11,r7,0x14,0xb
8000ad70:	ed be 00 1f 	bld	lr,0x1f
8000ad74:	ef bb 00 1f 	bst	r11,0x1f
8000ad78:	0c 0a       	add	r10,r6
8000ad7a:	5c 0b       	acr	r11
8000ad7c:	e3 cd 80 ff 	ldm	sp++,r0-r7,pc
8000ad80:	e4 1b 00 0f 	andh	r11,0xf
8000ad84:	14 4b       	or	r11,r10
8000ad86:	e0 81 00 a7 	brne	8000aed4 <__avr32_f64_div_res_subnormal+0x98>
8000ad8a:	f2 06 16 14 	lsr	r6,r9,0x14
8000ad8e:	ab d6       	cbr	r6,0xb
8000ad90:	e0 46 07 ff 	cp.w	r6,2047
8000ad94:	e0 81 00 a4 	brne	8000aedc <__avr32_f64_div_res_subnormal+0xa0>
8000ad98:	c9 e8       	rjmp	8000aed4 <__avr32_f64_div_res_subnormal+0x98>
8000ad9a:	e4 19 00 0f 	andh	r9,0xf
8000ad9e:	10 49       	or	r9,r8
8000ada0:	e0 81 00 9a 	brne	8000aed4 <__avr32_f64_div_res_subnormal+0x98>
8000ada4:	c9 28       	rjmp	8000aec8 <__avr32_f64_div_res_subnormal+0x8c>
8000ada6:	a3 7b       	lsl	r11,0x3
8000ada8:	f7 ea 13 db 	or	r11,r11,r10>>0x1d
8000adac:	a3 7a       	lsl	r10,0x3
8000adae:	f5 eb 10 04 	or	r4,r10,r11
8000adb2:	e0 80 00 a0 	breq	8000aef2 <__avr32_f64_div_op1_zero>
8000adb6:	f6 04 12 00 	clz	r4,r11
8000adba:	c1 70       	breq	8000ade8 <__avr32_f64_div_round_subnormal+0x96>
8000adbc:	c0 c3       	brcs	8000add4 <__avr32_f64_div_round_subnormal+0x82>
8000adbe:	e8 05 11 20 	rsub	r5,r4,32
8000adc2:	f6 04 09 4b 	lsl	r11,r11,r4
8000adc6:	f4 05 0a 45 	lsr	r5,r10,r5
8000adca:	0a 4b       	or	r11,r5
8000adcc:	f4 04 09 4a 	lsl	r10,r10,r4
8000add0:	08 17       	sub	r7,r4
8000add2:	c0 b8       	rjmp	8000ade8 <__avr32_f64_div_round_subnormal+0x96>
8000add4:	f4 04 12 00 	clz	r4,r10
8000add8:	f9 b4 03 00 	movlo	r4,0
8000addc:	f7 b4 02 e0 	subhs	r4,-32
8000ade0:	f4 04 09 4b 	lsl	r11,r10,r4
8000ade4:	30 0a       	mov	r10,0
8000ade6:	08 17       	sub	r7,r4
8000ade8:	a3 8a       	lsr	r10,0x2
8000adea:	f5 eb 11 ea 	or	r10,r10,r11<<0x1e
8000adee:	a3 8b       	lsr	r11,0x2
8000adf0:	c1 0b       	rjmp	8000ac10 <__avr32_f64_div+0x20>
8000adf2:	a3 79       	lsl	r9,0x3
8000adf4:	f3 e8 13 d9 	or	r9,r9,r8>>0x1d
8000adf8:	a3 78       	lsl	r8,0x3
8000adfa:	f3 e8 10 04 	or	r4,r9,r8
8000adfe:	c6 f0       	breq	8000aedc <__avr32_f64_div_res_subnormal+0xa0>
8000ae00:	f2 04 12 00 	clz	r4,r9
8000ae04:	c1 70       	breq	8000ae32 <__avr32_f64_div_round_subnormal+0xe0>
8000ae06:	c0 c3       	brcs	8000ae1e <__avr32_f64_div_round_subnormal+0xcc>
8000ae08:	e8 05 11 20 	rsub	r5,r4,32
8000ae0c:	f2 04 09 49 	lsl	r9,r9,r4
8000ae10:	f0 05 0a 45 	lsr	r5,r8,r5
8000ae14:	0a 49       	or	r9,r5
8000ae16:	f0 04 09 48 	lsl	r8,r8,r4
8000ae1a:	08 16       	sub	r6,r4
8000ae1c:	c0 b8       	rjmp	8000ae32 <__avr32_f64_div_round_subnormal+0xe0>
8000ae1e:	f0 04 12 00 	clz	r4,r8
8000ae22:	f9 b4 03 00 	movlo	r4,0
8000ae26:	f7 b4 02 e0 	subhs	r4,-32
8000ae2a:	f0 04 09 49 	lsl	r9,r8,r4
8000ae2e:	30 08       	mov	r8,0
8000ae30:	08 16       	sub	r6,r4
8000ae32:	a3 88       	lsr	r8,0x2
8000ae34:	f1 e9 11 e8 	or	r8,r8,r9<<0x1e
8000ae38:	a3 89       	lsr	r9,0x2
8000ae3a:	cf ba       	rjmp	8000ac30 <__avr32_f64_div+0x40>

8000ae3c <__avr32_f64_div_res_subnormal>:
8000ae3c:	5c 37       	neg	r7
8000ae3e:	2f f7       	sub	r7,-1
8000ae40:	f1 b7 04 c0 	satu	r7,0x6
8000ae44:	e0 47 00 20 	cp.w	r7,32
8000ae48:	c1 54       	brge	8000ae72 <__avr32_f64_div_res_subnormal+0x36>
8000ae4a:	ee 06 11 20 	rsub	r6,r7,32
8000ae4e:	e4 07 0a 42 	lsr	r2,r2,r7
8000ae52:	e6 06 09 4c 	lsl	r12,r3,r6
8000ae56:	18 42       	or	r2,r12
8000ae58:	e6 07 0a 43 	lsr	r3,r3,r7
8000ae5c:	f4 06 09 41 	lsl	r1,r10,r6
8000ae60:	f4 07 0a 4a 	lsr	r10,r10,r7
8000ae64:	f6 06 09 4c 	lsl	r12,r11,r6
8000ae68:	18 4a       	or	r10,r12
8000ae6a:	f6 07 0a 4b 	lsr	r11,r11,r7
8000ae6e:	30 00       	mov	r0,0
8000ae70:	c1 58       	rjmp	8000ae9a <__avr32_f64_div_res_subnormal+0x5e>
8000ae72:	ee 06 11 20 	rsub	r6,r7,32
8000ae76:	f9 b0 00 00 	moveq	r0,0
8000ae7a:	f9 bc 00 00 	moveq	r12,0
8000ae7e:	c0 50       	breq	8000ae88 <__avr32_f64_div_res_subnormal+0x4c>
8000ae80:	f4 06 09 40 	lsl	r0,r10,r6
8000ae84:	f6 06 09 4c 	lsl	r12,r11,r6
8000ae88:	e6 07 0a 42 	lsr	r2,r3,r7
8000ae8c:	30 03       	mov	r3,0
8000ae8e:	f4 07 0a 41 	lsr	r1,r10,r7
8000ae92:	18 41       	or	r1,r12
8000ae94:	f6 07 0a 4a 	lsr	r10,r11,r7
8000ae98:	30 0b       	mov	r11,0
8000ae9a:	e0 12 ff 00 	andl	r2,0xff00
8000ae9e:	e8 12 00 80 	orl	r2,0x80
8000aea2:	e6 08 06 46 	mulu.d	r6,r3,r8
8000aea6:	e4 09 07 46 	macu.d	r6,r2,r9
8000aeaa:	e4 08 06 44 	mulu.d	r4,r2,r8
8000aeae:	e6 09 06 48 	mulu.d	r8,r3,r9
8000aeb2:	0c 05       	add	r5,r6
8000aeb4:	f0 07 00 48 	adc	r8,r8,r7
8000aeb8:	5c 09       	acr	r9
8000aeba:	30 07       	mov	r7,0
8000aebc:	f9 d2 c1 01 	bfextu	r12,r2,0x8,0x1
8000aec0:	00 34       	cp.w	r4,r0
8000aec2:	e2 05 13 00 	cpc	r5,r1
8000aec6:	c4 6b       	rjmp	8000ad52 <__avr32_f64_div_round_subnormal>
8000aec8:	1c 9b       	mov	r11,lr
8000aeca:	e6 1b 80 00 	andh	r11,0x8000,COH
8000aece:	30 0a       	mov	r10,0
8000aed0:	e3 cd 80 ff 	ldm	sp++,r0-r7,pc
8000aed4:	3f fb       	mov	r11,-1
8000aed6:	30 0a       	mov	r10,0
8000aed8:	e3 cd 80 ff 	ldm	sp++,r0-r7,pc
8000aedc:	f5 eb 10 04 	or	r4,r10,r11
8000aee0:	c0 90       	breq	8000aef2 <__avr32_f64_div_op1_zero>
8000aee2:	1c 9b       	mov	r11,lr
8000aee4:	e6 1b 80 00 	andh	r11,0x8000,COH
8000aee8:	ea 1b 7f f0 	orh	r11,0x7ff0
8000aeec:	30 0a       	mov	r10,0
8000aeee:	e3 cd 80 ff 	ldm	sp++,r0-r7,pc

8000aef2 <__avr32_f64_div_op1_zero>:
8000aef2:	f1 e9 10 15 	or	r5,r8,r9<<0x1
8000aef6:	ce f0       	breq	8000aed4 <__avr32_f64_div_res_subnormal+0x98>
8000aef8:	e9 d9 c2 8b 	bfextu	r4,r9,0x14,0xb
8000aefc:	e0 44 07 ff 	cp.w	r4,2047
8000af00:	ce 41       	brne	8000aec8 <__avr32_f64_div_res_subnormal+0x8c>
8000af02:	f1 e9 10 c5 	or	r5,r8,r9<<0xc
8000af06:	ce 10       	breq	8000aec8 <__avr32_f64_div_res_subnormal+0x8c>
8000af08:	ce 6b       	rjmp	8000aed4 <__avr32_f64_div_res_subnormal+0x98>
8000af0a:	d7 03       	nop

8000af0c <__avr32_umod64>:
8000af0c:	d4 31       	pushm	r0-r7,lr
8000af0e:	1a 97       	mov	r7,sp
8000af10:	20 2d       	sub	sp,8
8000af12:	10 96       	mov	r6,r8
8000af14:	12 9e       	mov	lr,r9
8000af16:	14 9c       	mov	r12,r10
8000af18:	16 93       	mov	r3,r11
8000af1a:	16 95       	mov	r5,r11
8000af1c:	58 09       	cp.w	r9,0
8000af1e:	e0 81 00 89 	brne	8000b030 <__avr32_umod64+0x124>
8000af22:	16 38       	cp.w	r8,r11
8000af24:	e0 88 00 12 	brls	8000af48 <__avr32_umod64+0x3c>
8000af28:	f0 08 12 00 	clz	r8,r8
8000af2c:	c5 20       	breq	8000afd0 <__avr32_umod64+0xc4>
8000af2e:	f6 08 09 45 	lsl	r5,r11,r8
8000af32:	ec 08 09 46 	lsl	r6,r6,r8
8000af36:	f0 0b 11 20 	rsub	r11,r8,32
8000af3a:	f4 08 09 4c 	lsl	r12,r10,r8
8000af3e:	f4 0b 0a 4b 	lsr	r11,r10,r11
8000af42:	f7 e5 10 05 	or	r5,r11,r5
8000af46:	c4 58       	rjmp	8000afd0 <__avr32_umod64+0xc4>
8000af48:	58 08       	cp.w	r8,0
8000af4a:	c0 51       	brne	8000af54 <__avr32_umod64+0x48>
8000af4c:	30 19       	mov	r9,1
8000af4e:	f2 08 0d 08 	divu	r8,r9,r8
8000af52:	10 96       	mov	r6,r8
8000af54:	ec 08 12 00 	clz	r8,r6
8000af58:	c0 31       	brne	8000af5e <__avr32_umod64+0x52>
8000af5a:	0c 15       	sub	r5,r6
8000af5c:	c3 a8       	rjmp	8000afd0 <__avr32_umod64+0xc4>
8000af5e:	f0 03 11 20 	rsub	r3,r8,32
8000af62:	f4 03 0a 4b 	lsr	r11,r10,r3
8000af66:	ec 08 09 46 	lsl	r6,r6,r8
8000af6a:	ea 08 09 49 	lsl	r9,r5,r8
8000af6e:	ea 03 0a 43 	lsr	r3,r5,r3
8000af72:	f7 e9 10 09 	or	r9,r11,r9
8000af76:	ec 0e 16 10 	lsr	lr,r6,0x10
8000af7a:	eb d6 c0 10 	bfextu	r5,r6,0x0,0x10
8000af7e:	e6 0e 0d 02 	divu	r2,r3,lr
8000af82:	f2 0c 16 10 	lsr	r12,r9,0x10
8000af86:	ea 02 02 4b 	mul	r11,r5,r2
8000af8a:	f9 e3 11 0c 	or	r12,r12,r3<<0x10
8000af8e:	16 3c       	cp.w	r12,r11
8000af90:	c0 92       	brcc	8000afa2 <__avr32_umod64+0x96>
8000af92:	0c 0c       	add	r12,r6
8000af94:	0c 3c       	cp.w	r12,r6
8000af96:	c0 63       	brcs	8000afa2 <__avr32_umod64+0x96>
8000af98:	f8 06 00 03 	add	r3,r12,r6
8000af9c:	16 3c       	cp.w	r12,r11
8000af9e:	e6 0c 17 30 	movlo	r12,r3
8000afa2:	f8 0b 01 03 	sub	r3,r12,r11
8000afa6:	f3 d9 c0 10 	bfextu	r9,r9,0x0,0x10
8000afaa:	e6 0e 0d 02 	divu	r2,r3,lr
8000afae:	f3 e3 11 09 	or	r9,r9,r3<<0x10
8000afb2:	a5 35       	mul	r5,r2
8000afb4:	0a 39       	cp.w	r9,r5
8000afb6:	c0 92       	brcc	8000afc8 <__avr32_umod64+0xbc>
8000afb8:	0c 09       	add	r9,r6
8000afba:	0c 39       	cp.w	r9,r6
8000afbc:	c0 63       	brcs	8000afc8 <__avr32_umod64+0xbc>
8000afbe:	f2 06 00 0b 	add	r11,r9,r6
8000afc2:	0a 39       	cp.w	r9,r5
8000afc4:	f6 09 17 30 	movlo	r9,r11
8000afc8:	f2 05 01 05 	sub	r5,r9,r5
8000afcc:	f4 08 09 4c 	lsl	r12,r10,r8
8000afd0:	ec 0a 16 10 	lsr	r10,r6,0x10
8000afd4:	fd d6 c0 10 	bfextu	lr,r6,0x0,0x10
8000afd8:	ea 0a 0d 02 	divu	r2,r5,r10
8000afdc:	f8 09 16 10 	lsr	r9,r12,0x10
8000afe0:	fc 02 02 4b 	mul	r11,lr,r2
8000afe4:	f3 e3 11 09 	or	r9,r9,r3<<0x10
8000afe8:	16 39       	cp.w	r9,r11
8000afea:	c0 92       	brcc	8000affc <__avr32_umod64+0xf0>
8000afec:	0c 09       	add	r9,r6
8000afee:	0c 39       	cp.w	r9,r6
8000aff0:	c0 63       	brcs	8000affc <__avr32_umod64+0xf0>
8000aff2:	f2 06 00 05 	add	r5,r9,r6
8000aff6:	16 39       	cp.w	r9,r11
8000aff8:	ea 09 17 30 	movlo	r9,r5
8000affc:	f2 0b 01 0b 	sub	r11,r9,r11
8000b000:	f9 dc c0 10 	bfextu	r12,r12,0x0,0x10
8000b004:	f6 0a 0d 0a 	divu	r10,r11,r10
8000b008:	f9 eb 11 0c 	or	r12,r12,r11<<0x10
8000b00c:	fc 0a 02 4a 	mul	r10,lr,r10
8000b010:	14 3c       	cp.w	r12,r10
8000b012:	c0 92       	brcc	8000b024 <__avr32_umod64+0x118>
8000b014:	0c 0c       	add	r12,r6
8000b016:	0c 3c       	cp.w	r12,r6
8000b018:	c0 63       	brcs	8000b024 <__avr32_umod64+0x118>
8000b01a:	f8 06 00 06 	add	r6,r12,r6
8000b01e:	14 3c       	cp.w	r12,r10
8000b020:	ec 0c 17 30 	movlo	r12,r6
8000b024:	f8 0a 01 0a 	sub	r10,r12,r10
8000b028:	30 0b       	mov	r11,0
8000b02a:	f4 08 0a 4a 	lsr	r10,r10,r8
8000b02e:	c8 38       	rjmp	8000b134 <__avr32_umod64+0x228>
8000b030:	16 39       	cp.w	r9,r11
8000b032:	e0 8b 00 81 	brhi	8000b134 <__avr32_umod64+0x228>
8000b036:	f2 09 12 00 	clz	r9,r9
8000b03a:	c1 21       	brne	8000b05e <__avr32_umod64+0x152>
8000b03c:	10 3a       	cp.w	r10,r8
8000b03e:	5f 2b       	srhs	r11
8000b040:	1c 33       	cp.w	r3,lr
8000b042:	5f ba       	srhi	r10
8000b044:	f7 ea 10 0a 	or	r10,r11,r10
8000b048:	f2 0a 18 00 	cp.b	r10,r9
8000b04c:	c0 60       	breq	8000b058 <__avr32_umod64+0x14c>
8000b04e:	f8 08 01 0b 	sub	r11,r12,r8
8000b052:	e6 0e 01 45 	sbc	r5,r3,lr
8000b056:	16 9c       	mov	r12,r11
8000b058:	0a 9b       	mov	r11,r5
8000b05a:	18 9a       	mov	r10,r12
8000b05c:	c6 c8       	rjmp	8000b134 <__avr32_umod64+0x228>
8000b05e:	fc 09 09 45 	lsl	r5,lr,r9
8000b062:	f6 09 09 4b 	lsl	r11,r11,r9
8000b066:	f2 0c 11 20 	rsub	r12,r9,32
8000b06a:	f0 09 09 46 	lsl	r6,r8,r9
8000b06e:	e6 0c 0a 43 	lsr	r3,r3,r12
8000b072:	f4 0c 0a 42 	lsr	r2,r10,r12
8000b076:	f4 09 09 4e 	lsl	lr,r10,r9
8000b07a:	16 42       	or	r2,r11
8000b07c:	f0 0c 0a 48 	lsr	r8,r8,r12
8000b080:	0a 48       	or	r8,r5
8000b082:	f0 01 16 10 	lsr	r1,r8,0x10
8000b086:	e6 01 0d 0a 	divu	r10,r3,r1
8000b08a:	ee eb ff f8 	st.d	r7[-8],r10
8000b08e:	ee f5 ff f8 	ld.w	r5,r7[-8]
8000b092:	14 9b       	mov	r11,r10
8000b094:	e7 d8 c0 10 	bfextu	r3,r8,0x0,0x10
8000b098:	e4 0a 16 10 	lsr	r10,r2,0x10
8000b09c:	f5 e5 11 0a 	or	r10,r10,r5<<0x10
8000b0a0:	f6 03 02 45 	mul	r5,r11,r3
8000b0a4:	0a 3a       	cp.w	r10,r5
8000b0a6:	c1 02       	brcc	8000b0c6 <__avr32_umod64+0x1ba>
8000b0a8:	20 1b       	sub	r11,1
8000b0aa:	10 0a       	add	r10,r8
8000b0ac:	10 3a       	cp.w	r10,r8
8000b0ae:	c0 c3       	brcs	8000b0c6 <__avr32_umod64+0x1ba>
8000b0b0:	f6 c0 00 01 	sub	r0,r11,1
8000b0b4:	ef 40 ff f8 	st.w	r7[-8],r0
8000b0b8:	f4 08 00 00 	add	r0,r10,r8
8000b0bc:	0a 3a       	cp.w	r10,r5
8000b0be:	c0 42       	brcc	8000b0c6 <__avr32_umod64+0x1ba>
8000b0c0:	ee fb ff f8 	ld.w	r11,r7[-8]
8000b0c4:	00 9a       	mov	r10,r0
8000b0c6:	0a 1a       	sub	r10,r5
8000b0c8:	e5 d2 c0 10 	bfextu	r2,r2,0x0,0x10
8000b0cc:	f4 01 0d 00 	divu	r0,r10,r1
8000b0d0:	e5 e1 11 02 	or	r2,r2,r1<<0x10
8000b0d4:	e0 03 02 43 	mul	r3,r0,r3
8000b0d8:	00 91       	mov	r1,r0
8000b0da:	06 32       	cp.w	r2,r3
8000b0dc:	c0 d2       	brcc	8000b0f6 <__avr32_umod64+0x1ea>
8000b0de:	20 11       	sub	r1,1
8000b0e0:	10 02       	add	r2,r8
8000b0e2:	10 32       	cp.w	r2,r8
8000b0e4:	c0 93       	brcs	8000b0f6 <__avr32_umod64+0x1ea>
8000b0e6:	e2 c5 00 01 	sub	r5,r1,1
8000b0ea:	e4 08 00 0a 	add	r10,r2,r8
8000b0ee:	06 32       	cp.w	r2,r3
8000b0f0:	c0 32       	brcc	8000b0f6 <__avr32_umod64+0x1ea>
8000b0f2:	0a 91       	mov	r1,r5
8000b0f4:	14 92       	mov	r2,r10
8000b0f6:	e3 eb 11 0b 	or	r11,r1,r11<<0x10
8000b0fa:	06 12       	sub	r2,r3
8000b0fc:	f6 06 06 4a 	mulu.d	r10,r11,r6
8000b100:	14 95       	mov	r5,r10
8000b102:	04 3b       	cp.w	r11,r2
8000b104:	e0 8b 00 08 	brhi	8000b114 <__avr32_umod64+0x208>
8000b108:	5f 03       	sreq	r3
8000b10a:	1c 3a       	cp.w	r10,lr
8000b10c:	5f ba       	srhi	r10
8000b10e:	e7 ea 00 0a 	and	r10,r3,r10
8000b112:	c0 60       	breq	8000b11e <__avr32_umod64+0x212>
8000b114:	ea 06 01 0a 	sub	r10,r5,r6
8000b118:	f6 08 01 4b 	sbc	r11,r11,r8
8000b11c:	14 95       	mov	r5,r10
8000b11e:	fc 05 01 0a 	sub	r10,lr,r5
8000b122:	e4 0b 01 42 	sbc	r2,r2,r11
8000b126:	e4 09 0a 4b 	lsr	r11,r2,r9
8000b12a:	f4 09 0a 4a 	lsr	r10,r10,r9
8000b12e:	e4 0c 09 42 	lsl	r2,r2,r12
8000b132:	04 4a       	or	r10,r2
8000b134:	2f ed       	sub	sp,-8
8000b136:	d8 32       	popm	r0-r7,pc

Disassembly of section .exception:

8000b200 <_evba>:
_evba:

	.org  0x000
	// Unrecoverable Exception.
_handle_Unrecoverable_Exception:
	rjmp $
8000b200:	c0 08       	rjmp	8000b200 <_evba>
	...

8000b204 <_handle_TLB_Multiple_Hit>:

	.org  0x004
	// TLB Multiple Hit.
_handle_TLB_Multiple_Hit:
	rjmp $
8000b204:	c0 08       	rjmp	8000b204 <_handle_TLB_Multiple_Hit>
	...

8000b208 <_handle_Bus_Error_Data_Fetch>:

	.org  0x008
	// Bus Error Data Fetch.
_handle_Bus_Error_Data_Fetch:
	rjmp $
8000b208:	c0 08       	rjmp	8000b208 <_handle_Bus_Error_Data_Fetch>
	...

8000b20c <_handle_Bus_Error_Instruction_Fetch>:

	.org  0x00C
	// Bus Error Instruction Fetch.
_handle_Bus_Error_Instruction_Fetch:
	rjmp $
8000b20c:	c0 08       	rjmp	8000b20c <_handle_Bus_Error_Instruction_Fetch>
	...

8000b210 <_handle_NMI>:

	.org  0x010
	// NMI.
_handle_NMI:
	rjmp $
8000b210:	c0 08       	rjmp	8000b210 <_handle_NMI>
	...

8000b214 <_handle_Instruction_Address>:

	.org  0x014
	// Instruction Address.
_handle_Instruction_Address:
	rjmp $
8000b214:	c0 08       	rjmp	8000b214 <_handle_Instruction_Address>
	...

8000b218 <_handle_ITLB_Protection>:

	.org  0x018
	// ITLB Protection.
_handle_ITLB_Protection:
	rjmp $
8000b218:	c0 08       	rjmp	8000b218 <_handle_ITLB_Protection>
	...

8000b21c <_handle_Breakpoint>:

	.org  0x01C
	// Breakpoint.
_handle_Breakpoint:
	rjmp $
8000b21c:	c0 08       	rjmp	8000b21c <_handle_Breakpoint>
	...

8000b220 <_handle_Illegal_Opcode>:

	.org  0x020
	// Illegal Opcode.
_handle_Illegal_Opcode:
	rjmp $
8000b220:	c0 08       	rjmp	8000b220 <_handle_Illegal_Opcode>
	...

8000b224 <_handle_Unimplemented_Instruction>:

	.org  0x024
	// Unimplemented Instruction.
_handle_Unimplemented_Instruction:
	rjmp $
8000b224:	c0 08       	rjmp	8000b224 <_handle_Unimplemented_Instruction>
	...

8000b228 <_handle_Privilege_Violation>:

	.org  0x028
	// Privilege Violation.
_handle_Privilege_Violation:
	rjmp $
8000b228:	c0 08       	rjmp	8000b228 <_handle_Privilege_Violation>
	...

8000b22c <_handle_Floating_Point>:

	.org  0x02C
	// Floating-Point: UNUSED IN AVR32UC and AVR32AP.
_handle_Floating_Point:
	rjmp $
8000b22c:	c0 08       	rjmp	8000b22c <_handle_Floating_Point>
	...

8000b230 <_handle_Coprocessor_Absent>:

	.org  0x030
	// Coprocessor Absent: UNUSED IN AVR32UC.
_handle_Coprocessor_Absent:
	rjmp $
8000b230:	c0 08       	rjmp	8000b230 <_handle_Coprocessor_Absent>
	...

8000b234 <_handle_Data_Address_Read>:

	.org  0x034
	// Data Address (Read).
_handle_Data_Address_Read:
	rjmp $
8000b234:	c0 08       	rjmp	8000b234 <_handle_Data_Address_Read>
	...

8000b238 <_handle_Data_Address_Write>:

	.org  0x038
	// Data Address (Write).
_handle_Data_Address_Write:
	rjmp $
8000b238:	c0 08       	rjmp	8000b238 <_handle_Data_Address_Write>
	...

8000b23c <_handle_DTLB_Protection_Read>:

	.org  0x03C
	// DTLB Protection (Read).
_handle_DTLB_Protection_Read:
	rjmp $
8000b23c:	c0 08       	rjmp	8000b23c <_handle_DTLB_Protection_Read>
	...

8000b240 <_handle_DTLB_Protection_Write>:

	.org  0x040
	// DTLB Protection (Write).
_handle_DTLB_Protection_Write:
	rjmp $
8000b240:	c0 08       	rjmp	8000b240 <_handle_DTLB_Protection_Write>
	...

8000b244 <_handle_DTLB_Modified>:

	.org  0x044
	// DTLB Modified: UNUSED IN AVR32UC.
_handle_DTLB_Modified:
	rjmp $
8000b244:	c0 08       	rjmp	8000b244 <_handle_DTLB_Modified>
	...

8000b250 <_handle_ITLB_Miss>:

	.org  0x050
	// ITLB Miss.
_handle_ITLB_Miss:
	rjmp $
8000b250:	c0 08       	rjmp	8000b250 <_handle_ITLB_Miss>
	...

8000b260 <_handle_DTLB_Miss_Read>:

	.org  0x060
	// DTLB Miss (Read).
_handle_DTLB_Miss_Read:
	rjmp $
8000b260:	c0 08       	rjmp	8000b260 <_handle_DTLB_Miss_Read>
	...

8000b270 <_handle_DTLB_Miss_Write>:

	.org  0x070
	// DTLB Miss (Write).
_handle_DTLB_Miss_Write:
	rjmp $
8000b270:	c0 08       	rjmp	8000b270 <_handle_DTLB_Miss_Write>
	...

8000b300 <_handle_Supervisor_Call>:

	.org  0x100
	// Supervisor Call.
_handle_Supervisor_Call:
	rjmp $
8000b300:	c0 08       	rjmp	8000b300 <_handle_Supervisor_Call>
8000b302:	d7 03       	nop

8000b304 <_int0>:
	 * RSR_INTx by the CPU upon interrupt entry. No other register is saved
	 * by hardware.
	 */
	pushm   r8-r12, lr
#endif
	// Pass the int_level parameter to the _get_interrupt_handler function.
8000b304:	30 0c       	mov	r12,0
8000b306:	fe b0 bb 19 	rcall	80002938 <_get_interrupt_handler>
8000b30a:	58 0c       	cp.w	r12,0
8000b30c:	f8 0f 17 10 	movne	pc,r12
	popm    r8-r12, lr
#endif
	/*
	 * If this was a spurious interrupt (R12 == NULL), return from event
	 * handler.
	 */
8000b310:	d6 03       	rete

8000b312 <_int1>:
	 * RSR_INTx by the CPU upon interrupt entry. No other register is saved
	 * by hardware.
	 */
	pushm   r8-r12, lr
#endif
	// Pass the int_level parameter to the _get_interrupt_handler function.
8000b312:	30 1c       	mov	r12,1
8000b314:	fe b0 bb 12 	rcall	80002938 <_get_interrupt_handler>
8000b318:	58 0c       	cp.w	r12,0
8000b31a:	f8 0f 17 10 	movne	pc,r12
	popm    r8-r12, lr
#endif
	/*
	 * If this was a spurious interrupt (R12 == NULL), return from event
	 * handler.
	 */
8000b31e:	d6 03       	rete

8000b320 <_int2>:
	 * RSR_INTx by the CPU upon interrupt entry. No other register is saved
	 * by hardware.
	 */
	pushm   r8-r12, lr
#endif
	// Pass the int_level parameter to the _get_interrupt_handler function.
8000b320:	30 2c       	mov	r12,2
8000b322:	fe b0 bb 0b 	rcall	80002938 <_get_interrupt_handler>
8000b326:	58 0c       	cp.w	r12,0
8000b328:	f8 0f 17 10 	movne	pc,r12
	popm    r8-r12, lr
#endif
	/*
	 * If this was a spurious interrupt (R12 == NULL), return from event
	 * handler.
	 */
8000b32c:	d6 03       	rete

8000b32e <_int3>:
	 * RSR_INTx by the CPU upon interrupt entry. No other register is saved
	 * by hardware.
	 */
	pushm   r8-r12, lr
#endif
	// Pass the int_level parameter to the _get_interrupt_handler function.
8000b32e:	30 3c       	mov	r12,3
8000b330:	fe b0 bb 04 	rcall	80002938 <_get_interrupt_handler>
8000b334:	58 0c       	cp.w	r12,0
8000b336:	f8 0f 17 10 	movne	pc,r12
	popm    r8-r12, lr
#endif
	/*
	 * If this was a spurious interrupt (R12 == NULL), return from event
	 * handler.
	 */
8000b33a:	d6 03       	rete
8000b33c:	d7 03       	nop
8000b33e:	d7 03       	nop
8000b340:	d7 03       	nop
8000b342:	d7 03       	nop
8000b344:	d7 03       	nop
8000b346:	d7 03       	nop
8000b348:	d7 03       	nop
8000b34a:	d7 03       	nop
8000b34c:	d7 03       	nop
8000b34e:	d7 03       	nop
8000b350:	d7 03       	nop
8000b352:	d7 03       	nop
8000b354:	d7 03       	nop
8000b356:	d7 03       	nop
8000b358:	d7 03       	nop
8000b35a:	d7 03       	nop
8000b35c:	d7 03       	nop
8000b35e:	d7 03       	nop
8000b360:	d7 03       	nop
8000b362:	d7 03       	nop
8000b364:	d7 03       	nop
8000b366:	d7 03       	nop
8000b368:	d7 03       	nop
8000b36a:	d7 03       	nop
8000b36c:	d7 03       	nop
8000b36e:	d7 03       	nop
8000b370:	d7 03       	nop
8000b372:	d7 03       	nop
8000b374:	d7 03       	nop
8000b376:	d7 03       	nop
8000b378:	d7 03       	nop
8000b37a:	d7 03       	nop
8000b37c:	d7 03       	nop
8000b37e:	d7 03       	nop
8000b380:	d7 03       	nop
8000b382:	d7 03       	nop
8000b384:	d7 03       	nop
8000b386:	d7 03       	nop
8000b388:	d7 03       	nop
8000b38a:	d7 03       	nop
8000b38c:	d7 03       	nop
8000b38e:	d7 03       	nop
8000b390:	d7 03       	nop
8000b392:	d7 03       	nop
8000b394:	d7 03       	nop
8000b396:	d7 03       	nop
8000b398:	d7 03       	nop
8000b39a:	d7 03       	nop
8000b39c:	d7 03       	nop
8000b39e:	d7 03       	nop
8000b3a0:	d7 03       	nop
8000b3a2:	d7 03       	nop
8000b3a4:	d7 03       	nop
8000b3a6:	d7 03       	nop
8000b3a8:	d7 03       	nop
8000b3aa:	d7 03       	nop
8000b3ac:	d7 03       	nop
8000b3ae:	d7 03       	nop
8000b3b0:	d7 03       	nop
8000b3b2:	d7 03       	nop
8000b3b4:	d7 03       	nop
8000b3b6:	d7 03       	nop
8000b3b8:	d7 03       	nop
8000b3ba:	d7 03       	nop
8000b3bc:	d7 03       	nop
8000b3be:	d7 03       	nop
8000b3c0:	d7 03       	nop
8000b3c2:	d7 03       	nop
8000b3c4:	d7 03       	nop
8000b3c6:	d7 03       	nop
8000b3c8:	d7 03       	nop
8000b3ca:	d7 03       	nop
8000b3cc:	d7 03       	nop
8000b3ce:	d7 03       	nop
8000b3d0:	d7 03       	nop
8000b3d2:	d7 03       	nop
8000b3d4:	d7 03       	nop
8000b3d6:	d7 03       	nop
8000b3d8:	d7 03       	nop
8000b3da:	d7 03       	nop
8000b3dc:	d7 03       	nop
8000b3de:	d7 03       	nop
8000b3e0:	d7 03       	nop
8000b3e2:	d7 03       	nop
8000b3e4:	d7 03       	nop
8000b3e6:	d7 03       	nop
8000b3e8:	d7 03       	nop
8000b3ea:	d7 03       	nop
8000b3ec:	d7 03       	nop
8000b3ee:	d7 03       	nop
8000b3f0:	d7 03       	nop
8000b3f2:	d7 03       	nop
8000b3f4:	d7 03       	nop
8000b3f6:	d7 03       	nop
8000b3f8:	d7 03       	nop
8000b3fa:	d7 03       	nop
8000b3fc:	d7 03       	nop
8000b3fe:	d7 03       	nop
